

Microchip MPLAB XC8 Assembler V2.32 build 20210201212658 
                                                                                               Thu Nov 18 22:06:44 2021

Microchip MPLAB XC8 C Compiler v2.32 (Free license) build 20210201212658 Og1 
     1                           	processor	18F4431
     2                           	fnconf	rparam,??,?,0
     3                           	pagewidth 120
     4                           	opt	flic
     5                           	psect	smallconst,global,reloc=2,class=SMALLCONST,delta=1,noexec
     6                           	psect	cinit,global,reloc=2,class=CODE,delta=1
     7                           	psect	bssCOMRAM,global,class=COMRAM,space=1,delta=1,lowdata,noexec
     8                           	psect	cstackCOMRAM,global,class=COMRAM,space=1,delta=1,lowdata,noexec
     9                           	psect	text0,global,reloc=2,class=CODE,delta=1
    10                           	psect	text1,global,reloc=2,class=CODE,delta=1
    11                           	psect	text2,global,reloc=2,class=CODE,delta=1
    12                           	psect	text3,global,reloc=2,class=CODE,delta=1
    13                           	psect	text4,global,reloc=2,class=CODE,delta=1
    14                           	psect	text5,global,reloc=2,class=CODE,delta=1
    15                           	psect	text6,global,reloc=2,class=CODE,delta=1
    16                           	psect	text7,global,reloc=2,class=CODE,delta=1
    17                           	psect	text8,global,reloc=2,class=CODE,delta=1
    18                           	psect	text9,global,reloc=2,class=CODE,delta=1
    19                           	psect	text10,global,reloc=2,class=CODE,delta=1
    20                           	psect	text11,global,reloc=2,class=CODE,delta=1
    21                           	psect	text12,global,reloc=2,class=CODE,delta=1
    22                           	psect	text13,global,reloc=2,class=CODE,delta=1
    23                           	psect	text14,global,reloc=2,class=CODE,delta=1,group=1
    24                           	psect	intcode,global,reloc=2,class=CODE,delta=1
    25                           	psect	text16,global,reloc=2,class=CODE,delta=1
    26                           	psect	text17,global,reloc=2,class=CODE,delta=1
    27                           	psect	intsave_regs,global,class=BIGRAM,space=1,delta=1,noexec
    28                           	psect	rparam,global,class=COMRAM,space=1,delta=1,noexec
    29                           	psect	temp,global,ovrld,common,class=COMRAM,space=1,delta=1
    30                           	psect	idloc,global,abs,ovrld,class=IDLOC,space=5,delta=1,noexec
    31                           	psect	config,global,abs,ovrld,class=CONFIG,space=4,delta=1,noexec
    32  0000                     
    33                           ; Version 2.32
    34                           ; Generated 02/02/2021 GMT
    35                           ; 
    36                           ; Copyright © 2021, Microchip Technology Inc. and its subsidiaries ("Microchip")
    37                           ; All rights reserved.
    38                           ; 
    39                           ; This software is developed by Microchip Technology Inc. and its subsidiaries ("Microch
      +                          ip").
    40                           ; 
    41                           ; Redistribution and use in source and binary forms, with or without modification, are
    42                           ; permitted provided that the following conditions are met:
    43                           ; 
    44                           ;     1. Redistributions of source code must retain the above copyright notice, this lis
      +                          t of
    45                           ;        conditions and the following disclaimer.
    46                           ; 
    47                           ;     2. Redistributions in binary form must reproduce the above copyright notice, this 
      +                          list
    48                           ;        of conditions and the following disclaimer in the documentation and/or other
    49                           ;        materials provided with the distribution. Publication is not required when
    50                           ;        this file is used in an embedded application.
    51                           ; 
    52                           ;     3. Microchip's name may not be used to endorse or promote products derived from th
      +                          is
    53                           ;        software without specific prior written permission.
    54                           ; 
    55                           ; THIS SOFTWARE IS PROVIDED BY MICROCHIP "AS IS" AND ANY EXPRESS OR IMPLIED WARRANTIES,
    56                           ; INCLUDING, BUT NOT LIMITED TO, THE IMPLIED WARRANTIES OF MERCHANTABILITY AND FITNESS F
      +                          OR
    57                           ; PURPOSE ARE DISCLAIMED.  IN NO EVENT SHALL MICROCHIP BE LIABLE FOR ANY DIRECT, INDIREC
      +                          T,
    58                           ; INCIDENTAL, SPECIAL, EXEMPLARY, OR CONSEQUENTIAL DAMAGES (INCLUDING BUT NOT LIMITED TO
    59                           ; PROCUREMENT OF SUBSTITUTE GOODS OR SERVICES; LOSS OF USE, DATA OR PROFITS; OR BUSINESS
    60                           ; INTERRUPTION) HOWSOEVER CAUSED AND ON ANY THEORY OF LIABILITY, WHETHER IN CONTRACT, ST
      +                          RICT
    61                           ; LIABILITY, OR TORT (INCLUDING NEGLIGENCE OR OTHERWISE) ARISING IN ANY WAY OUT OF THE U
      +                          SE OF
    62                           ; THIS SOFTWARE, EVEN IF ADVISED OF THE POSSIBILITY OF SUCH DAMAGE.
    63                           ; 
    64                           ; 
    65                           ; Code-generator required, PIC18F4431 Definitions
    66                           ; 
    67                           ; SFR Addresses
    68  0000                     _PDC3H	set	3954
    69  0000                     _PDC3L	set	3955
    70  0000                     _PDC0H	set	3960
    71  0000                     _PDC0L	set	3961
    72  0000                     _PDC2H	set	3956
    73  0000                     _PDC2L	set	3957
    74  0000                     _PDC1H	set	3958
    75  0000                     _PDC1L	set	3959
    76  0000                     _PORTBbits	set	3969
    77  0000                     _TMR1H	set	4047
    78  0000                     _TMR1L	set	4046
    79  0000                     _PORTCbits	set	3970
    80  0000                     _PORTAbits	set	3968
    81  0000                     _TMR0H	set	4055
    82  0000                     _TMR0L	set	4054
    83  0000                     _PORTDbits	set	3971
    84  0000                     _INTCONbits	set	4082
    85  0000                     _PORTD	set	3971
    86  0000                     _PORTB	set	3969
    87  0000                     _PTMRH	set	3964
    88  0000                     _PTMRL	set	3965
    89  0000                     _PTPERH	set	3962
    90  0000                     _PTPERL	set	3963
    91  0000                     _OVDCONS	set	3946
    92  0000                     _OVDCOND	set	3947
    93  0000                     _DTCON	set	3949
    94  0000                     _PWMCON1	set	3950
    95  0000                     _PWMCON0	set	3951
    96  0000                     _PTCON1	set	3966
    97  0000                     _PTCON0	set	3967
    98  0000                     _RCREG	set	4014
    99  0000                     _TXREG	set	4013
   100  0000                     _PIE1bits	set	3997
   101  0000                     _PIR1bits	set	3998
   102  0000                     _RCSTAbits	set	4011
   103  0000                     _TXSTAbits	set	4012
   104  0000                     _SPBRG	set	4015
   105  0000                     _ANSEL1	set	4025
   106  0000                     _ANSEL0	set	4024
   107  0000                     _TRISE	set	3990
   108  0000                     _TRISD	set	3989
   109  0000                     _TRISC	set	3988
   110  0000                     _TRISB	set	3987
   111  0000                     _TRISA	set	3986
   112  0000                     _TMR1IF	set	31984
   113  0000                     _TMR1ON	set	32360
   114  0000                     _TMR1CS	set	32361
   115  0000                     _T1SYNC	set	32362
   116  0000                     _T1OSCEN	set	32363
   117  0000                     _T1CKPS0	set	32364
   118  0000                     _T1RUN	set	32366
   119  0000                     _RD16	set	32367
   120  0000                     _TMR0IF	set	32658
   121  0000                     _T0PS0	set	32424
   122  0000                     _PSA	set	32427
   123  0000                     _T0CS	set	32429
   124  0000                     _T016BIT	set	32430
   125  0000                     _TMR0ON	set	32431
   126                           
   127                           	psect	smallconst
   128  000300                     __psmallconst:
   129                           	callstack 0
   130  000300  00                 	db	0
   131  000301                     STR_2:
   132  000301  64                 	db	100	;'d'
   133  000302  69                 	db	105	;'i'
   134  000303  73                 	db	115	;'s'
   135  000304  74                 	db	116	;'t'
   136  000305  61                 	db	97	;'a'
   137  000306  6E                 	db	110	;'n'
   138  000307  63                 	db	99	;'c'
   139  000308  69                 	db	105	;'i'
   140  000309  61                 	db	97	;'a'
   141  00030A  00                 	db	0
   142  00030B                     STR_11:
   143  00030B  65                 	db	101	;'e'
   144  00030C  73                 	db	115	;'s'
   145  00030D  71                 	db	113	;'q'
   146  00030E  75                 	db	117	;'u'
   147  00030F  65                 	db	101	;'e'
   148  000310  72                 	db	114	;'r'
   149  000311  64                 	db	100	;'d'
   150  000312  6F                 	db	111	;'o'
   151  000313  00                 	db	0
   152  000314                     STR_3:
   153  000314  74                 	db	116	;'t'
   154  000315  6F                 	db	111	;'o'
   155  000316  71                 	db	113	;'q'
   156  000317  75                 	db	117	;'u'
   157  000318  69                 	db	105	;'i'
   158  000319  6E                 	db	110	;'n'
   159  00031A  68                 	db	104	;'h'
   160  00031B  6F                 	db	111	;'o'
   161  00031C  00                 	db	0
   162  00031D                     STR_5:
   163  00031D  65                 	db	101	;'e'
   164  00031E  73                 	db	115	;'s'
   165  00031F  74                 	db	116	;'t'
   166  000320  72                 	db	114	;'r'
   167  000321  65                 	db	101	;'e'
   168  000322  6C                 	db	108	;'l'
   169  000323  61                 	db	97	;'a'
   170  000324  00                 	db	0
   171  000325                     STR_10:
   172  000325  64                 	db	100	;'d'
   173  000326  69                 	db	105	;'i'
   174  000327  72                 	db	114	;'r'
   175  000328  65                 	db	101	;'e'
   176  000329  69                 	db	105	;'i'
   177  00032A  74                 	db	116	;'t'
   178  00032B  6F                 	db	111	;'o'
   179  00032C  00                 	db	0
   180  00032D                     STR_12:
   181  00032D  66                 	db	102	;'f'
   182  00032E  72                 	db	114	;'r'
   183  00032F  65                 	db	101	;'e'
   184  000330  6E                 	db	110	;'n'
   185  000331  74                 	db	116	;'t'
   186  000332  65                 	db	101	;'e'
   187  000333  00                 	db	0
   188  000334                     STR_6:
   189  000334  7A                 	db	122	;'z'
   190  000335  69                 	db	105	;'i'
   191  000336  67                 	db	103	;'g'
   192  000337  7A                 	db	122	;'z'
   193  000338  61                 	db	97	;'a'
   194  000339  67                 	db	103	;'g'
   195  00033A  00                 	db	0
   196  00033B                     STR_1:
   197  00033B  6C                 	db	108	;'l'
   198  00033C  69                 	db	105	;'i'
   199  00033D  6E                 	db	110	;'n'
   200  00033E  68                 	db	104	;'h'
   201  00033F  61                 	db	97	;'a'
   202  000340  00                 	db	0
   203  000341                     STR_7:
   204  000341  74                 	db	116	;'t'
   205  000342  65                 	db	101	;'e'
   206  000343  73                 	db	115	;'s'
   207  000344  74                 	db	116	;'t'
   208  000345  65                 	db	101	;'e'
   209  000346  00                 	db	0
   210  000347                     STR_15:
   211  000347  70                 	db	112	;'p'
   212  000348  61                 	db	97	;'a'
   213  000349  72                 	db	114	;'r'
   214  00034A  61                 	db	97	;'a'
   215  00034B  72                 	db	114	;'r'
   216  00034C  00                 	db	0
   217  00034D                     STR_14:
   218  00034D  6D                 	db	109	;'m'
   219  00034E  6F                 	db	111	;'o'
   220  00034F  74                 	db	116	;'t'
   221  000350  6F                 	db	111	;'o'
   222  000351  72                 	db	114	;'r'
   223  000352  00                 	db	0
   224  000353                     STR_16:
   225  000353  61                 	db	97	;'a'
   226  000354  71                 	db	113	;'q'
   227  000355  75                 	db	117	;'u'
   228  000356  69                 	db	105	;'i'
   229  000357  00                 	db	0
   230  000358                     STR_4:
   231  000358  61                 	db	97	;'a'
   232  000359  72                 	db	114	;'r'
   233  00035A  63                 	db	99	;'c'
   234  00035B  6F                 	db	111	;'o'
   235  00035C  00                 	db	0
   236  00035D                     STR_13:
   237  00035D  74                 	db	116	;'t'
   238  00035E  72                 	db	114	;'r'
   239  00035F  61                 	db	97	;'a'
   240  000360  73                 	db	115	;'s'
   241  000361  00                 	db	0
   242  000362                     STR_8:
   243  000362  67                 	db	103	;'g'
   244  000363  64                 	db	100	;'d'
   245  000364  00                 	db	0
   246  000365                     STR_9:
   247  000365  67                 	db	103	;'g'
   248  000366  65                 	db	101	;'e'
   249  000367  00                 	db	0
   250  000368                     STR_29:
   251  000368  20                 	db	32
   252  000369  00                 	db	0
   253  00036A  00                 	db	0	; dummy byte at the end
   254  0000                     
   255                           ; #config settings
   256                           
   257                           	psect	cinit
   258  002398                     __pcinit:
   259                           	callstack 0
   260  002398                     start_initialization:
   261                           	callstack 0
   262  002398                     __initialization:
   263                           	callstack 0
   264                           
   265                           ; Clear objects allocated to COMRAM (8 bytes)
   266  002398  EE00  F018         	lfsr	0,__pbssCOMRAM
   267  00239C  0E08               	movlw	8
   268  00239E                     clear_0:
   269  00239E  6AEE               	clrf	postinc0,c
   270  0023A0  06E8               	decf	wreg,f,c
   271  0023A2  E1FD               	bnz	clear_0
   272  0023A4                     end_of_initialization:
   273                           	callstack 0
   274  0023A4                     __end_of__initialization:
   275                           	callstack 0
   276  0023A4  9020               	bcf	int$flags,0,c	;clear compiler interrupt flag (level 1)
   277  0023A6  9220               	bcf	int$flags,1,c	;clear compiler interrupt flag (level 2)
   278  0023A8  0E00               	movlw	low (__Lsmallconst shr (0+16))
   279  0023AA  6EF8               	movwf	tblptru,c
   280  0023AC  0E03               	movlw	high __Lsmallconst
   281  0023AE  6EF7               	movwf	tblptrh,c
   282  0023B0  0100               	movlb	0
   283  0023B2  EFB6  F001         	goto	_main	;jump to C main() function
   284                           
   285                           	psect	bssCOMRAM
   286  000018                     __pbssCOMRAM:
   287                           	callstack 0
   288  000018                     _ini:
   289                           	callstack 0
   290  000018                     	ds	2
   291  00001A                     _velocidade:
   292                           	callstack 0
   293  00001A                     	ds	2
   294  00001C                     _acao:
   295                           	callstack 0
   296  00001C                     	ds	2
   297  00001E                     _sentido:
   298                           	callstack 0
   299  00001E                     	ds	1
   300  00001F                     _lado:
   301                           	callstack 0
   302  00001F                     	ds	1
   303                           
   304                           	psect	cstackCOMRAM
   305  000001                     __pcstackCOMRAM:
   306                           	callstack 0
   307  000001                     readUSART@ler:
   308                           	callstack 0
   309                           
   310                           ; 1 bytes @ 0x0
   311  000001                     	ds	1
   312  000002                     ?___wmul:
   313                           	callstack 0
   314  000002                     picUSART@status:
   315                           	callstack 0
   316  000002                     stringUSART@frase:
   317                           	callstack 0
   318  000002                     ___wmul@multiplier:
   319                           	callstack 0
   320                           
   321                           ; 2 bytes @ 0x1
   322  000002                     	ds	2
   323  000004                     ??_stringUSART:
   324  000004                     ___wmul@multiplicand:
   325                           	callstack 0
   326                           
   327                           ; 2 bytes @ 0x3
   328  000004                     	ds	2
   329  000006                     stringUSART@i:
   330                           	callstack 0
   331  000006                     ___wmul@product:
   332                           	callstack 0
   333                           
   334                           ; 2 bytes @ 0x5
   335  000006                     	ds	2
   336  000008                     moverMotor@sentido:
   337                           	callstack 0
   338                           
   339                           ; 1 bytes @ 0x7
   340  000008                     	ds	1
   341  000009                     moverMotor@velocidade:
   342                           	callstack 0
   343                           
   344                           ; 2 bytes @ 0x8
   345  000009                     	ds	2
   346  00000B                     moverMotor@lado:
   347                           	callstack 0
   348                           
   349                           ; 1 bytes @ 0xA
   350  00000B                     	ds	1
   351  00000C                     ??_testarLinha:
   352  00000C                     testarDistancia@velTestParaFrente:
   353                           	callstack 0
   354                           
   355                           ; 2 bytes @ 0xB
   356  00000C                     	ds	2
   357  00000E                     ??_estrela:
   358                           
   359                           ; 1 bytes @ 0xD
   360  00000E                     	ds	2
   361  000010                     ??_main:
   362                           
   363                           ; 1 bytes @ 0xF
   364  000010                     	ds	2
   365  000012                     main@cont_tmr:
   366                           	callstack 0
   367                           
   368                           ; 1 bytes @ 0x11
   369  000012                     	ds	1
   370  000013                     main@cont_zig:
   371                           	callstack 0
   372                           
   373                           ; 1 bytes @ 0x12
   374  000013                     	ds	1
   375  000014                     main@cont:
   376                           	callstack 0
   377                           
   378                           ; 2 bytes @ 0x13
   379  000014                     	ds	2
   380  000016                     main@aux:
   381                           	callstack 0
   382                           
   383                           ; 1 bytes @ 0x15
   384  000016                     	ds	1
   385  000017                     main@cont_tmr_702:
   386                           	callstack 0
   387                           
   388                           ; 1 bytes @ 0x16
   389  000017                     	ds	1
   390                           
   391 ;;
   392 ;;Main: autosize = 0, tempsize = 2, incstack = 0, save=0
   393 ;;
   394 ;; *************** function _main *****************
   395 ;; Defined at:
   396 ;;		line 97 in file "hachiko_0.c"
   397 ;; Parameters:    Size  Location     Type
   398 ;;		None
   399 ;; Auto vars:     Size  Location     Type
   400 ;;  cont_tmr        1   22[COMRAM] unsigned char 
   401 ;;  cont_zig        1   18[COMRAM] unsigned char 
   402 ;;  cont            2   19[COMRAM] int 
   403 ;;  aux             1   21[COMRAM] unsigned char 
   404 ;;  cont_tmr        1   17[COMRAM] unsigned char 
   405 ;; Return value:  Size  Location     Type
   406 ;;                  1    wreg      void 
   407 ;; Registers used:
   408 ;;		wreg, status,2, status,0, tblptrl, tblptrh, tblptru, prodl, prodh, cstack
   409 ;; Tracked objects:
   410 ;;		On entry : 0/0
   411 ;;		On exit  : 0/0
   412 ;;		Unchanged: 0/0
   413 ;; Data sizes:     COMRAM   BANK0   BANK1   BANK2
   414 ;;      Params:         0       0       0       0
   415 ;;      Locals:         6       0       0       0
   416 ;;      Temps:          2       0       0       0
   417 ;;      Totals:         8       0       0       0
   418 ;;Total ram usage:        8 bytes
   419 ;; Hardware stack levels required when called: 6
   420 ;; This function calls:
   421 ;;		_estrela
   422 ;;		_moverMotor
   423 ;;		_pararMotor
   424 ;;		_picUSART
   425 ;;		_setBT
   426 ;;		_setIO
   427 ;;		_setPWM
   428 ;;		_setTMR0
   429 ;;		_setTMR1
   430 ;;		_stringUSART
   431 ;;		_testarDistancia
   432 ;;		_testarLinha
   433 ;; This function is called by:
   434 ;;		Startup code after reset
   435 ;; This function uses a non-reentrant model
   436 ;;
   437                           
   438                           	psect	text0
   439  00036C                     __ptext0:
   440                           	callstack 0
   441  00036C                     _main:
   442                           	callstack 25
   443  00036C                     
   444                           ;hachiko_0.c: 99:     setIO();
   445  00036C  ECDB  F011         	call	_setIO	;wreg free
   446                           
   447                           ;hachiko_0.c: 100:     setBT();
   448  000370  ECE8  F011         	call	_setBT	;wreg free
   449                           
   450                           ;hachiko_0.c: 101:     setPWM();
   451  000374  EC7D  F011         	call	_setPWM	;wreg free
   452  000378                     
   453                           ;hachiko_0.c: 102:     setTMR0();
   454  000378  EC0C  F012         	call	_setTMR0	;wreg free
   455  00037C                     
   456                           ;hachiko_0.c: 103:     setTMR1();
   457  00037C  ECFC  F011         	call	_setTMR1	;wreg free
   458  000380                     
   459                           ;hachiko_0.c: 108:     INTCONbits.GIE = 1;
   460  000380  8EF2               	bsf	242,7,c	;volatile
   461  000382                     
   462                           ;hachiko_0.c: 109:     INTCONbits.PEIE = 1;
   463  000382  8CF2               	bsf	242,6,c	;volatile
   464  000384                     
   465                           ;hachiko_0.c: 111:     PORTDbits.RD0 = 0;
   466  000384  9083               	bcf	131,0,c	;volatile
   467  000386                     
   468                           ;hachiko_0.c: 112:     PORTDbits.RD1 = 1;
   469  000386  8283               	bsf	131,1,c	;volatile
   470  000388                     l2422:
   471                           
   472                           ;hachiko_0.c: 120:     while(ini == 0){
   473  000388  5018               	movf	_ini^0,w,c
   474  00038A  1019               	iorwf	(_ini+1)^0,w,c
   475  00038C  B4D8               	btfsc	status,2,c
   476  00038E  EFCB  F001         	goto	u3921
   477  000392  EFCD  F001         	goto	u3920
   478  000396                     u3921:
   479  000396  EFC4  F001         	goto	l2422
   480  00039A                     u3920:
   481  00039A                     
   482                           ;hachiko_0.c: 128:     stringUSART("aqui");
   483  00039A  0E53               	movlw	low STR_16
   484  00039C  6E02               	movwf	stringUSART@frase^0,c
   485  00039E  0E03               	movlw	high STR_16
   486  0003A0  6E03               	movwf	(stringUSART@frase+1)^0,c
   487  0003A2  EC4D  F011         	call	_stringUSART	;wreg free
   488  0003A6                     l2426:
   489                           
   490                           ;hachiko_0.c: 131:         if(acao == "linha"){
   491  0003A6  0E3B               	movlw	low STR_1
   492  0003A8  181C               	xorwf	_acao^0,w,c
   493  0003AA  E107               	bnz	u3931
   494  0003AC  0E03               	movlw	high STR_1
   495  0003AE  181D               	xorwf	(_acao+1)^0,w,c
   496  0003B0  A4D8               	btfss	status,2,c
   497  0003B2  EFDD  F001         	goto	u3931
   498  0003B6  EFDF  F001         	goto	u3930
   499  0003BA                     u3931:
   500  0003BA  EFEF  F001         	goto	l2434
   501  0003BE                     u3930:
   502  0003BE                     l2428:
   503                           
   504                           ;hachiko_0.c: 133:                 testarLinha();
   505  0003BE  EC80  F00F         	call	_testarLinha	;wreg free
   506  0003C2                     
   507                           ;hachiko_0.c: 135:                 if(acao == "parar"){
   508  0003C2  0E47               	movlw	low STR_15
   509  0003C4  181C               	xorwf	_acao^0,w,c
   510  0003C6  E107               	bnz	u3941
   511  0003C8  0E03               	movlw	high STR_15
   512  0003CA  181D               	xorwf	(_acao+1)^0,w,c
   513  0003CC  A4D8               	btfss	status,2,c
   514  0003CE  EFEB  F001         	goto	u3941
   515  0003D2  EFED  F001         	goto	u3940
   516  0003D6                     u3941:
   517  0003D6  EFDF  F001         	goto	l2428
   518  0003DA                     u3940:
   519  0003DA                     
   520                           ;hachiko_0.c: 136:                     pararMotor();
   521  0003DA  ECAA  F011         	call	_pararMotor	;wreg free
   522  0003DE                     l2434:
   523                           
   524                           ;hachiko_0.c: 142:         if(acao == "distancia"){
   525  0003DE  0E01               	movlw	low STR_2
   526  0003E0  181C               	xorwf	_acao^0,w,c
   527  0003E2  E107               	bnz	u3951
   528  0003E4  0E03               	movlw	high STR_2
   529  0003E6  181D               	xorwf	(_acao+1)^0,w,c
   530  0003E8  A4D8               	btfss	status,2,c
   531  0003EA  EFF9  F001         	goto	u3951
   532  0003EE  EFFB  F001         	goto	u3950
   533  0003F2                     u3951:
   534  0003F2  EF0B  F002         	goto	l2442
   535  0003F6                     u3950:
   536  0003F6                     l2436:
   537                           
   538                           ;hachiko_0.c: 144:                 testarDistancia();
   539  0003F6  EC8A  F00D         	call	_testarDistancia	;wreg free
   540  0003FA                     
   541                           ;hachiko_0.c: 146:                 if(acao == "parar"){
   542  0003FA  0E47               	movlw	low STR_15
   543  0003FC  181C               	xorwf	_acao^0,w,c
   544  0003FE  E107               	bnz	u3961
   545  000400  0E03               	movlw	high STR_15
   546  000402  181D               	xorwf	(_acao+1)^0,w,c
   547  000404  A4D8               	btfss	status,2,c
   548  000406  EF07  F002         	goto	u3961
   549  00040A  EF09  F002         	goto	u3960
   550  00040E                     u3961:
   551  00040E  EFFB  F001         	goto	l2436
   552  000412                     u3960:
   553  000412                     
   554                           ;hachiko_0.c: 147:                     pararMotor();
   555  000412  ECAA  F011         	call	_pararMotor	;wreg free
   556  000416                     l2442:
   557                           
   558                           ;hachiko_0.c: 153:         if(acao == "arco"){
   559  000416  0E58               	movlw	low STR_4
   560  000418  181C               	xorwf	_acao^0,w,c
   561  00041A  E107               	bnz	u3971
   562  00041C  0E03               	movlw	high STR_4
   563  00041E  181D               	xorwf	(_acao+1)^0,w,c
   564  000420  A4D8               	btfss	status,2,c
   565  000422  EF15  F002         	goto	u3971
   566  000426  EF17  F002         	goto	u3970
   567  00042A                     u3971:
   568  00042A  EF7E  F004         	goto	l2564
   569  00042E                     u3970:
   570  00042E                     
   571                           ;hachiko_0.c: 154:             TMR0ON = 1;
   572  00042E  8ED5               	bsf	4053,7,c	;volatile
   573  000430                     
   574                           ;hachiko_0.c: 155:             TMR0L = 0x78;
   575  000430  0E78               	movlw	120
   576  000432  6ED6               	movwf	214,c	;volatile
   577                           
   578                           ;hachiko_0.c: 156:             TMR0H = 0xF8;
   579  000434  0EF8               	movlw	248
   580  000436  6ED7               	movwf	215,c	;volatile
   581                           
   582                           ;hachiko_0.c: 157:             char cont_tmr = 0x00;
   583  000438  0E00               	movlw	0
   584  00043A  6E12               	movwf	main@cont_tmr^0,c
   585                           
   586                           ;hachiko_0.c: 158:             while(cont_tmr < 0x64){
   587  00043C  EF75  F004         	goto	l2562
   588  000440                     l229:
   589                           
   590                           ;hachiko_0.c: 159:                 if(PORTAbits.RA1 && PORTAbits.RA4 && PORTCbits.RC0 &&
      +                           PORTAbits.RA3 && PORTAbits.RA2){
   591  000440  A280               	btfss	128,1,c	;volatile
   592  000442  EF25  F002         	goto	u3981
   593  000446  EF27  F002         	goto	u3980
   594  00044A                     u3981:
   595  00044A  EF57  F002         	goto	l230
   596  00044E                     u3980:
   597  00044E  A880               	btfss	128,4,c	;volatile
   598  000450  EF2C  F002         	goto	u3991
   599  000454  EF2E  F002         	goto	u3990
   600  000458                     u3991:
   601  000458  EF57  F002         	goto	l230
   602  00045C                     u3990:
   603  00045C  A082               	btfss	130,0,c	;volatile
   604  00045E  EF33  F002         	goto	u4001
   605  000462  EF35  F002         	goto	u4000
   606  000466                     u4001:
   607  000466  EF57  F002         	goto	l230
   608  00046A                     u4000:
   609  00046A  A680               	btfss	128,3,c	;volatile
   610  00046C  EF3A  F002         	goto	u4011
   611  000470  EF3C  F002         	goto	u4010
   612  000474                     u4011:
   613  000474  EF57  F002         	goto	l230
   614  000478                     u4010:
   615  000478  A480               	btfss	128,2,c	;volatile
   616  00047A  EF41  F002         	goto	u4021
   617  00047E  EF43  F002         	goto	u4020
   618  000482                     u4021:
   619  000482  EF57  F002         	goto	l230
   620  000486                     u4020:
   621  000486                     
   622                           ;hachiko_0.c: 160:                     moverMotor('d','f',75);
   623  000486  0E66               	movlw	102
   624  000488  6E08               	movwf	moverMotor@sentido^0,c
   625  00048A  0E00               	movlw	0
   626  00048C  6E0A               	movwf	(moverMotor@velocidade+1)^0,c
   627  00048E  0E4B               	movlw	75
   628  000490  6E09               	movwf	moverMotor@velocidade^0,c
   629  000492  0E64               	movlw	100
   630  000494  ECDF  F010         	call	_moverMotor
   631                           
   632                           ;hachiko_0.c: 161:                     moverMotor('e','f',90);
   633  000498  0E66               	movlw	102
   634  00049A  6E08               	movwf	moverMotor@sentido^0,c
   635  00049C  0E00               	movlw	0
   636  00049E  6E0A               	movwf	(moverMotor@velocidade+1)^0,c
   637  0004A0  0E5A               	movlw	90
   638  0004A2  6E09               	movwf	moverMotor@velocidade^0,c
   639  0004A4  0E65               	movlw	101
   640  0004A6  ECDF  F010         	call	_moverMotor
   641                           
   642                           ;hachiko_0.c: 162:                 }
   643  0004AA  EF58  F004         	goto	l2550
   644  0004AE                     l230:
   645  0004AE  B280               	btfsc	128,1,c	;volatile
   646  0004B0  EF5C  F002         	goto	u4031
   647  0004B4  EF5E  F002         	goto	u4030
   648  0004B8                     u4031:
   649  0004B8  EF8E  F002         	goto	l232
   650  0004BC                     u4030:
   651  0004BC  A880               	btfss	128,4,c	;volatile
   652  0004BE  EF63  F002         	goto	u4041
   653  0004C2  EF65  F002         	goto	u4040
   654  0004C6                     u4041:
   655  0004C6  EF8E  F002         	goto	l232
   656  0004CA                     u4040:
   657  0004CA  A082               	btfss	130,0,c	;volatile
   658  0004CC  EF6A  F002         	goto	u4051
   659  0004D0  EF6C  F002         	goto	u4050
   660  0004D4                     u4051:
   661  0004D4  EF8E  F002         	goto	l232
   662  0004D8                     u4050:
   663  0004D8  A680               	btfss	128,3,c	;volatile
   664  0004DA  EF71  F002         	goto	u4061
   665  0004DE  EF73  F002         	goto	u4060
   666  0004E2                     u4061:
   667  0004E2  EF8E  F002         	goto	l232
   668  0004E6                     u4060:
   669  0004E6  A480               	btfss	128,2,c	;volatile
   670  0004E8  EF78  F002         	goto	u4071
   671  0004EC  EF7A  F002         	goto	u4070
   672  0004F0                     u4071:
   673  0004F0  EF8E  F002         	goto	l232
   674  0004F4                     u4070:
   675  0004F4                     
   676                           ;hachiko_0.c: 164:                     moverMotor('e','t',60);
   677  0004F4  0E74               	movlw	116
   678  0004F6  6E08               	movwf	moverMotor@sentido^0,c
   679  0004F8  0E00               	movlw	0
   680  0004FA  6E0A               	movwf	(moverMotor@velocidade+1)^0,c
   681  0004FC  0E3C               	movlw	60
   682  0004FE  6E09               	movwf	moverMotor@velocidade^0,c
   683  000500  0E65               	movlw	101
   684  000502  ECDF  F010         	call	_moverMotor
   685                           
   686                           ;hachiko_0.c: 165:                     moverMotor('d','f',60);
   687  000506  0E66               	movlw	102
   688  000508  6E08               	movwf	moverMotor@sentido^0,c
   689  00050A  0E00               	movlw	0
   690  00050C  6E0A               	movwf	(moverMotor@velocidade+1)^0,c
   691  00050E  0E3C               	movlw	60
   692  000510  6E09               	movwf	moverMotor@velocidade^0,c
   693  000512  0E64               	movlw	100
   694  000514  ECDF  F010         	call	_moverMotor
   695                           
   696                           ;hachiko_0.c: 166:                 }
   697  000518  EF58  F004         	goto	l2550
   698  00051C                     l232:
   699  00051C  A280               	btfss	128,1,c	;volatile
   700  00051E  EF93  F002         	goto	u4081
   701  000522  EF95  F002         	goto	u4080
   702  000526                     u4081:
   703  000526  EFC5  F002         	goto	l234
   704  00052A                     u4080:
   705  00052A  A880               	btfss	128,4,c	;volatile
   706  00052C  EF9A  F002         	goto	u4091
   707  000530  EF9C  F002         	goto	u4090
   708  000534                     u4091:
   709  000534  EFC5  F002         	goto	l234
   710  000538                     u4090:
   711  000538  B082               	btfsc	130,0,c	;volatile
   712  00053A  EFA1  F002         	goto	u4101
   713  00053E  EFA3  F002         	goto	u4100
   714  000542                     u4101:
   715  000542  EFC5  F002         	goto	l234
   716  000546                     u4100:
   717  000546  A680               	btfss	128,3,c	;volatile
   718  000548  EFA8  F002         	goto	u4111
   719  00054C  EFAA  F002         	goto	u4110
   720  000550                     u4111:
   721  000550  EFC5  F002         	goto	l234
   722  000554                     u4110:
   723  000554  A480               	btfss	128,2,c	;volatile
   724  000556  EFAF  F002         	goto	u4121
   725  00055A  EFB1  F002         	goto	u4120
   726  00055E                     u4121:
   727  00055E  EFC5  F002         	goto	l234
   728  000562                     u4120:
   729  000562                     
   730                           ;hachiko_0.c: 168:                     moverMotor('e','f',60);
   731  000562  0E66               	movlw	102
   732  000564  6E08               	movwf	moverMotor@sentido^0,c
   733  000566  0E00               	movlw	0
   734  000568  6E0A               	movwf	(moverMotor@velocidade+1)^0,c
   735  00056A  0E3C               	movlw	60
   736  00056C  6E09               	movwf	moverMotor@velocidade^0,c
   737  00056E  0E65               	movlw	101
   738  000570  ECDF  F010         	call	_moverMotor
   739                           
   740                           ;hachiko_0.c: 169:                     moverMotor('d','f',60);
   741  000574  0E66               	movlw	102
   742  000576  6E08               	movwf	moverMotor@sentido^0,c
   743  000578  0E00               	movlw	0
   744  00057A  6E0A               	movwf	(moverMotor@velocidade+1)^0,c
   745  00057C  0E3C               	movlw	60
   746  00057E  6E09               	movwf	moverMotor@velocidade^0,c
   747  000580  0E64               	movlw	100
   748  000582  ECDF  F010         	call	_moverMotor
   749                           
   750                           ;hachiko_0.c: 171:                 }
   751  000586  EF58  F004         	goto	l2550
   752  00058A                     l234:
   753  00058A  A280               	btfss	128,1,c	;volatile
   754  00058C  EFCA  F002         	goto	u4131
   755  000590  EFCC  F002         	goto	u4130
   756  000594                     u4131:
   757  000594  EFFC  F002         	goto	l236
   758  000598                     u4130:
   759  000598  B880               	btfsc	128,4,c	;volatile
   760  00059A  EFD1  F002         	goto	u4141
   761  00059E  EFD3  F002         	goto	u4140
   762  0005A2                     u4141:
   763  0005A2  EFFC  F002         	goto	l236
   764  0005A6                     u4140:
   765  0005A6  A082               	btfss	130,0,c	;volatile
   766  0005A8  EFD8  F002         	goto	u4151
   767  0005AC  EFDA  F002         	goto	u4150
   768  0005B0                     u4151:
   769  0005B0  EFFC  F002         	goto	l236
   770  0005B4                     u4150:
   771  0005B4  B680               	btfsc	128,3,c	;volatile
   772  0005B6  EFDF  F002         	goto	u4161
   773  0005BA  EFE1  F002         	goto	u4160
   774  0005BE                     u4161:
   775  0005BE  EFFC  F002         	goto	l236
   776  0005C2                     u4160:
   777  0005C2  A480               	btfss	128,2,c	;volatile
   778  0005C4  EFE6  F002         	goto	u4171
   779  0005C8  EFE8  F002         	goto	u4170
   780  0005CC                     u4171:
   781  0005CC  EFFC  F002         	goto	l236
   782  0005D0                     u4170:
   783  0005D0                     
   784                           ;hachiko_0.c: 173:                     moverMotor('e','f',60);
   785  0005D0  0E66               	movlw	102
   786  0005D2  6E08               	movwf	moverMotor@sentido^0,c
   787  0005D4  0E00               	movlw	0
   788  0005D6  6E0A               	movwf	(moverMotor@velocidade+1)^0,c
   789  0005D8  0E3C               	movlw	60
   790  0005DA  6E09               	movwf	moverMotor@velocidade^0,c
   791  0005DC  0E65               	movlw	101
   792  0005DE  ECDF  F010         	call	_moverMotor
   793                           
   794                           ;hachiko_0.c: 174:                     moverMotor('d','f',60);
   795  0005E2  0E66               	movlw	102
   796  0005E4  6E08               	movwf	moverMotor@sentido^0,c
   797  0005E6  0E00               	movlw	0
   798  0005E8  6E0A               	movwf	(moverMotor@velocidade+1)^0,c
   799  0005EA  0E3C               	movlw	60
   800  0005EC  6E09               	movwf	moverMotor@velocidade^0,c
   801  0005EE  0E64               	movlw	100
   802  0005F0  ECDF  F010         	call	_moverMotor
   803                           
   804                           ;hachiko_0.c: 176:                 }
   805  0005F4  EF58  F004         	goto	l2550
   806  0005F8                     l236:
   807  0005F8  A280               	btfss	128,1,c	;volatile
   808  0005FA  EF01  F003         	goto	u4181
   809  0005FE  EF03  F003         	goto	u4180
   810  000602                     u4181:
   811  000602  EF33  F003         	goto	l238
   812  000606                     u4180:
   813  000606  A880               	btfss	128,4,c	;volatile
   814  000608  EF08  F003         	goto	u4191
   815  00060C  EF0A  F003         	goto	u4190
   816  000610                     u4191:
   817  000610  EF33  F003         	goto	l238
   818  000614                     u4190:
   819  000614  A082               	btfss	130,0,c	;volatile
   820  000616  EF0F  F003         	goto	u4201
   821  00061A  EF11  F003         	goto	u4200
   822  00061E                     u4201:
   823  00061E  EF33  F003         	goto	l238
   824  000622                     u4200:
   825  000622  B680               	btfsc	128,3,c	;volatile
   826  000624  EF16  F003         	goto	u4211
   827  000628  EF18  F003         	goto	u4210
   828  00062C                     u4211:
   829  00062C  EF33  F003         	goto	l238
   830  000630                     u4210:
   831  000630  A480               	btfss	128,2,c	;volatile
   832  000632  EF1D  F003         	goto	u4221
   833  000636  EF1F  F003         	goto	u4220
   834  00063A                     u4221:
   835  00063A  EF33  F003         	goto	l238
   836  00063E                     u4220:
   837  00063E                     
   838                           ;hachiko_0.c: 178:                     moverMotor('e','f',60);
   839  00063E  0E66               	movlw	102
   840  000640  6E08               	movwf	moverMotor@sentido^0,c
   841  000642  0E00               	movlw	0
   842  000644  6E0A               	movwf	(moverMotor@velocidade+1)^0,c
   843  000646  0E3C               	movlw	60
   844  000648  6E09               	movwf	moverMotor@velocidade^0,c
   845  00064A  0E65               	movlw	101
   846  00064C  ECDF  F010         	call	_moverMotor
   847                           
   848                           ;hachiko_0.c: 179:                     moverMotor('d','t',60);
   849  000650  0E74               	movlw	116
   850  000652  6E08               	movwf	moverMotor@sentido^0,c
   851  000654  0E00               	movlw	0
   852  000656  6E0A               	movwf	(moverMotor@velocidade+1)^0,c
   853  000658  0E3C               	movlw	60
   854  00065A  6E09               	movwf	moverMotor@velocidade^0,c
   855  00065C  0E64               	movlw	100
   856  00065E  ECDF  F010         	call	_moverMotor
   857                           
   858                           ;hachiko_0.c: 180:                 }
   859  000662  EF58  F004         	goto	l2550
   860  000666                     l238:
   861  000666  A280               	btfss	128,1,c	;volatile
   862  000668  EF38  F003         	goto	u4231
   863  00066C  EF3A  F003         	goto	u4230
   864  000670                     u4231:
   865  000670  EF6A  F003         	goto	l240
   866  000674                     u4230:
   867  000674  A880               	btfss	128,4,c	;volatile
   868  000676  EF3F  F003         	goto	u4241
   869  00067A  EF41  F003         	goto	u4240
   870  00067E                     u4241:
   871  00067E  EF6A  F003         	goto	l240
   872  000682                     u4240:
   873  000682  B082               	btfsc	130,0,c	;volatile
   874  000684  EF46  F003         	goto	u4251
   875  000688  EF48  F003         	goto	u4250
   876  00068C                     u4251:
   877  00068C  EF6A  F003         	goto	l240
   878  000690                     u4250:
   879  000690  B680               	btfsc	128,3,c	;volatile
   880  000692  EF4D  F003         	goto	u4261
   881  000696  EF4F  F003         	goto	u4260
   882  00069A                     u4261:
   883  00069A  EF6A  F003         	goto	l240
   884  00069E                     u4260:
   885  00069E  A480               	btfss	128,2,c	;volatile
   886  0006A0  EF54  F003         	goto	u4271
   887  0006A4  EF56  F003         	goto	u4270
   888  0006A8                     u4271:
   889  0006A8  EF6A  F003         	goto	l240
   890  0006AC                     u4270:
   891  0006AC                     
   892                           ;hachiko_0.c: 182:                     moverMotor('e','f',60);
   893  0006AC  0E66               	movlw	102
   894  0006AE  6E08               	movwf	moverMotor@sentido^0,c
   895  0006B0  0E00               	movlw	0
   896  0006B2  6E0A               	movwf	(moverMotor@velocidade+1)^0,c
   897  0006B4  0E3C               	movlw	60
   898  0006B6  6E09               	movwf	moverMotor@velocidade^0,c
   899  0006B8  0E65               	movlw	101
   900  0006BA  ECDF  F010         	call	_moverMotor
   901                           
   902                           ;hachiko_0.c: 183:                     moverMotor('d','t',60);
   903  0006BE  0E74               	movlw	116
   904  0006C0  6E08               	movwf	moverMotor@sentido^0,c
   905  0006C2  0E00               	movlw	0
   906  0006C4  6E0A               	movwf	(moverMotor@velocidade+1)^0,c
   907  0006C6  0E3C               	movlw	60
   908  0006C8  6E09               	movwf	moverMotor@velocidade^0,c
   909  0006CA  0E64               	movlw	100
   910  0006CC  ECDF  F010         	call	_moverMotor
   911                           
   912                           ;hachiko_0.c: 184:                 }
   913  0006D0  EF58  F004         	goto	l2550
   914  0006D4                     l240:
   915  0006D4  A280               	btfss	128,1,c	;volatile
   916  0006D6  EF6F  F003         	goto	u4281
   917  0006DA  EF71  F003         	goto	u4280
   918  0006DE                     u4281:
   919  0006DE  EFA1  F003         	goto	l242
   920  0006E2                     u4280:
   921  0006E2  B880               	btfsc	128,4,c	;volatile
   922  0006E4  EF76  F003         	goto	u4291
   923  0006E8  EF78  F003         	goto	u4290
   924  0006EC                     u4291:
   925  0006EC  EFA1  F003         	goto	l242
   926  0006F0                     u4290:
   927  0006F0  A082               	btfss	130,0,c	;volatile
   928  0006F2  EF7D  F003         	goto	u4301
   929  0006F6  EF7F  F003         	goto	u4300
   930  0006FA                     u4301:
   931  0006FA  EFA1  F003         	goto	l242
   932  0006FE                     u4300:
   933  0006FE  A680               	btfss	128,3,c	;volatile
   934  000700  EF84  F003         	goto	u4311
   935  000704  EF86  F003         	goto	u4310
   936  000708                     u4311:
   937  000708  EFA1  F003         	goto	l242
   938  00070C                     u4310:
   939  00070C  A480               	btfss	128,2,c	;volatile
   940  00070E  EF8B  F003         	goto	u4321
   941  000712  EF8D  F003         	goto	u4320
   942  000716                     u4321:
   943  000716  EFA1  F003         	goto	l242
   944  00071A                     u4320:
   945  00071A                     
   946                           ;hachiko_0.c: 186:                     moverMotor('e','t',60);
   947  00071A  0E74               	movlw	116
   948  00071C  6E08               	movwf	moverMotor@sentido^0,c
   949  00071E  0E00               	movlw	0
   950  000720  6E0A               	movwf	(moverMotor@velocidade+1)^0,c
   951  000722  0E3C               	movlw	60
   952  000724  6E09               	movwf	moverMotor@velocidade^0,c
   953  000726  0E65               	movlw	101
   954  000728  ECDF  F010         	call	_moverMotor
   955                           
   956                           ;hachiko_0.c: 187:                     moverMotor('d','f',60);
   957  00072C  0E66               	movlw	102
   958  00072E  6E08               	movwf	moverMotor@sentido^0,c
   959  000730  0E00               	movlw	0
   960  000732  6E0A               	movwf	(moverMotor@velocidade+1)^0,c
   961  000734  0E3C               	movlw	60
   962  000736  6E09               	movwf	moverMotor@velocidade^0,c
   963  000738  0E64               	movlw	100
   964  00073A  ECDF  F010         	call	_moverMotor
   965                           
   966                           ;hachiko_0.c: 188:                 }
   967  00073E  EF58  F004         	goto	l2550
   968  000742                     l242:
   969  000742  A280               	btfss	128,1,c	;volatile
   970  000744  EFA6  F003         	goto	u4331
   971  000748  EFA8  F003         	goto	u4330
   972  00074C                     u4331:
   973  00074C  EFD8  F003         	goto	l244
   974  000750                     u4330:
   975  000750  B880               	btfsc	128,4,c	;volatile
   976  000752  EFAD  F003         	goto	u4341
   977  000756  EFAF  F003         	goto	u4340
   978  00075A                     u4341:
   979  00075A  EFD8  F003         	goto	l244
   980  00075E                     u4340:
   981  00075E  B082               	btfsc	130,0,c	;volatile
   982  000760  EFB4  F003         	goto	u4351
   983  000764  EFB6  F003         	goto	u4350
   984  000768                     u4351:
   985  000768  EFD8  F003         	goto	l244
   986  00076C                     u4350:
   987  00076C  A680               	btfss	128,3,c	;volatile
   988  00076E  EFBB  F003         	goto	u4361
   989  000772  EFBD  F003         	goto	u4360
   990  000776                     u4361:
   991  000776  EFD8  F003         	goto	l244
   992  00077A                     u4360:
   993  00077A  A480               	btfss	128,2,c	;volatile
   994  00077C  EFC2  F003         	goto	u4371
   995  000780  EFC4  F003         	goto	u4370
   996  000784                     u4371:
   997  000784  EFD8  F003         	goto	l244
   998  000788                     u4370:
   999  000788                     
  1000                           ;hachiko_0.c: 190:                     moverMotor('e','t',60);
  1001  000788  0E74               	movlw	116
  1002  00078A  6E08               	movwf	moverMotor@sentido^0,c
  1003  00078C  0E00               	movlw	0
  1004  00078E  6E0A               	movwf	(moverMotor@velocidade+1)^0,c
  1005  000790  0E3C               	movlw	60
  1006  000792  6E09               	movwf	moverMotor@velocidade^0,c
  1007  000794  0E65               	movlw	101
  1008  000796  ECDF  F010         	call	_moverMotor
  1009                           
  1010                           ;hachiko_0.c: 191:                     moverMotor('d','f',60);
  1011  00079A  0E66               	movlw	102
  1012  00079C  6E08               	movwf	moverMotor@sentido^0,c
  1013  00079E  0E00               	movlw	0
  1014  0007A0  6E0A               	movwf	(moverMotor@velocidade+1)^0,c
  1015  0007A2  0E3C               	movlw	60
  1016  0007A4  6E09               	movwf	moverMotor@velocidade^0,c
  1017  0007A6  0E64               	movlw	100
  1018  0007A8  ECDF  F010         	call	_moverMotor
  1019                           
  1020                           ;hachiko_0.c: 192:                 }
  1021  0007AC  EF58  F004         	goto	l2550
  1022  0007B0                     l244:
  1023  0007B0  A280               	btfss	128,1,c	;volatile
  1024  0007B2  EFDD  F003         	goto	u4381
  1025  0007B6  EFDF  F003         	goto	u4380
  1026  0007BA                     u4381:
  1027  0007BA  EF0F  F004         	goto	l246
  1028  0007BE                     u4380:
  1029  0007BE  A880               	btfss	128,4,c	;volatile
  1030  0007C0  EFE4  F003         	goto	u4391
  1031  0007C4  EFE6  F003         	goto	u4390
  1032  0007C8                     u4391:
  1033  0007C8  EF0F  F004         	goto	l246
  1034  0007CC                     u4390:
  1035  0007CC  A082               	btfss	130,0,c	;volatile
  1036  0007CE  EFEB  F003         	goto	u4401
  1037  0007D2  EFED  F003         	goto	u4400
  1038  0007D6                     u4401:
  1039  0007D6  EF0F  F004         	goto	l246
  1040  0007DA                     u4400:
  1041  0007DA  A680               	btfss	128,3,c	;volatile
  1042  0007DC  EFF2  F003         	goto	u4411
  1043  0007E0  EFF4  F003         	goto	u4410
  1044  0007E4                     u4411:
  1045  0007E4  EF0F  F004         	goto	l246
  1046  0007E8                     u4410:
  1047  0007E8  B480               	btfsc	128,2,c	;volatile
  1048  0007EA  EFF9  F003         	goto	u4421
  1049  0007EE  EFFB  F003         	goto	u4420
  1050  0007F2                     u4421:
  1051  0007F2  EF0F  F004         	goto	l246
  1052  0007F6                     u4420:
  1053  0007F6                     
  1054                           ;hachiko_0.c: 194:                     moverMotor('e','f',60);
  1055  0007F6  0E66               	movlw	102
  1056  0007F8  6E08               	movwf	moverMotor@sentido^0,c
  1057  0007FA  0E00               	movlw	0
  1058  0007FC  6E0A               	movwf	(moverMotor@velocidade+1)^0,c
  1059  0007FE  0E3C               	movlw	60
  1060  000800  6E09               	movwf	moverMotor@velocidade^0,c
  1061  000802  0E65               	movlw	101
  1062  000804  ECDF  F010         	call	_moverMotor
  1063                           
  1064                           ;hachiko_0.c: 195:                     moverMotor('d','t',60);
  1065  000808  0E74               	movlw	116
  1066  00080A  6E08               	movwf	moverMotor@sentido^0,c
  1067  00080C  0E00               	movlw	0
  1068  00080E  6E0A               	movwf	(moverMotor@velocidade+1)^0,c
  1069  000810  0E3C               	movlw	60
  1070  000812  6E09               	movwf	moverMotor@velocidade^0,c
  1071  000814  0E64               	movlw	100
  1072  000816  ECDF  F010         	call	_moverMotor
  1073                           
  1074                           ;hachiko_0.c: 196:                 }
  1075  00081A  EF58  F004         	goto	l2550
  1076  00081E                     l246:
  1077  00081E  A280               	btfss	128,1,c	;volatile
  1078  000820  EF14  F004         	goto	u4431
  1079  000824  EF16  F004         	goto	u4430
  1080  000828                     u4431:
  1081  000828  EF46  F004         	goto	l2548
  1082  00082C                     u4430:
  1083  00082C  B880               	btfsc	128,4,c	;volatile
  1084  00082E  EF1B  F004         	goto	u4441
  1085  000832  EF1D  F004         	goto	u4440
  1086  000836                     u4441:
  1087  000836  EF46  F004         	goto	l2548
  1088  00083A                     u4440:
  1089  00083A  B082               	btfsc	130,0,c	;volatile
  1090  00083C  EF22  F004         	goto	u4451
  1091  000840  EF24  F004         	goto	u4450
  1092  000844                     u4451:
  1093  000844  EF46  F004         	goto	l2548
  1094  000848                     u4450:
  1095  000848  B680               	btfsc	128,3,c	;volatile
  1096  00084A  EF29  F004         	goto	u4461
  1097  00084E  EF2B  F004         	goto	u4460
  1098  000852                     u4461:
  1099  000852  EF46  F004         	goto	l2548
  1100  000856                     u4460:
  1101  000856  A480               	btfss	128,2,c	;volatile
  1102  000858  EF30  F004         	goto	u4471
  1103  00085C  EF32  F004         	goto	u4470
  1104  000860                     u4471:
  1105  000860  EF46  F004         	goto	l2548
  1106  000864                     u4470:
  1107  000864                     
  1108                           ;hachiko_0.c: 198:                     moverMotor('d','f',60);
  1109  000864  0E66               	movlw	102
  1110  000866  6E08               	movwf	moverMotor@sentido^0,c
  1111  000868  0E00               	movlw	0
  1112  00086A  6E0A               	movwf	(moverMotor@velocidade+1)^0,c
  1113  00086C  0E3C               	movlw	60
  1114  00086E  6E09               	movwf	moverMotor@velocidade^0,c
  1115  000870  0E64               	movlw	100
  1116  000872  ECDF  F010         	call	_moverMotor
  1117                           
  1118                           ;hachiko_0.c: 199:                     moverMotor('e','f',60);
  1119  000876  0E66               	movlw	102
  1120  000878  6E08               	movwf	moverMotor@sentido^0,c
  1121  00087A  0E00               	movlw	0
  1122  00087C  6E0A               	movwf	(moverMotor@velocidade+1)^0,c
  1123  00087E  0E3C               	movlw	60
  1124  000880  6E09               	movwf	moverMotor@velocidade^0,c
  1125  000882  0E65               	movlw	101
  1126  000884  ECDF  F010         	call	_moverMotor
  1127                           
  1128                           ;hachiko_0.c: 200:                 }
  1129  000888  EF58  F004         	goto	l2550
  1130  00088C                     l2548:
  1131                           
  1132                           ;hachiko_0.c: 202:                     moverMotor('d','f',60);
  1133  00088C  0E66               	movlw	102
  1134  00088E  6E08               	movwf	moverMotor@sentido^0,c
  1135  000890  0E00               	movlw	0
  1136  000892  6E0A               	movwf	(moverMotor@velocidade+1)^0,c
  1137  000894  0E3C               	movlw	60
  1138  000896  6E09               	movwf	moverMotor@velocidade^0,c
  1139  000898  0E64               	movlw	100
  1140  00089A  ECDF  F010         	call	_moverMotor
  1141                           
  1142                           ;hachiko_0.c: 203:                     moverMotor('e','f',90);
  1143  00089E  0E66               	movlw	102
  1144  0008A0  6E08               	movwf	moverMotor@sentido^0,c
  1145  0008A2  0E00               	movlw	0
  1146  0008A4  6E0A               	movwf	(moverMotor@velocidade+1)^0,c
  1147  0008A6  0E5A               	movlw	90
  1148  0008A8  6E09               	movwf	moverMotor@velocidade^0,c
  1149  0008AA  0E65               	movlw	101
  1150  0008AC  ECDF  F010         	call	_moverMotor
  1151  0008B0                     l2550:
  1152                           
  1153                           ;hachiko_0.c: 206:                 if(TMR0IF){
  1154  0008B0  A4F2               	btfss	4082,2,c	;volatile
  1155  0008B2  EF5D  F004         	goto	u4481
  1156  0008B6  EF5F  F004         	goto	u4480
  1157  0008BA                     u4481:
  1158  0008BA  EF65  F004         	goto	l2558
  1159  0008BE                     u4480:
  1160  0008BE                     
  1161                           ;hachiko_0.c: 207:                     TMR0IF = 0;
  1162  0008BE  94F2               	bcf	4082,2,c	;volatile
  1163  0008C0                     
  1164                           ;hachiko_0.c: 208:                     TMR0L = 0x78;
  1165  0008C0  0E78               	movlw	120
  1166  0008C2  6ED6               	movwf	214,c	;volatile
  1167                           
  1168                           ;hachiko_0.c: 209:                     TMR0H = 0xF8;
  1169  0008C4  0EF8               	movlw	248
  1170  0008C6  6ED7               	movwf	215,c	;volatile
  1171  0008C8                     
  1172                           ;hachiko_0.c: 210:                     cont_tmr++;
  1173  0008C8  2A12               	incf	main@cont_tmr^0,f,c
  1174  0008CA                     l2558:
  1175                           
  1176                           ;hachiko_0.c: 213:                 if(acao == "parar"){
  1177  0008CA  0E47               	movlw	low STR_15
  1178  0008CC  181C               	xorwf	_acao^0,w,c
  1179  0008CE  E107               	bnz	u4491
  1180  0008D0  0E03               	movlw	high STR_15
  1181  0008D2  181D               	xorwf	(_acao+1)^0,w,c
  1182  0008D4  A4D8               	btfss	status,2,c
  1183  0008D6  EF6F  F004         	goto	u4491
  1184  0008DA  EF71  F004         	goto	u4490
  1185  0008DE                     u4491:
  1186  0008DE  EF75  F004         	goto	l2562
  1187  0008E2                     u4490:
  1188  0008E2                     
  1189                           ;hachiko_0.c: 214:                     pararMotor();
  1190  0008E2  ECAA  F011         	call	_pararMotor	;wreg free
  1191                           
  1192                           ;hachiko_0.c: 215:                     break;
  1193  0008E6  EF7D  F004         	goto	l252
  1194  0008EA                     l2562:
  1195                           
  1196                           ;hachiko_0.c: 158:             while(cont_tmr < 0x64){
  1197  0008EA  0E63               	movlw	99
  1198  0008EC  6412               	cpfsgt	main@cont_tmr^0,c
  1199  0008EE  EF7B  F004         	goto	u4501
  1200  0008F2  EF7D  F004         	goto	u4500
  1201  0008F6                     u4501:
  1202  0008F6  EF20  F002         	goto	l229
  1203  0008FA                     u4500:
  1204  0008FA                     l252:
  1205                           
  1206                           ;hachiko_0.c: 218:             TMR0ON = 0;
  1207  0008FA  9ED5               	bcf	4053,7,c	;volatile
  1208  0008FC                     l2564:
  1209                           
  1210                           ;hachiko_0.c: 221:         if(acao == "toquinho"){
  1211  0008FC  0E14               	movlw	low STR_3
  1212  0008FE  181C               	xorwf	_acao^0,w,c
  1213  000900  E107               	bnz	u4511
  1214  000902  0E03               	movlw	high STR_3
  1215  000904  181D               	xorwf	(_acao+1)^0,w,c
  1216  000906  A4D8               	btfss	status,2,c
  1217  000908  EF88  F004         	goto	u4511
  1218  00090C  EF8A  F004         	goto	u4510
  1219  000910                     u4511:
  1220  000910  EFE9  F006         	goto	l2688
  1221  000914                     u4510:
  1222  000914                     
  1223                           ;hachiko_0.c: 225:             TMR1ON = 1;
  1224  000914  80CD               	bsf	4045,0,c	;volatile
  1225  000916                     
  1226                           ;hachiko_0.c: 226:             TMR1L = 0xDE;
  1227  000916  0EDE               	movlw	222
  1228  000918  6ECE               	movwf	206,c	;volatile
  1229                           
  1230                           ;hachiko_0.c: 227:             TMR1H = 0x0B;
  1231  00091A  0E0B               	movlw	11
  1232  00091C  6ECF               	movwf	207,c	;volatile
  1233                           
  1234                           ;hachiko_0.c: 228:             char aux = 0x00;
  1235  00091E  0E00               	movlw	0
  1236  000920  6E16               	movwf	main@aux^0,c
  1237                           
  1238                           ;hachiko_0.c: 229:             int cont = 0;
  1239  000922  0E00               	movlw	0
  1240  000924  6E15               	movwf	(main@cont+1)^0,c
  1241  000926  0E00               	movlw	0
  1242  000928  6E14               	movwf	main@cont^0,c
  1243                           
  1244                           ;hachiko_0.c: 230:             while(aux < 0x0A){
  1245  00092A  EFE0  F006         	goto	l2686
  1246  00092E                     l255:
  1247                           
  1248                           ;hachiko_0.c: 231:                 if(TMR1IF){
  1249  00092E  A09E               	btfss	3998,0,c	;volatile
  1250  000930  EF9C  F004         	goto	u4521
  1251  000934  EF9E  F004         	goto	u4520
  1252  000938                     u4521:
  1253  000938  EFA5  F004         	goto	l2576
  1254  00093C                     u4520:
  1255  00093C                     
  1256                           ;hachiko_0.c: 232:                     TMR1IF = 0;
  1257  00093C  909E               	bcf	3998,0,c	;volatile
  1258  00093E                     
  1259                           ;hachiko_0.c: 233:                     TMR1L = 0xDE;
  1260  00093E  0EDE               	movlw	222
  1261  000940  6ECE               	movwf	206,c	;volatile
  1262                           
  1263                           ;hachiko_0.c: 234:                     TMR1H = 0x0B;
  1264  000942  0E0B               	movlw	11
  1265  000944  6ECF               	movwf	207,c	;volatile
  1266  000946                     
  1267                           ;hachiko_0.c: 235:                     cont++;
  1268  000946  4A14               	infsnz	main@cont^0,f,c
  1269  000948  2A15               	incf	(main@cont+1)^0,f,c
  1270  00094A                     l2576:
  1271                           
  1272                           ;hachiko_0.c: 237:                 if(cont < 10){
  1273  00094A  BE15               	btfsc	(main@cont+1)^0,7,c
  1274  00094C  EFB3  F004         	goto	u4530
  1275  000950  5015               	movf	(main@cont+1)^0,w,c
  1276  000952  E107               	bnz	u4531
  1277  000954  0E0A               	movlw	10
  1278  000956  5C14               	subwf	main@cont^0,w,c
  1279  000958  B0D8               	btfsc	status,0,c
  1280  00095A  EFB1  F004         	goto	u4531
  1281  00095E  EFB3  F004         	goto	u4530
  1282  000962                     u4531:
  1283  000962  EFC7  F006         	goto	l2676
  1284  000966                     u4530:
  1285  000966                     
  1286                           ;hachiko_0.c: 238:                     if(!PORTAbits.RA1 && PORTAbits.RA4 && PORTCbits.R
      +                          C0 && PORTAbits.RA3 && PORTAbits.RA2){
  1287  000966  B280               	btfsc	128,1,c	;volatile
  1288  000968  EFB8  F004         	goto	u4541
  1289  00096C  EFBA  F004         	goto	u4540
  1290  000970                     u4541:
  1291  000970  EFEA  F004         	goto	l258
  1292  000974                     u4540:
  1293  000974  A880               	btfss	128,4,c	;volatile
  1294  000976  EFBF  F004         	goto	u4551
  1295  00097A  EFC1  F004         	goto	u4550
  1296  00097E                     u4551:
  1297  00097E  EFEA  F004         	goto	l258
  1298  000982                     u4550:
  1299  000982  A082               	btfss	130,0,c	;volatile
  1300  000984  EFC6  F004         	goto	u4561
  1301  000988  EFC8  F004         	goto	u4560
  1302  00098C                     u4561:
  1303  00098C  EFEA  F004         	goto	l258
  1304  000990                     u4560:
  1305  000990  A680               	btfss	128,3,c	;volatile
  1306  000992  EFCD  F004         	goto	u4571
  1307  000996  EFCF  F004         	goto	u4570
  1308  00099A                     u4571:
  1309  00099A  EFEA  F004         	goto	l258
  1310  00099E                     u4570:
  1311  00099E  A480               	btfss	128,2,c	;volatile
  1312  0009A0  EFD4  F004         	goto	u4581
  1313  0009A4  EFD6  F004         	goto	u4580
  1314  0009A8                     u4581:
  1315  0009A8  EFEA  F004         	goto	l258
  1316  0009AC                     u4580:
  1317  0009AC                     
  1318                           ;hachiko_0.c: 239:                         moverMotor('e','t',60);
  1319  0009AC  0E74               	movlw	116
  1320  0009AE  6E08               	movwf	moverMotor@sentido^0,c
  1321  0009B0  0E00               	movlw	0
  1322  0009B2  6E0A               	movwf	(moverMotor@velocidade+1)^0,c
  1323  0009B4  0E3C               	movlw	60
  1324  0009B6  6E09               	movwf	moverMotor@velocidade^0,c
  1325  0009B8  0E65               	movlw	101
  1326  0009BA  ECDF  F010         	call	_moverMotor
  1327                           
  1328                           ;hachiko_0.c: 240:                         moverMotor('d','f',60);
  1329  0009BE  0E66               	movlw	102
  1330  0009C0  6E08               	movwf	moverMotor@sentido^0,c
  1331  0009C2  0E00               	movlw	0
  1332  0009C4  6E0A               	movwf	(moverMotor@velocidade+1)^0,c
  1333  0009C6  0E3C               	movlw	60
  1334  0009C8  6E09               	movwf	moverMotor@velocidade^0,c
  1335  0009CA  0E64               	movlw	100
  1336  0009CC  ECDF  F010         	call	_moverMotor
  1337                           
  1338                           ;hachiko_0.c: 241:                     }
  1339  0009D0  EFD0  F006         	goto	l2682
  1340  0009D4                     l258:
  1341  0009D4  A280               	btfss	128,1,c	;volatile
  1342  0009D6  EFEF  F004         	goto	u4591
  1343  0009DA  EFF1  F004         	goto	u4590
  1344  0009DE                     u4591:
  1345  0009DE  EF21  F005         	goto	l260
  1346  0009E2                     u4590:
  1347  0009E2  A880               	btfss	128,4,c	;volatile
  1348  0009E4  EFF6  F004         	goto	u4601
  1349  0009E8  EFF8  F004         	goto	u4600
  1350  0009EC                     u4601:
  1351  0009EC  EF21  F005         	goto	l260
  1352  0009F0                     u4600:
  1353  0009F0  B082               	btfsc	130,0,c	;volatile
  1354  0009F2  EFFD  F004         	goto	u4611
  1355  0009F6  EFFF  F004         	goto	u4610
  1356  0009FA                     u4611:
  1357  0009FA  EF21  F005         	goto	l260
  1358  0009FE                     u4610:
  1359  0009FE  A680               	btfss	128,3,c	;volatile
  1360  000A00  EF04  F005         	goto	u4621
  1361  000A04  EF06  F005         	goto	u4620
  1362  000A08                     u4621:
  1363  000A08  EF21  F005         	goto	l260
  1364  000A0C                     u4620:
  1365  000A0C  A480               	btfss	128,2,c	;volatile
  1366  000A0E  EF0B  F005         	goto	u4631
  1367  000A12  EF0D  F005         	goto	u4630
  1368  000A16                     u4631:
  1369  000A16  EF21  F005         	goto	l260
  1370  000A1A                     u4630:
  1371  000A1A                     
  1372                           ;hachiko_0.c: 243:                         moverMotor('e','f',60);
  1373  000A1A  0E66               	movlw	102
  1374  000A1C  6E08               	movwf	moverMotor@sentido^0,c
  1375  000A1E  0E00               	movlw	0
  1376  000A20  6E0A               	movwf	(moverMotor@velocidade+1)^0,c
  1377  000A22  0E3C               	movlw	60
  1378  000A24  6E09               	movwf	moverMotor@velocidade^0,c
  1379  000A26  0E65               	movlw	101
  1380  000A28  ECDF  F010         	call	_moverMotor
  1381                           
  1382                           ;hachiko_0.c: 244:                         moverMotor('d','f',60);
  1383  000A2C  0E66               	movlw	102
  1384  000A2E  6E08               	movwf	moverMotor@sentido^0,c
  1385  000A30  0E00               	movlw	0
  1386  000A32  6E0A               	movwf	(moverMotor@velocidade+1)^0,c
  1387  000A34  0E3C               	movlw	60
  1388  000A36  6E09               	movwf	moverMotor@velocidade^0,c
  1389  000A38  0E64               	movlw	100
  1390  000A3A  ECDF  F010         	call	_moverMotor
  1391                           
  1392                           ;hachiko_0.c: 246:                     }
  1393  000A3E  EFD0  F006         	goto	l2682
  1394  000A42                     l260:
  1395  000A42  A280               	btfss	128,1,c	;volatile
  1396  000A44  EF26  F005         	goto	u4641
  1397  000A48  EF28  F005         	goto	u4640
  1398  000A4C                     u4641:
  1399  000A4C  EF58  F005         	goto	l262
  1400  000A50                     u4640:
  1401  000A50  B880               	btfsc	128,4,c	;volatile
  1402  000A52  EF2D  F005         	goto	u4651
  1403  000A56  EF2F  F005         	goto	u4650
  1404  000A5A                     u4651:
  1405  000A5A  EF58  F005         	goto	l262
  1406  000A5E                     u4650:
  1407  000A5E  A082               	btfss	130,0,c	;volatile
  1408  000A60  EF34  F005         	goto	u4661
  1409  000A64  EF36  F005         	goto	u4660
  1410  000A68                     u4661:
  1411  000A68  EF58  F005         	goto	l262
  1412  000A6C                     u4660:
  1413  000A6C  B680               	btfsc	128,3,c	;volatile
  1414  000A6E  EF3B  F005         	goto	u4671
  1415  000A72  EF3D  F005         	goto	u4670
  1416  000A76                     u4671:
  1417  000A76  EF58  F005         	goto	l262
  1418  000A7A                     u4670:
  1419  000A7A  A480               	btfss	128,2,c	;volatile
  1420  000A7C  EF42  F005         	goto	u4681
  1421  000A80  EF44  F005         	goto	u4680
  1422  000A84                     u4681:
  1423  000A84  EF58  F005         	goto	l262
  1424  000A88                     u4680:
  1425  000A88                     
  1426                           ;hachiko_0.c: 248:                         moverMotor('e','f',60);
  1427  000A88  0E66               	movlw	102
  1428  000A8A  6E08               	movwf	moverMotor@sentido^0,c
  1429  000A8C  0E00               	movlw	0
  1430  000A8E  6E0A               	movwf	(moverMotor@velocidade+1)^0,c
  1431  000A90  0E3C               	movlw	60
  1432  000A92  6E09               	movwf	moverMotor@velocidade^0,c
  1433  000A94  0E65               	movlw	101
  1434  000A96  ECDF  F010         	call	_moverMotor
  1435                           
  1436                           ;hachiko_0.c: 249:                         moverMotor('d','f',60);
  1437  000A9A  0E66               	movlw	102
  1438  000A9C  6E08               	movwf	moverMotor@sentido^0,c
  1439  000A9E  0E00               	movlw	0
  1440  000AA0  6E0A               	movwf	(moverMotor@velocidade+1)^0,c
  1441  000AA2  0E3C               	movlw	60
  1442  000AA4  6E09               	movwf	moverMotor@velocidade^0,c
  1443  000AA6  0E64               	movlw	100
  1444  000AA8  ECDF  F010         	call	_moverMotor
  1445                           
  1446                           ;hachiko_0.c: 251:                     }
  1447  000AAC  EFD0  F006         	goto	l2682
  1448  000AB0                     l262:
  1449  000AB0  A280               	btfss	128,1,c	;volatile
  1450  000AB2  EF5D  F005         	goto	u4691
  1451  000AB6  EF5F  F005         	goto	u4690
  1452  000ABA                     u4691:
  1453  000ABA  EF8F  F005         	goto	l264
  1454  000ABE                     u4690:
  1455  000ABE  A880               	btfss	128,4,c	;volatile
  1456  000AC0  EF64  F005         	goto	u4701
  1457  000AC4  EF66  F005         	goto	u4700
  1458  000AC8                     u4701:
  1459  000AC8  EF8F  F005         	goto	l264
  1460  000ACC                     u4700:
  1461  000ACC  A082               	btfss	130,0,c	;volatile
  1462  000ACE  EF6B  F005         	goto	u4711
  1463  000AD2  EF6D  F005         	goto	u4710
  1464  000AD6                     u4711:
  1465  000AD6  EF8F  F005         	goto	l264
  1466  000ADA                     u4710:
  1467  000ADA  B680               	btfsc	128,3,c	;volatile
  1468  000ADC  EF72  F005         	goto	u4721
  1469  000AE0  EF74  F005         	goto	u4720
  1470  000AE4                     u4721:
  1471  000AE4  EF8F  F005         	goto	l264
  1472  000AE8                     u4720:
  1473  000AE8  A480               	btfss	128,2,c	;volatile
  1474  000AEA  EF79  F005         	goto	u4731
  1475  000AEE  EF7B  F005         	goto	u4730
  1476  000AF2                     u4731:
  1477  000AF2  EF8F  F005         	goto	l264
  1478  000AF6                     u4730:
  1479  000AF6                     
  1480                           ;hachiko_0.c: 253:                         moverMotor('e','f',60);
  1481  000AF6  0E66               	movlw	102
  1482  000AF8  6E08               	movwf	moverMotor@sentido^0,c
  1483  000AFA  0E00               	movlw	0
  1484  000AFC  6E0A               	movwf	(moverMotor@velocidade+1)^0,c
  1485  000AFE  0E3C               	movlw	60
  1486  000B00  6E09               	movwf	moverMotor@velocidade^0,c
  1487  000B02  0E65               	movlw	101
  1488  000B04  ECDF  F010         	call	_moverMotor
  1489                           
  1490                           ;hachiko_0.c: 254:                         moverMotor('d','t',60);
  1491  000B08  0E74               	movlw	116
  1492  000B0A  6E08               	movwf	moverMotor@sentido^0,c
  1493  000B0C  0E00               	movlw	0
  1494  000B0E  6E0A               	movwf	(moverMotor@velocidade+1)^0,c
  1495  000B10  0E3C               	movlw	60
  1496  000B12  6E09               	movwf	moverMotor@velocidade^0,c
  1497  000B14  0E64               	movlw	100
  1498  000B16  ECDF  F010         	call	_moverMotor
  1499                           
  1500                           ;hachiko_0.c: 255:                     }
  1501  000B1A  EFD0  F006         	goto	l2682
  1502  000B1E                     l264:
  1503  000B1E  A280               	btfss	128,1,c	;volatile
  1504  000B20  EF94  F005         	goto	u4741
  1505  000B24  EF96  F005         	goto	u4740
  1506  000B28                     u4741:
  1507  000B28  EFC6  F005         	goto	l266
  1508  000B2C                     u4740:
  1509  000B2C  A880               	btfss	128,4,c	;volatile
  1510  000B2E  EF9B  F005         	goto	u4751
  1511  000B32  EF9D  F005         	goto	u4750
  1512  000B36                     u4751:
  1513  000B36  EFC6  F005         	goto	l266
  1514  000B3A                     u4750:
  1515  000B3A  B082               	btfsc	130,0,c	;volatile
  1516  000B3C  EFA2  F005         	goto	u4761
  1517  000B40  EFA4  F005         	goto	u4760
  1518  000B44                     u4761:
  1519  000B44  EFC6  F005         	goto	l266
  1520  000B48                     u4760:
  1521  000B48  B680               	btfsc	128,3,c	;volatile
  1522  000B4A  EFA9  F005         	goto	u4771
  1523  000B4E  EFAB  F005         	goto	u4770
  1524  000B52                     u4771:
  1525  000B52  EFC6  F005         	goto	l266
  1526  000B56                     u4770:
  1527  000B56  A480               	btfss	128,2,c	;volatile
  1528  000B58  EFB0  F005         	goto	u4781
  1529  000B5C  EFB2  F005         	goto	u4780
  1530  000B60                     u4781:
  1531  000B60  EFC6  F005         	goto	l266
  1532  000B64                     u4780:
  1533  000B64                     
  1534                           ;hachiko_0.c: 257:                         moverMotor('e','f',60);
  1535  000B64  0E66               	movlw	102
  1536  000B66  6E08               	movwf	moverMotor@sentido^0,c
  1537  000B68  0E00               	movlw	0
  1538  000B6A  6E0A               	movwf	(moverMotor@velocidade+1)^0,c
  1539  000B6C  0E3C               	movlw	60
  1540  000B6E  6E09               	movwf	moverMotor@velocidade^0,c
  1541  000B70  0E65               	movlw	101
  1542  000B72  ECDF  F010         	call	_moverMotor
  1543                           
  1544                           ;hachiko_0.c: 258:                         moverMotor('d','t',60);
  1545  000B76  0E74               	movlw	116
  1546  000B78  6E08               	movwf	moverMotor@sentido^0,c
  1547  000B7A  0E00               	movlw	0
  1548  000B7C  6E0A               	movwf	(moverMotor@velocidade+1)^0,c
  1549  000B7E  0E3C               	movlw	60
  1550  000B80  6E09               	movwf	moverMotor@velocidade^0,c
  1551  000B82  0E64               	movlw	100
  1552  000B84  ECDF  F010         	call	_moverMotor
  1553                           
  1554                           ;hachiko_0.c: 259:                     }
  1555  000B88  EFD0  F006         	goto	l2682
  1556  000B8C                     l266:
  1557  000B8C  A280               	btfss	128,1,c	;volatile
  1558  000B8E  EFCB  F005         	goto	u4791
  1559  000B92  EFCD  F005         	goto	u4790
  1560  000B96                     u4791:
  1561  000B96  EFFD  F005         	goto	l268
  1562  000B9A                     u4790:
  1563  000B9A  B880               	btfsc	128,4,c	;volatile
  1564  000B9C  EFD2  F005         	goto	u4801
  1565  000BA0  EFD4  F005         	goto	u4800
  1566  000BA4                     u4801:
  1567  000BA4  EFFD  F005         	goto	l268
  1568  000BA8                     u4800:
  1569  000BA8  A082               	btfss	130,0,c	;volatile
  1570  000BAA  EFD9  F005         	goto	u4811
  1571  000BAE  EFDB  F005         	goto	u4810
  1572  000BB2                     u4811:
  1573  000BB2  EFFD  F005         	goto	l268
  1574  000BB6                     u4810:
  1575  000BB6  A680               	btfss	128,3,c	;volatile
  1576  000BB8  EFE0  F005         	goto	u4821
  1577  000BBC  EFE2  F005         	goto	u4820
  1578  000BC0                     u4821:
  1579  000BC0  EFFD  F005         	goto	l268
  1580  000BC4                     u4820:
  1581  000BC4  A480               	btfss	128,2,c	;volatile
  1582  000BC6  EFE7  F005         	goto	u4831
  1583  000BCA  EFE9  F005         	goto	u4830
  1584  000BCE                     u4831:
  1585  000BCE  EFFD  F005         	goto	l268
  1586  000BD2                     u4830:
  1587  000BD2                     
  1588                           ;hachiko_0.c: 261:                         moverMotor('e','t',60);
  1589  000BD2  0E74               	movlw	116
  1590  000BD4  6E08               	movwf	moverMotor@sentido^0,c
  1591  000BD6  0E00               	movlw	0
  1592  000BD8  6E0A               	movwf	(moverMotor@velocidade+1)^0,c
  1593  000BDA  0E3C               	movlw	60
  1594  000BDC  6E09               	movwf	moverMotor@velocidade^0,c
  1595  000BDE  0E65               	movlw	101
  1596  000BE0  ECDF  F010         	call	_moverMotor
  1597                           
  1598                           ;hachiko_0.c: 262:                         moverMotor('d','f',60);
  1599  000BE4  0E66               	movlw	102
  1600  000BE6  6E08               	movwf	moverMotor@sentido^0,c
  1601  000BE8  0E00               	movlw	0
  1602  000BEA  6E0A               	movwf	(moverMotor@velocidade+1)^0,c
  1603  000BEC  0E3C               	movlw	60
  1604  000BEE  6E09               	movwf	moverMotor@velocidade^0,c
  1605  000BF0  0E64               	movlw	100
  1606  000BF2  ECDF  F010         	call	_moverMotor
  1607                           
  1608                           ;hachiko_0.c: 263:                     }
  1609  000BF6  EFD0  F006         	goto	l2682
  1610  000BFA                     l268:
  1611  000BFA  A280               	btfss	128,1,c	;volatile
  1612  000BFC  EF02  F006         	goto	u4841
  1613  000C00  EF04  F006         	goto	u4840
  1614  000C04                     u4841:
  1615  000C04  EF34  F006         	goto	l270
  1616  000C08                     u4840:
  1617  000C08  B880               	btfsc	128,4,c	;volatile
  1618  000C0A  EF09  F006         	goto	u4851
  1619  000C0E  EF0B  F006         	goto	u4850
  1620  000C12                     u4851:
  1621  000C12  EF34  F006         	goto	l270
  1622  000C16                     u4850:
  1623  000C16  B082               	btfsc	130,0,c	;volatile
  1624  000C18  EF10  F006         	goto	u4861
  1625  000C1C  EF12  F006         	goto	u4860
  1626  000C20                     u4861:
  1627  000C20  EF34  F006         	goto	l270
  1628  000C24                     u4860:
  1629  000C24  A680               	btfss	128,3,c	;volatile
  1630  000C26  EF17  F006         	goto	u4871
  1631  000C2A  EF19  F006         	goto	u4870
  1632  000C2E                     u4871:
  1633  000C2E  EF34  F006         	goto	l270
  1634  000C32                     u4870:
  1635  000C32  A480               	btfss	128,2,c	;volatile
  1636  000C34  EF1E  F006         	goto	u4881
  1637  000C38  EF20  F006         	goto	u4880
  1638  000C3C                     u4881:
  1639  000C3C  EF34  F006         	goto	l270
  1640  000C40                     u4880:
  1641  000C40                     
  1642                           ;hachiko_0.c: 265:                         moverMotor('e','t',60);
  1643  000C40  0E74               	movlw	116
  1644  000C42  6E08               	movwf	moverMotor@sentido^0,c
  1645  000C44  0E00               	movlw	0
  1646  000C46  6E0A               	movwf	(moverMotor@velocidade+1)^0,c
  1647  000C48  0E3C               	movlw	60
  1648  000C4A  6E09               	movwf	moverMotor@velocidade^0,c
  1649  000C4C  0E65               	movlw	101
  1650  000C4E  ECDF  F010         	call	_moverMotor
  1651                           
  1652                           ;hachiko_0.c: 266:                         moverMotor('d','f',60);
  1653  000C52  0E66               	movlw	102
  1654  000C54  6E08               	movwf	moverMotor@sentido^0,c
  1655  000C56  0E00               	movlw	0
  1656  000C58  6E0A               	movwf	(moverMotor@velocidade+1)^0,c
  1657  000C5A  0E3C               	movlw	60
  1658  000C5C  6E09               	movwf	moverMotor@velocidade^0,c
  1659  000C5E  0E64               	movlw	100
  1660  000C60  ECDF  F010         	call	_moverMotor
  1661                           
  1662                           ;hachiko_0.c: 267:                     }
  1663  000C64  EFD0  F006         	goto	l2682
  1664  000C68                     l270:
  1665  000C68  A280               	btfss	128,1,c	;volatile
  1666  000C6A  EF39  F006         	goto	u4891
  1667  000C6E  EF3B  F006         	goto	u4890
  1668  000C72                     u4891:
  1669  000C72  EF6B  F006         	goto	l272
  1670  000C76                     u4890:
  1671  000C76  A880               	btfss	128,4,c	;volatile
  1672  000C78  EF40  F006         	goto	u4901
  1673  000C7C  EF42  F006         	goto	u4900
  1674  000C80                     u4901:
  1675  000C80  EF6B  F006         	goto	l272
  1676  000C84                     u4900:
  1677  000C84  A082               	btfss	130,0,c	;volatile
  1678  000C86  EF47  F006         	goto	u4911
  1679  000C8A  EF49  F006         	goto	u4910
  1680  000C8E                     u4911:
  1681  000C8E  EF6B  F006         	goto	l272
  1682  000C92                     u4910:
  1683  000C92  A680               	btfss	128,3,c	;volatile
  1684  000C94  EF4E  F006         	goto	u4921
  1685  000C98  EF50  F006         	goto	u4920
  1686  000C9C                     u4921:
  1687  000C9C  EF6B  F006         	goto	l272
  1688  000CA0                     u4920:
  1689  000CA0  B480               	btfsc	128,2,c	;volatile
  1690  000CA2  EF55  F006         	goto	u4931
  1691  000CA6  EF57  F006         	goto	u4930
  1692  000CAA                     u4931:
  1693  000CAA  EF6B  F006         	goto	l272
  1694  000CAE                     u4930:
  1695  000CAE                     
  1696                           ;hachiko_0.c: 269:                         moverMotor('e','f',60);
  1697  000CAE  0E66               	movlw	102
  1698  000CB0  6E08               	movwf	moverMotor@sentido^0,c
  1699  000CB2  0E00               	movlw	0
  1700  000CB4  6E0A               	movwf	(moverMotor@velocidade+1)^0,c
  1701  000CB6  0E3C               	movlw	60
  1702  000CB8  6E09               	movwf	moverMotor@velocidade^0,c
  1703  000CBA  0E65               	movlw	101
  1704  000CBC  ECDF  F010         	call	_moverMotor
  1705                           
  1706                           ;hachiko_0.c: 270:                         moverMotor('d','t',60);
  1707  000CC0  0E74               	movlw	116
  1708  000CC2  6E08               	movwf	moverMotor@sentido^0,c
  1709  000CC4  0E00               	movlw	0
  1710  000CC6  6E0A               	movwf	(moverMotor@velocidade+1)^0,c
  1711  000CC8  0E3C               	movlw	60
  1712  000CCA  6E09               	movwf	moverMotor@velocidade^0,c
  1713  000CCC  0E64               	movlw	100
  1714  000CCE  ECDF  F010         	call	_moverMotor
  1715                           
  1716                           ;hachiko_0.c: 271:                     }
  1717  000CD2  EFD0  F006         	goto	l2682
  1718  000CD6                     l272:
  1719  000CD6  A280               	btfss	128,1,c	;volatile
  1720  000CD8  EF70  F006         	goto	u4941
  1721  000CDC  EF72  F006         	goto	u4940
  1722  000CE0                     u4941:
  1723  000CE0  EFA2  F006         	goto	l2670
  1724  000CE4                     u4940:
  1725  000CE4  B880               	btfsc	128,4,c	;volatile
  1726  000CE6  EF77  F006         	goto	u4951
  1727  000CEA  EF79  F006         	goto	u4950
  1728  000CEE                     u4951:
  1729  000CEE  EFA2  F006         	goto	l2670
  1730  000CF2                     u4950:
  1731  000CF2  B082               	btfsc	130,0,c	;volatile
  1732  000CF4  EF7E  F006         	goto	u4961
  1733  000CF8  EF80  F006         	goto	u4960
  1734  000CFC                     u4961:
  1735  000CFC  EFA2  F006         	goto	l2670
  1736  000D00                     u4960:
  1737  000D00  B680               	btfsc	128,3,c	;volatile
  1738  000D02  EF85  F006         	goto	u4971
  1739  000D06  EF87  F006         	goto	u4970
  1740  000D0A                     u4971:
  1741  000D0A  EFA2  F006         	goto	l2670
  1742  000D0E                     u4970:
  1743  000D0E  A480               	btfss	128,2,c	;volatile
  1744  000D10  EF8C  F006         	goto	u4981
  1745  000D14  EF8E  F006         	goto	u4980
  1746  000D18                     u4981:
  1747  000D18  EFA2  F006         	goto	l2670
  1748  000D1C                     u4980:
  1749  000D1C                     
  1750                           ;hachiko_0.c: 273:                         moverMotor('d','f',60);
  1751  000D1C  0E66               	movlw	102
  1752  000D1E  6E08               	movwf	moverMotor@sentido^0,c
  1753  000D20  0E00               	movlw	0
  1754  000D22  6E0A               	movwf	(moverMotor@velocidade+1)^0,c
  1755  000D24  0E3C               	movlw	60
  1756  000D26  6E09               	movwf	moverMotor@velocidade^0,c
  1757  000D28  0E64               	movlw	100
  1758  000D2A  ECDF  F010         	call	_moverMotor
  1759                           
  1760                           ;hachiko_0.c: 274:                         moverMotor('e','f',60);
  1761  000D2E  0E66               	movlw	102
  1762  000D30  6E08               	movwf	moverMotor@sentido^0,c
  1763  000D32  0E00               	movlw	0
  1764  000D34  6E0A               	movwf	(moverMotor@velocidade+1)^0,c
  1765  000D36  0E3C               	movlw	60
  1766  000D38  6E09               	movwf	moverMotor@velocidade^0,c
  1767  000D3A  0E65               	movlw	101
  1768  000D3C  ECDF  F010         	call	_moverMotor
  1769                           
  1770                           ;hachiko_0.c: 275:                     }
  1771  000D40  EFD0  F006         	goto	l2682
  1772  000D44                     l2670:
  1773                           
  1774                           ;hachiko_0.c: 277:                         if(cont < 1){
  1775  000D44  BE15               	btfsc	(main@cont+1)^0,7,c
  1776  000D46  EFAF  F006         	goto	u4990
  1777  000D4A  5015               	movf	(main@cont+1)^0,w,c
  1778  000D4C  E106               	bnz	u4991
  1779  000D4E  0414               	decf	main@cont^0,w,c
  1780  000D50  B0D8               	btfsc	status,0,c
  1781  000D52  EFAD  F006         	goto	u4991
  1782  000D56  EFAF  F006         	goto	u4990
  1783  000D5A                     u4991:
  1784  000D5A  EFC3  F006         	goto	l2674
  1785  000D5E                     u4990:
  1786  000D5E                     
  1787                           ;hachiko_0.c: 278:                             moverMotor('d','f',60);
  1788  000D5E  0E66               	movlw	102
  1789  000D60  6E08               	movwf	moverMotor@sentido^0,c
  1790  000D62  0E00               	movlw	0
  1791  000D64  6E0A               	movwf	(moverMotor@velocidade+1)^0,c
  1792  000D66  0E3C               	movlw	60
  1793  000D68  6E09               	movwf	moverMotor@velocidade^0,c
  1794  000D6A  0E64               	movlw	100
  1795  000D6C  ECDF  F010         	call	_moverMotor
  1796                           
  1797                           ;hachiko_0.c: 279:                             moverMotor('e','f',60);
  1798  000D70  0E66               	movlw	102
  1799  000D72  6E08               	movwf	moverMotor@sentido^0,c
  1800  000D74  0E00               	movlw	0
  1801  000D76  6E0A               	movwf	(moverMotor@velocidade+1)^0,c
  1802  000D78  0E3C               	movlw	60
  1803  000D7A  6E09               	movwf	moverMotor@velocidade^0,c
  1804  000D7C  0E65               	movlw	101
  1805  000D7E  ECDF  F010         	call	_moverMotor
  1806                           
  1807                           ;hachiko_0.c: 280:                         }
  1808  000D82  EFD0  F006         	goto	l2682
  1809  000D86                     l2674:
  1810                           
  1811                           ;hachiko_0.c: 282:                             pararMotor();
  1812  000D86  ECAA  F011         	call	_pararMotor	;wreg free
  1813  000D8A  EFD0  F006         	goto	l2682
  1814  000D8E                     l2676:
  1815                           
  1816                           ;hachiko_0.c: 287:                     cont = 0;
  1817  000D8E  0E00               	movlw	0
  1818  000D90  6E15               	movwf	(main@cont+1)^0,c
  1819  000D92  0E00               	movlw	0
  1820  000D94  6E14               	movwf	main@cont^0,c
  1821  000D96                     
  1822                           ;hachiko_0.c: 288:                     aux++;
  1823  000D96  2A16               	incf	main@aux^0,f,c
  1824  000D98                     
  1825                           ;hachiko_0.c: 289:                     picUSART(aux + 48);
  1826  000D98  5016               	movf	main@aux^0,w,c
  1827  000D9A  0F30               	addlw	48
  1828  000D9C  ECF2  F011         	call	_picUSART
  1829  000DA0                     l2682:
  1830                           
  1831                           ;hachiko_0.c: 292:                 if(acao == "parar"){
  1832  000DA0  0E47               	movlw	low STR_15
  1833  000DA2  181C               	xorwf	_acao^0,w,c
  1834  000DA4  E107               	bnz	u5001
  1835  000DA6  0E03               	movlw	high STR_15
  1836  000DA8  181D               	xorwf	(_acao+1)^0,w,c
  1837  000DAA  A4D8               	btfss	status,2,c
  1838  000DAC  EFDA  F006         	goto	u5001
  1839  000DB0  EFDC  F006         	goto	u5000
  1840  000DB4                     u5001:
  1841  000DB4  EFE0  F006         	goto	l2686
  1842  000DB8                     u5000:
  1843  000DB8                     
  1844                           ;hachiko_0.c: 293:                     pararMotor();
  1845  000DB8  ECAA  F011         	call	_pararMotor	;wreg free
  1846                           
  1847                           ;hachiko_0.c: 294:                     break;
  1848  000DBC  EFE8  F006         	goto	l280
  1849  000DC0                     l2686:
  1850                           
  1851                           ;hachiko_0.c: 230:             while(aux < 0x0A){
  1852  000DC0  0E09               	movlw	9
  1853  000DC2  6416               	cpfsgt	main@aux^0,c
  1854  000DC4  EFE6  F006         	goto	u5011
  1855  000DC8  EFE8  F006         	goto	u5010
  1856  000DCC                     u5011:
  1857  000DCC  EF97  F004         	goto	l255
  1858  000DD0                     u5010:
  1859  000DD0                     l280:
  1860                           
  1861                           ;hachiko_0.c: 297:             TMR1ON = 0;
  1862  000DD0  90CD               	bcf	4045,0,c	;volatile
  1863  000DD2                     l2688:
  1864                           
  1865                           ;hachiko_0.c: 300:         if(acao == "estrela"){
  1866  000DD2  0E1D               	movlw	low STR_5
  1867  000DD4  181C               	xorwf	_acao^0,w,c
  1868  000DD6  E107               	bnz	u5021
  1869  000DD8  0E03               	movlw	high STR_5
  1870  000DDA  181D               	xorwf	(_acao+1)^0,w,c
  1871  000DDC  A4D8               	btfss	status,2,c
  1872  000DDE  EFF3  F006         	goto	u5021
  1873  000DE2  EFF5  F006         	goto	u5020
  1874  000DE6                     u5021:
  1875  000DE6  EF05  F007         	goto	l2696
  1876  000DEA                     u5020:
  1877  000DEA                     l2690:
  1878                           
  1879                           ;hachiko_0.c: 302:                 estrela();
  1880  000DEA  EC3C  F010         	call	_estrela	;wreg free
  1881  000DEE                     
  1882                           ;hachiko_0.c: 304:                 if(acao == "parar"){
  1883  000DEE  0E47               	movlw	low STR_15
  1884  000DF0  181C               	xorwf	_acao^0,w,c
  1885  000DF2  E107               	bnz	u5031
  1886  000DF4  0E03               	movlw	high STR_15
  1887  000DF6  181D               	xorwf	(_acao+1)^0,w,c
  1888  000DF8  A4D8               	btfss	status,2,c
  1889  000DFA  EF01  F007         	goto	u5031
  1890  000DFE  EF03  F007         	goto	u5030
  1891  000E02                     u5031:
  1892  000E02  EFF5  F006         	goto	l2690
  1893  000E06                     u5030:
  1894  000E06                     
  1895                           ;hachiko_0.c: 305:                     pararMotor();
  1896  000E06  ECAA  F011         	call	_pararMotor	;wreg free
  1897  000E0A                     l2696:
  1898                           
  1899                           ;hachiko_0.c: 311:         if(acao == "zigzag"){
  1900  000E0A  0E34               	movlw	low STR_6
  1901  000E0C  181C               	xorwf	_acao^0,w,c
  1902  000E0E  E107               	bnz	u5041
  1903  000E10  0E03               	movlw	high STR_6
  1904  000E12  181D               	xorwf	(_acao+1)^0,w,c
  1905  000E14  A4D8               	btfss	status,2,c
  1906  000E16  EF0F  F007         	goto	u5041
  1907  000E1A  EF11  F007         	goto	u5040
  1908  000E1E                     u5041:
  1909  000E1E  EF68  F00B         	goto	l286
  1910  000E22                     u5040:
  1911  000E22                     
  1912                           ;hachiko_0.c: 323:             char cont_zig = 0x00;
  1913  000E22  0E00               	movlw	0
  1914  000E24  6E13               	movwf	main@cont_zig^0,c
  1915                           
  1916                           ;hachiko_0.c: 324:             char cont_tmr = 0x00;
  1917  000E26  0E00               	movlw	0
  1918  000E28  6E17               	movwf	main@cont_tmr_702^0,c
  1919  000E2A                     
  1920                           ;hachiko_0.c: 325:             moverMotor('d','f',60);
  1921  000E2A  0E66               	movlw	102
  1922  000E2C  6E08               	movwf	moverMotor@sentido^0,c
  1923  000E2E  0E00               	movlw	0
  1924  000E30  6E0A               	movwf	(moverMotor@velocidade+1)^0,c
  1925  000E32  0E3C               	movlw	60
  1926  000E34  6E09               	movwf	moverMotor@velocidade^0,c
  1927  000E36  0E64               	movlw	100
  1928  000E38  ECDF  F010         	call	_moverMotor
  1929  000E3C                     
  1930                           ;hachiko_0.c: 326:             moverMotor('e','t',60);
  1931  000E3C  0E74               	movlw	116
  1932  000E3E  6E08               	movwf	moverMotor@sentido^0,c
  1933  000E40  0E00               	movlw	0
  1934  000E42  6E0A               	movwf	(moverMotor@velocidade+1)^0,c
  1935  000E44  0E3C               	movlw	60
  1936  000E46  6E09               	movwf	moverMotor@velocidade^0,c
  1937  000E48  0E65               	movlw	101
  1938  000E4A  ECDF  F010         	call	_moverMotor
  1939  000E4E                     
  1940                           ;hachiko_0.c: 327:             _delay((unsigned long)((70)*(20000000/4000.0)));
  1941  000E4E  0E02               	movlw	2
  1942  000E50  6E11               	movwf	(??_main+1)^0,c
  1943  000E52  0EC7               	movlw	199
  1944  000E54  6E10               	movwf	??_main^0,c
  1945  000E56  0E88               	movlw	136
  1946  000E58                     u6167:
  1947  000E58  2EE8               	decfsz	wreg,f,c
  1948  000E5A  D7FE               	bra	u6167
  1949  000E5C  2E10               	decfsz	??_main^0,f,c
  1950  000E5E  D7FC               	bra	u6167
  1951  000E60  2E11               	decfsz	(??_main+1)^0,f,c
  1952  000E62  D7FA               	bra	u6167
  1953  000E64  F000 F000          	nop2	
  1954  000E68                     
  1955                           ;hachiko_0.c: 331:             TMR1ON = 1;
  1956  000E68  80CD               	bsf	4045,0,c	;volatile
  1957  000E6A                     
  1958                           ;hachiko_0.c: 332:             TMR1L = 0xDE;
  1959  000E6A  0EDE               	movlw	222
  1960  000E6C  6ECE               	movwf	206,c	;volatile
  1961  000E6E                     
  1962                           ;hachiko_0.c: 333:             TMR1H = 0x0B;
  1963  000E6E  0E0B               	movlw	11
  1964  000E70  6ECF               	movwf	207,c	;volatile
  1965                           
  1966                           ;hachiko_0.c: 334:             while(cont_zig < 0x0C){
  1967  000E72  EF5B  F00B         	goto	l2922
  1968  000E76                     l290:
  1969                           
  1970                           ;hachiko_0.c: 336:                     if(TMR1IF){
  1971  000E76  A09E               	btfss	3998,0,c	;volatile
  1972  000E78  EF40  F007         	goto	u5051
  1973  000E7C  EF42  F007         	goto	u5050
  1974  000E80                     u5051:
  1975  000E80  EF48  F007         	goto	l2718
  1976  000E84                     u5050:
  1977  000E84                     
  1978                           ;hachiko_0.c: 340:                         TMR1IF = 0;
  1979  000E84  909E               	bcf	3998,0,c	;volatile
  1980  000E86                     
  1981                           ;hachiko_0.c: 341:                         TMR1L = 0xDE;
  1982  000E86  0EDE               	movlw	222
  1983  000E88  6ECE               	movwf	206,c	;volatile
  1984                           
  1985                           ;hachiko_0.c: 342:                         TMR1H = 0x0B;
  1986  000E8A  0E0B               	movlw	11
  1987  000E8C  6ECF               	movwf	207,c	;volatile
  1988  000E8E                     
  1989                           ;hachiko_0.c: 343:                         cont_tmr++;
  1990  000E8E  2A17               	incf	main@cont_tmr_702^0,f,c
  1991  000E90                     l2718:
  1992                           
  1993                           ;hachiko_0.c: 345:                     if(!PORTAbits.RA1 && PORTAbits.RA4 && PORTCbits.R
      +                          C0 && PORTAbits.RA3 && PORTAbits.RA2){
  1994  000E90  B280               	btfsc	128,1,c	;volatile
  1995  000E92  EF4D  F007         	goto	u5061
  1996  000E96  EF4F  F007         	goto	u5060
  1997  000E9A                     u5061:
  1998  000E9A  EF7F  F007         	goto	l292
  1999  000E9E                     u5060:
  2000  000E9E  A880               	btfss	128,4,c	;volatile
  2001  000EA0  EF54  F007         	goto	u5071
  2002  000EA4  EF56  F007         	goto	u5070
  2003  000EA8                     u5071:
  2004  000EA8  EF7F  F007         	goto	l292
  2005  000EAC                     u5070:
  2006  000EAC  A082               	btfss	130,0,c	;volatile
  2007  000EAE  EF5B  F007         	goto	u5081
  2008  000EB2  EF5D  F007         	goto	u5080
  2009  000EB6                     u5081:
  2010  000EB6  EF7F  F007         	goto	l292
  2011  000EBA                     u5080:
  2012  000EBA  A680               	btfss	128,3,c	;volatile
  2013  000EBC  EF62  F007         	goto	u5091
  2014  000EC0  EF64  F007         	goto	u5090
  2015  000EC4                     u5091:
  2016  000EC4  EF7F  F007         	goto	l292
  2017  000EC8                     u5090:
  2018  000EC8  A480               	btfss	128,2,c	;volatile
  2019  000ECA  EF69  F007         	goto	u5101
  2020  000ECE  EF6B  F007         	goto	u5100
  2021  000ED2                     u5101:
  2022  000ED2  EF7F  F007         	goto	l292
  2023  000ED6                     u5100:
  2024  000ED6                     
  2025                           ;hachiko_0.c: 346:                         moverMotor('e','t',60);
  2026  000ED6  0E74               	movlw	116
  2027  000ED8  6E08               	movwf	moverMotor@sentido^0,c
  2028  000EDA  0E00               	movlw	0
  2029  000EDC  6E0A               	movwf	(moverMotor@velocidade+1)^0,c
  2030  000EDE  0E3C               	movlw	60
  2031  000EE0  6E09               	movwf	moverMotor@velocidade^0,c
  2032  000EE2  0E65               	movlw	101
  2033  000EE4  ECDF  F010         	call	_moverMotor
  2034                           
  2035                           ;hachiko_0.c: 347:                         moverMotor('d','f',60);
  2036  000EE8  0E66               	movlw	102
  2037  000EEA  6E08               	movwf	moverMotor@sentido^0,c
  2038  000EEC  0E00               	movlw	0
  2039  000EEE  6E0A               	movwf	(moverMotor@velocidade+1)^0,c
  2040  000EF0  0E3C               	movlw	60
  2041  000EF2  6E09               	movwf	moverMotor@velocidade^0,c
  2042  000EF4  0E64               	movlw	100
  2043  000EF6  ECDF  F010         	call	_moverMotor
  2044                           
  2045                           ;hachiko_0.c: 348:                     }
  2046  000EFA  EF49  F009         	goto	l2812
  2047  000EFE                     l292:
  2048  000EFE  A280               	btfss	128,1,c	;volatile
  2049  000F00  EF84  F007         	goto	u5111
  2050  000F04  EF86  F007         	goto	u5110
  2051  000F08                     u5111:
  2052  000F08  EFB6  F007         	goto	l294
  2053  000F0C                     u5110:
  2054  000F0C  A880               	btfss	128,4,c	;volatile
  2055  000F0E  EF8B  F007         	goto	u5121
  2056  000F12  EF8D  F007         	goto	u5120
  2057  000F16                     u5121:
  2058  000F16  EFB6  F007         	goto	l294
  2059  000F1A                     u5120:
  2060  000F1A  B082               	btfsc	130,0,c	;volatile
  2061  000F1C  EF92  F007         	goto	u5131
  2062  000F20  EF94  F007         	goto	u5130
  2063  000F24                     u5131:
  2064  000F24  EFB6  F007         	goto	l294
  2065  000F28                     u5130:
  2066  000F28  A680               	btfss	128,3,c	;volatile
  2067  000F2A  EF99  F007         	goto	u5141
  2068  000F2E  EF9B  F007         	goto	u5140
  2069  000F32                     u5141:
  2070  000F32  EFB6  F007         	goto	l294
  2071  000F36                     u5140:
  2072  000F36  A480               	btfss	128,2,c	;volatile
  2073  000F38  EFA0  F007         	goto	u5151
  2074  000F3C  EFA2  F007         	goto	u5150
  2075  000F40                     u5151:
  2076  000F40  EFB6  F007         	goto	l294
  2077  000F44                     u5150:
  2078  000F44                     
  2079                           ;hachiko_0.c: 350:                         moverMotor('e','f',60);
  2080  000F44  0E66               	movlw	102
  2081  000F46  6E08               	movwf	moverMotor@sentido^0,c
  2082  000F48  0E00               	movlw	0
  2083  000F4A  6E0A               	movwf	(moverMotor@velocidade+1)^0,c
  2084  000F4C  0E3C               	movlw	60
  2085  000F4E  6E09               	movwf	moverMotor@velocidade^0,c
  2086  000F50  0E65               	movlw	101
  2087  000F52  ECDF  F010         	call	_moverMotor
  2088                           
  2089                           ;hachiko_0.c: 351:                         moverMotor('d','f',60);
  2090  000F56  0E66               	movlw	102
  2091  000F58  6E08               	movwf	moverMotor@sentido^0,c
  2092  000F5A  0E00               	movlw	0
  2093  000F5C  6E0A               	movwf	(moverMotor@velocidade+1)^0,c
  2094  000F5E  0E3C               	movlw	60
  2095  000F60  6E09               	movwf	moverMotor@velocidade^0,c
  2096  000F62  0E64               	movlw	100
  2097  000F64  ECDF  F010         	call	_moverMotor
  2098                           
  2099                           ;hachiko_0.c: 353:                     }
  2100  000F68  EF49  F009         	goto	l2812
  2101  000F6C                     l294:
  2102  000F6C  A280               	btfss	128,1,c	;volatile
  2103  000F6E  EFBB  F007         	goto	u5161
  2104  000F72  EFBD  F007         	goto	u5160
  2105  000F76                     u5161:
  2106  000F76  EFED  F007         	goto	l296
  2107  000F7A                     u5160:
  2108  000F7A  B880               	btfsc	128,4,c	;volatile
  2109  000F7C  EFC2  F007         	goto	u5171
  2110  000F80  EFC4  F007         	goto	u5170
  2111  000F84                     u5171:
  2112  000F84  EFED  F007         	goto	l296
  2113  000F88                     u5170:
  2114  000F88  A082               	btfss	130,0,c	;volatile
  2115  000F8A  EFC9  F007         	goto	u5181
  2116  000F8E  EFCB  F007         	goto	u5180
  2117  000F92                     u5181:
  2118  000F92  EFED  F007         	goto	l296
  2119  000F96                     u5180:
  2120  000F96  B680               	btfsc	128,3,c	;volatile
  2121  000F98  EFD0  F007         	goto	u5191
  2122  000F9C  EFD2  F007         	goto	u5190
  2123  000FA0                     u5191:
  2124  000FA0  EFED  F007         	goto	l296
  2125  000FA4                     u5190:
  2126  000FA4  A480               	btfss	128,2,c	;volatile
  2127  000FA6  EFD7  F007         	goto	u5201
  2128  000FAA  EFD9  F007         	goto	u5200
  2129  000FAE                     u5201:
  2130  000FAE  EFED  F007         	goto	l296
  2131  000FB2                     u5200:
  2132  000FB2                     
  2133                           ;hachiko_0.c: 355:                         moverMotor('e','f',60);
  2134  000FB2  0E66               	movlw	102
  2135  000FB4  6E08               	movwf	moverMotor@sentido^0,c
  2136  000FB6  0E00               	movlw	0
  2137  000FB8  6E0A               	movwf	(moverMotor@velocidade+1)^0,c
  2138  000FBA  0E3C               	movlw	60
  2139  000FBC  6E09               	movwf	moverMotor@velocidade^0,c
  2140  000FBE  0E65               	movlw	101
  2141  000FC0  ECDF  F010         	call	_moverMotor
  2142                           
  2143                           ;hachiko_0.c: 356:                         moverMotor('d','f',60);
  2144  000FC4  0E66               	movlw	102
  2145  000FC6  6E08               	movwf	moverMotor@sentido^0,c
  2146  000FC8  0E00               	movlw	0
  2147  000FCA  6E0A               	movwf	(moverMotor@velocidade+1)^0,c
  2148  000FCC  0E3C               	movlw	60
  2149  000FCE  6E09               	movwf	moverMotor@velocidade^0,c
  2150  000FD0  0E64               	movlw	100
  2151  000FD2  ECDF  F010         	call	_moverMotor
  2152                           
  2153                           ;hachiko_0.c: 358:                     }
  2154  000FD6  EF49  F009         	goto	l2812
  2155  000FDA                     l296:
  2156  000FDA  A280               	btfss	128,1,c	;volatile
  2157  000FDC  EFF2  F007         	goto	u5211
  2158  000FE0  EFF4  F007         	goto	u5210
  2159  000FE4                     u5211:
  2160  000FE4  EF24  F008         	goto	l298
  2161  000FE8                     u5210:
  2162  000FE8  A880               	btfss	128,4,c	;volatile
  2163  000FEA  EFF9  F007         	goto	u5221
  2164  000FEE  EFFB  F007         	goto	u5220
  2165  000FF2                     u5221:
  2166  000FF2  EF24  F008         	goto	l298
  2167  000FF6                     u5220:
  2168  000FF6  A082               	btfss	130,0,c	;volatile
  2169  000FF8  EF00  F008         	goto	u5231
  2170  000FFC  EF02  F008         	goto	u5230
  2171  001000                     u5231:
  2172  001000  EF24  F008         	goto	l298
  2173  001004                     u5230:
  2174  001004  B680               	btfsc	128,3,c	;volatile
  2175  001006  EF07  F008         	goto	u5241
  2176  00100A  EF09  F008         	goto	u5240
  2177  00100E                     u5241:
  2178  00100E  EF24  F008         	goto	l298
  2179  001012                     u5240:
  2180  001012  A480               	btfss	128,2,c	;volatile
  2181  001014  EF0E  F008         	goto	u5251
  2182  001018  EF10  F008         	goto	u5250
  2183  00101C                     u5251:
  2184  00101C  EF24  F008         	goto	l298
  2185  001020                     u5250:
  2186  001020                     
  2187                           ;hachiko_0.c: 360:                         moverMotor('e','f',60);
  2188  001020  0E66               	movlw	102
  2189  001022  6E08               	movwf	moverMotor@sentido^0,c
  2190  001024  0E00               	movlw	0
  2191  001026  6E0A               	movwf	(moverMotor@velocidade+1)^0,c
  2192  001028  0E3C               	movlw	60
  2193  00102A  6E09               	movwf	moverMotor@velocidade^0,c
  2194  00102C  0E65               	movlw	101
  2195  00102E  ECDF  F010         	call	_moverMotor
  2196                           
  2197                           ;hachiko_0.c: 361:                         moverMotor('d','t',60);
  2198  001032  0E74               	movlw	116
  2199  001034  6E08               	movwf	moverMotor@sentido^0,c
  2200  001036  0E00               	movlw	0
  2201  001038  6E0A               	movwf	(moverMotor@velocidade+1)^0,c
  2202  00103A  0E3C               	movlw	60
  2203  00103C  6E09               	movwf	moverMotor@velocidade^0,c
  2204  00103E  0E64               	movlw	100
  2205  001040  ECDF  F010         	call	_moverMotor
  2206                           
  2207                           ;hachiko_0.c: 362:                     }
  2208  001044  EF49  F009         	goto	l2812
  2209  001048                     l298:
  2210  001048  A280               	btfss	128,1,c	;volatile
  2211  00104A  EF29  F008         	goto	u5261
  2212  00104E  EF2B  F008         	goto	u5260
  2213  001052                     u5261:
  2214  001052  EF5B  F008         	goto	l300
  2215  001056                     u5260:
  2216  001056  A880               	btfss	128,4,c	;volatile
  2217  001058  EF30  F008         	goto	u5271
  2218  00105C  EF32  F008         	goto	u5270
  2219  001060                     u5271:
  2220  001060  EF5B  F008         	goto	l300
  2221  001064                     u5270:
  2222  001064  B082               	btfsc	130,0,c	;volatile
  2223  001066  EF37  F008         	goto	u5281
  2224  00106A  EF39  F008         	goto	u5280
  2225  00106E                     u5281:
  2226  00106E  EF5B  F008         	goto	l300
  2227  001072                     u5280:
  2228  001072  B680               	btfsc	128,3,c	;volatile
  2229  001074  EF3E  F008         	goto	u5291
  2230  001078  EF40  F008         	goto	u5290
  2231  00107C                     u5291:
  2232  00107C  EF5B  F008         	goto	l300
  2233  001080                     u5290:
  2234  001080  A480               	btfss	128,2,c	;volatile
  2235  001082  EF45  F008         	goto	u5301
  2236  001086  EF47  F008         	goto	u5300
  2237  00108A                     u5301:
  2238  00108A  EF5B  F008         	goto	l300
  2239  00108E                     u5300:
  2240  00108E                     
  2241                           ;hachiko_0.c: 364:                         moverMotor('e','f',60);
  2242  00108E  0E66               	movlw	102
  2243  001090  6E08               	movwf	moverMotor@sentido^0,c
  2244  001092  0E00               	movlw	0
  2245  001094  6E0A               	movwf	(moverMotor@velocidade+1)^0,c
  2246  001096  0E3C               	movlw	60
  2247  001098  6E09               	movwf	moverMotor@velocidade^0,c
  2248  00109A  0E65               	movlw	101
  2249  00109C  ECDF  F010         	call	_moverMotor
  2250                           
  2251                           ;hachiko_0.c: 365:                         moverMotor('d','t',60);
  2252  0010A0  0E74               	movlw	116
  2253  0010A2  6E08               	movwf	moverMotor@sentido^0,c
  2254  0010A4  0E00               	movlw	0
  2255  0010A6  6E0A               	movwf	(moverMotor@velocidade+1)^0,c
  2256  0010A8  0E3C               	movlw	60
  2257  0010AA  6E09               	movwf	moverMotor@velocidade^0,c
  2258  0010AC  0E64               	movlw	100
  2259  0010AE  ECDF  F010         	call	_moverMotor
  2260                           
  2261                           ;hachiko_0.c: 366:                     }
  2262  0010B2  EF49  F009         	goto	l2812
  2263  0010B6                     l300:
  2264  0010B6  A280               	btfss	128,1,c	;volatile
  2265  0010B8  EF60  F008         	goto	u5311
  2266  0010BC  EF62  F008         	goto	u5310
  2267  0010C0                     u5311:
  2268  0010C0  EF92  F008         	goto	l302
  2269  0010C4                     u5310:
  2270  0010C4  B880               	btfsc	128,4,c	;volatile
  2271  0010C6  EF67  F008         	goto	u5321
  2272  0010CA  EF69  F008         	goto	u5320
  2273  0010CE                     u5321:
  2274  0010CE  EF92  F008         	goto	l302
  2275  0010D2                     u5320:
  2276  0010D2  A082               	btfss	130,0,c	;volatile
  2277  0010D4  EF6E  F008         	goto	u5331
  2278  0010D8  EF70  F008         	goto	u5330
  2279  0010DC                     u5331:
  2280  0010DC  EF92  F008         	goto	l302
  2281  0010E0                     u5330:
  2282  0010E0  A680               	btfss	128,3,c	;volatile
  2283  0010E2  EF75  F008         	goto	u5341
  2284  0010E6  EF77  F008         	goto	u5340
  2285  0010EA                     u5341:
  2286  0010EA  EF92  F008         	goto	l302
  2287  0010EE                     u5340:
  2288  0010EE  A480               	btfss	128,2,c	;volatile
  2289  0010F0  EF7C  F008         	goto	u5351
  2290  0010F4  EF7E  F008         	goto	u5350
  2291  0010F8                     u5351:
  2292  0010F8  EF92  F008         	goto	l302
  2293  0010FC                     u5350:
  2294  0010FC                     
  2295                           ;hachiko_0.c: 368:                         moverMotor('e','t',60);
  2296  0010FC  0E74               	movlw	116
  2297  0010FE  6E08               	movwf	moverMotor@sentido^0,c
  2298  001100  0E00               	movlw	0
  2299  001102  6E0A               	movwf	(moverMotor@velocidade+1)^0,c
  2300  001104  0E3C               	movlw	60
  2301  001106  6E09               	movwf	moverMotor@velocidade^0,c
  2302  001108  0E65               	movlw	101
  2303  00110A  ECDF  F010         	call	_moverMotor
  2304                           
  2305                           ;hachiko_0.c: 369:                         moverMotor('d','f',60);
  2306  00110E  0E66               	movlw	102
  2307  001110  6E08               	movwf	moverMotor@sentido^0,c
  2308  001112  0E00               	movlw	0
  2309  001114  6E0A               	movwf	(moverMotor@velocidade+1)^0,c
  2310  001116  0E3C               	movlw	60
  2311  001118  6E09               	movwf	moverMotor@velocidade^0,c
  2312  00111A  0E64               	movlw	100
  2313  00111C  ECDF  F010         	call	_moverMotor
  2314                           
  2315                           ;hachiko_0.c: 370:                     }
  2316  001120  EF49  F009         	goto	l2812
  2317  001124                     l302:
  2318  001124  A280               	btfss	128,1,c	;volatile
  2319  001126  EF97  F008         	goto	u5361
  2320  00112A  EF99  F008         	goto	u5360
  2321  00112E                     u5361:
  2322  00112E  EFC9  F008         	goto	l304
  2323  001132                     u5360:
  2324  001132  B880               	btfsc	128,4,c	;volatile
  2325  001134  EF9E  F008         	goto	u5371
  2326  001138  EFA0  F008         	goto	u5370
  2327  00113C                     u5371:
  2328  00113C  EFC9  F008         	goto	l304
  2329  001140                     u5370:
  2330  001140  B082               	btfsc	130,0,c	;volatile
  2331  001142  EFA5  F008         	goto	u5381
  2332  001146  EFA7  F008         	goto	u5380
  2333  00114A                     u5381:
  2334  00114A  EFC9  F008         	goto	l304
  2335  00114E                     u5380:
  2336  00114E  A680               	btfss	128,3,c	;volatile
  2337  001150  EFAC  F008         	goto	u5391
  2338  001154  EFAE  F008         	goto	u5390
  2339  001158                     u5391:
  2340  001158  EFC9  F008         	goto	l304
  2341  00115C                     u5390:
  2342  00115C  A480               	btfss	128,2,c	;volatile
  2343  00115E  EFB3  F008         	goto	u5401
  2344  001162  EFB5  F008         	goto	u5400
  2345  001166                     u5401:
  2346  001166  EFC9  F008         	goto	l304
  2347  00116A                     u5400:
  2348  00116A                     
  2349                           ;hachiko_0.c: 372:                         moverMotor('e','t',60);
  2350  00116A  0E74               	movlw	116
  2351  00116C  6E08               	movwf	moverMotor@sentido^0,c
  2352  00116E  0E00               	movlw	0
  2353  001170  6E0A               	movwf	(moverMotor@velocidade+1)^0,c
  2354  001172  0E3C               	movlw	60
  2355  001174  6E09               	movwf	moverMotor@velocidade^0,c
  2356  001176  0E65               	movlw	101
  2357  001178  ECDF  F010         	call	_moverMotor
  2358                           
  2359                           ;hachiko_0.c: 373:                         moverMotor('d','f',60);
  2360  00117C  0E66               	movlw	102
  2361  00117E  6E08               	movwf	moverMotor@sentido^0,c
  2362  001180  0E00               	movlw	0
  2363  001182  6E0A               	movwf	(moverMotor@velocidade+1)^0,c
  2364  001184  0E3C               	movlw	60
  2365  001186  6E09               	movwf	moverMotor@velocidade^0,c
  2366  001188  0E64               	movlw	100
  2367  00118A  ECDF  F010         	call	_moverMotor
  2368                           
  2369                           ;hachiko_0.c: 374:                     }
  2370  00118E  EF49  F009         	goto	l2812
  2371  001192                     l304:
  2372  001192  A280               	btfss	128,1,c	;volatile
  2373  001194  EFCE  F008         	goto	u5411
  2374  001198  EFD0  F008         	goto	u5410
  2375  00119C                     u5411:
  2376  00119C  EF00  F009         	goto	l306
  2377  0011A0                     u5410:
  2378  0011A0  A880               	btfss	128,4,c	;volatile
  2379  0011A2  EFD5  F008         	goto	u5421
  2380  0011A6  EFD7  F008         	goto	u5420
  2381  0011AA                     u5421:
  2382  0011AA  EF00  F009         	goto	l306
  2383  0011AE                     u5420:
  2384  0011AE  A082               	btfss	130,0,c	;volatile
  2385  0011B0  EFDC  F008         	goto	u5431
  2386  0011B4  EFDE  F008         	goto	u5430
  2387  0011B8                     u5431:
  2388  0011B8  EF00  F009         	goto	l306
  2389  0011BC                     u5430:
  2390  0011BC  A680               	btfss	128,3,c	;volatile
  2391  0011BE  EFE3  F008         	goto	u5441
  2392  0011C2  EFE5  F008         	goto	u5440
  2393  0011C6                     u5441:
  2394  0011C6  EF00  F009         	goto	l306
  2395  0011CA                     u5440:
  2396  0011CA  B480               	btfsc	128,2,c	;volatile
  2397  0011CC  EFEA  F008         	goto	u5451
  2398  0011D0  EFEC  F008         	goto	u5450
  2399  0011D4                     u5451:
  2400  0011D4  EF00  F009         	goto	l306
  2401  0011D8                     u5450:
  2402  0011D8                     
  2403                           ;hachiko_0.c: 376:                         moverMotor('e','f',60);
  2404  0011D8  0E66               	movlw	102
  2405  0011DA  6E08               	movwf	moverMotor@sentido^0,c
  2406  0011DC  0E00               	movlw	0
  2407  0011DE  6E0A               	movwf	(moverMotor@velocidade+1)^0,c
  2408  0011E0  0E3C               	movlw	60
  2409  0011E2  6E09               	movwf	moverMotor@velocidade^0,c
  2410  0011E4  0E65               	movlw	101
  2411  0011E6  ECDF  F010         	call	_moverMotor
  2412                           
  2413                           ;hachiko_0.c: 377:                         moverMotor('d','t',60);
  2414  0011EA  0E74               	movlw	116
  2415  0011EC  6E08               	movwf	moverMotor@sentido^0,c
  2416  0011EE  0E00               	movlw	0
  2417  0011F0  6E0A               	movwf	(moverMotor@velocidade+1)^0,c
  2418  0011F2  0E3C               	movlw	60
  2419  0011F4  6E09               	movwf	moverMotor@velocidade^0,c
  2420  0011F6  0E64               	movlw	100
  2421  0011F8  ECDF  F010         	call	_moverMotor
  2422                           
  2423                           ;hachiko_0.c: 378:                     }
  2424  0011FC  EF49  F009         	goto	l2812
  2425  001200                     l306:
  2426  001200  A280               	btfss	128,1,c	;volatile
  2427  001202  EF05  F009         	goto	u5461
  2428  001206  EF07  F009         	goto	u5460
  2429  00120A                     u5461:
  2430  00120A  EF37  F009         	goto	l2810
  2431  00120E                     u5460:
  2432  00120E  B880               	btfsc	128,4,c	;volatile
  2433  001210  EF0C  F009         	goto	u5471
  2434  001214  EF0E  F009         	goto	u5470
  2435  001218                     u5471:
  2436  001218  EF37  F009         	goto	l2810
  2437  00121C                     u5470:
  2438  00121C  B082               	btfsc	130,0,c	;volatile
  2439  00121E  EF13  F009         	goto	u5481
  2440  001222  EF15  F009         	goto	u5480
  2441  001226                     u5481:
  2442  001226  EF37  F009         	goto	l2810
  2443  00122A                     u5480:
  2444  00122A  B680               	btfsc	128,3,c	;volatile
  2445  00122C  EF1A  F009         	goto	u5491
  2446  001230  EF1C  F009         	goto	u5490
  2447  001234                     u5491:
  2448  001234  EF37  F009         	goto	l2810
  2449  001238                     u5490:
  2450  001238  A480               	btfss	128,2,c	;volatile
  2451  00123A  EF21  F009         	goto	u5501
  2452  00123E  EF23  F009         	goto	u5500
  2453  001242                     u5501:
  2454  001242  EF37  F009         	goto	l2810
  2455  001246                     u5500:
  2456  001246                     
  2457                           ;hachiko_0.c: 380:                         moverMotor('d','f',60);
  2458  001246  0E66               	movlw	102
  2459  001248  6E08               	movwf	moverMotor@sentido^0,c
  2460  00124A  0E00               	movlw	0
  2461  00124C  6E0A               	movwf	(moverMotor@velocidade+1)^0,c
  2462  00124E  0E3C               	movlw	60
  2463  001250  6E09               	movwf	moverMotor@velocidade^0,c
  2464  001252  0E64               	movlw	100
  2465  001254  ECDF  F010         	call	_moverMotor
  2466                           
  2467                           ;hachiko_0.c: 381:                         moverMotor('e','f',60);
  2468  001258  0E66               	movlw	102
  2469  00125A  6E08               	movwf	moverMotor@sentido^0,c
  2470  00125C  0E00               	movlw	0
  2471  00125E  6E0A               	movwf	(moverMotor@velocidade+1)^0,c
  2472  001260  0E3C               	movlw	60
  2473  001262  6E09               	movwf	moverMotor@velocidade^0,c
  2474  001264  0E65               	movlw	101
  2475  001266  ECDF  F010         	call	_moverMotor
  2476                           
  2477                           ;hachiko_0.c: 382:                     }
  2478  00126A  EF49  F009         	goto	l2812
  2479  00126E                     l2810:
  2480                           
  2481                           ;hachiko_0.c: 384:                         moverMotor('d','f',60);
  2482  00126E  0E66               	movlw	102
  2483  001270  6E08               	movwf	moverMotor@sentido^0,c
  2484  001272  0E00               	movlw	0
  2485  001274  6E0A               	movwf	(moverMotor@velocidade+1)^0,c
  2486  001276  0E3C               	movlw	60
  2487  001278  6E09               	movwf	moverMotor@velocidade^0,c
  2488  00127A  0E64               	movlw	100
  2489  00127C  ECDF  F010         	call	_moverMotor
  2490                           
  2491                           ;hachiko_0.c: 385:                         moverMotor('e','f',60);
  2492  001280  0E66               	movlw	102
  2493  001282  6E08               	movwf	moverMotor@sentido^0,c
  2494  001284  0E00               	movlw	0
  2495  001286  6E0A               	movwf	(moverMotor@velocidade+1)^0,c
  2496  001288  0E3C               	movlw	60
  2497  00128A  6E09               	movwf	moverMotor@velocidade^0,c
  2498  00128C  0E65               	movlw	101
  2499  00128E  ECDF  F010         	call	_moverMotor
  2500  001292                     l2812:
  2501                           
  2502                           ;hachiko_0.c: 335:                 while(cont_tmr < 0x19){
  2503  001292  0E18               	movlw	24
  2504  001294  6417               	cpfsgt	main@cont_tmr_702^0,c
  2505  001296  EF4F  F009         	goto	u5511
  2506  00129A  EF51  F009         	goto	u5510
  2507  00129E                     u5511:
  2508  00129E  EF3B  F007         	goto	l290
  2509  0012A2                     u5510:
  2510  0012A2                     
  2511                           ;hachiko_0.c: 388:                 cont_tmr = 0x00;
  2512  0012A2  0E00               	movlw	0
  2513  0012A4  6E17               	movwf	main@cont_tmr_702^0,c
  2514  0012A6                     
  2515                           ;hachiko_0.c: 389:                 pararMotor();
  2516  0012A6  ECAA  F011         	call	_pararMotor	;wreg free
  2517  0012AA                     
  2518                           ;hachiko_0.c: 390:                 _delay((unsigned long)((10)*(20000000/4000.0)));
  2519  0012AA  0E41               	movlw	65
  2520  0012AC  6E10               	movwf	??_main^0,c
  2521  0012AE  0EEE               	movlw	238
  2522  0012B0                     u6177:
  2523  0012B0  2EE8               	decfsz	wreg,f,c
  2524  0012B2  D7FE               	bra	u6177
  2525  0012B4  2E10               	decfsz	??_main^0,f,c
  2526  0012B6  D7FC               	bra	u6177
  2527  0012B8  F000 F000          	nop2	
  2528                           
  2529                           ;hachiko_0.c: 391:                 while(cont_tmr < 0x07){
  2530  0012BC  EF37  F00B         	goto	l2910
  2531  0012C0                     l312:
  2532                           
  2533                           ;hachiko_0.c: 392:                     if(TMR1IF){
  2534  0012C0  A09E               	btfss	3998,0,c	;volatile
  2535  0012C2  EF65  F009         	goto	u5521
  2536  0012C6  EF67  F009         	goto	u5520
  2537  0012CA                     u5521:
  2538  0012CA  EF6D  F009         	goto	l2826
  2539  0012CE                     u5520:
  2540  0012CE                     
  2541                           ;hachiko_0.c: 396:                         TMR1IF = 0;
  2542  0012CE  909E               	bcf	3998,0,c	;volatile
  2543  0012D0                     
  2544                           ;hachiko_0.c: 397:                         TMR1L = 0xDE;
  2545  0012D0  0EDE               	movlw	222
  2546  0012D2  6ECE               	movwf	206,c	;volatile
  2547                           
  2548                           ;hachiko_0.c: 398:                         TMR1H = 0x0B;
  2549  0012D4  0E0B               	movlw	11
  2550  0012D6  6ECF               	movwf	207,c	;volatile
  2551  0012D8                     
  2552                           ;hachiko_0.c: 399:                         cont_tmr++;
  2553  0012D8  2A17               	incf	main@cont_tmr_702^0,f,c
  2554  0012DA                     l2826:
  2555                           
  2556                           ;hachiko_0.c: 401:                     if(!PORTAbits.RA1 && PORTAbits.RA4 && PORTCbits.R
      +                          C0 && PORTAbits.RA3 && PORTAbits.RA2){
  2557  0012DA  B280               	btfsc	128,1,c	;volatile
  2558  0012DC  EF72  F009         	goto	u5531
  2559  0012E0  EF74  F009         	goto	u5530
  2560  0012E4                     u5531:
  2561  0012E4  EFA4  F009         	goto	l314
  2562  0012E8                     u5530:
  2563  0012E8  A880               	btfss	128,4,c	;volatile
  2564  0012EA  EF79  F009         	goto	u5541
  2565  0012EE  EF7B  F009         	goto	u5540
  2566  0012F2                     u5541:
  2567  0012F2  EFA4  F009         	goto	l314
  2568  0012F6                     u5540:
  2569  0012F6  A082               	btfss	130,0,c	;volatile
  2570  0012F8  EF80  F009         	goto	u5551
  2571  0012FC  EF82  F009         	goto	u5550
  2572  001300                     u5551:
  2573  001300  EFA4  F009         	goto	l314
  2574  001304                     u5550:
  2575  001304  A680               	btfss	128,3,c	;volatile
  2576  001306  EF87  F009         	goto	u5561
  2577  00130A  EF89  F009         	goto	u5560
  2578  00130E                     u5561:
  2579  00130E  EFA4  F009         	goto	l314
  2580  001312                     u5560:
  2581  001312  A480               	btfss	128,2,c	;volatile
  2582  001314  EF8E  F009         	goto	u5571
  2583  001318  EF90  F009         	goto	u5570
  2584  00131C                     u5571:
  2585  00131C  EFA4  F009         	goto	l314
  2586  001320                     u5570:
  2587  001320                     
  2588                           ;hachiko_0.c: 402:                         moverMotor('e','t',60);
  2589  001320  0E74               	movlw	116
  2590  001322  6E08               	movwf	moverMotor@sentido^0,c
  2591  001324  0E00               	movlw	0
  2592  001326  6E0A               	movwf	(moverMotor@velocidade+1)^0,c
  2593  001328  0E3C               	movlw	60
  2594  00132A  6E09               	movwf	moverMotor@velocidade^0,c
  2595  00132C  0E65               	movlw	101
  2596  00132E  ECDF  F010         	call	_moverMotor
  2597                           
  2598                           ;hachiko_0.c: 403:                         moverMotor('d','f',60);
  2599  001332  0E66               	movlw	102
  2600  001334  6E08               	movwf	moverMotor@sentido^0,c
  2601  001336  0E00               	movlw	0
  2602  001338  6E0A               	movwf	(moverMotor@velocidade+1)^0,c
  2603  00133A  0E3C               	movlw	60
  2604  00133C  6E09               	movwf	moverMotor@velocidade^0,c
  2605  00133E  0E64               	movlw	100
  2606  001340  ECDF  F010         	call	_moverMotor
  2607                           
  2608                           ;hachiko_0.c: 404:                     }
  2609  001344  EF37  F00B         	goto	l2910
  2610  001348                     l314:
  2611  001348  A280               	btfss	128,1,c	;volatile
  2612  00134A  EFA9  F009         	goto	u5581
  2613  00134E  EFAB  F009         	goto	u5580
  2614  001352                     u5581:
  2615  001352  EFDB  F009         	goto	l316
  2616  001356                     u5580:
  2617  001356  A880               	btfss	128,4,c	;volatile
  2618  001358  EFB0  F009         	goto	u5591
  2619  00135C  EFB2  F009         	goto	u5590
  2620  001360                     u5591:
  2621  001360  EFDB  F009         	goto	l316
  2622  001364                     u5590:
  2623  001364  B082               	btfsc	130,0,c	;volatile
  2624  001366  EFB7  F009         	goto	u5601
  2625  00136A  EFB9  F009         	goto	u5600
  2626  00136E                     u5601:
  2627  00136E  EFDB  F009         	goto	l316
  2628  001372                     u5600:
  2629  001372  A680               	btfss	128,3,c	;volatile
  2630  001374  EFBE  F009         	goto	u5611
  2631  001378  EFC0  F009         	goto	u5610
  2632  00137C                     u5611:
  2633  00137C  EFDB  F009         	goto	l316
  2634  001380                     u5610:
  2635  001380  A480               	btfss	128,2,c	;volatile
  2636  001382  EFC5  F009         	goto	u5621
  2637  001386  EFC7  F009         	goto	u5620
  2638  00138A                     u5621:
  2639  00138A  EFDB  F009         	goto	l316
  2640  00138E                     u5620:
  2641  00138E                     
  2642                           ;hachiko_0.c: 406:                         moverMotor('e','f',60);
  2643  00138E  0E66               	movlw	102
  2644  001390  6E08               	movwf	moverMotor@sentido^0,c
  2645  001392  0E00               	movlw	0
  2646  001394  6E0A               	movwf	(moverMotor@velocidade+1)^0,c
  2647  001396  0E3C               	movlw	60
  2648  001398  6E09               	movwf	moverMotor@velocidade^0,c
  2649  00139A  0E65               	movlw	101
  2650  00139C  ECDF  F010         	call	_moverMotor
  2651                           
  2652                           ;hachiko_0.c: 407:                         moverMotor('d','f',60);
  2653  0013A0  0E66               	movlw	102
  2654  0013A2  6E08               	movwf	moverMotor@sentido^0,c
  2655  0013A4  0E00               	movlw	0
  2656  0013A6  6E0A               	movwf	(moverMotor@velocidade+1)^0,c
  2657  0013A8  0E3C               	movlw	60
  2658  0013AA  6E09               	movwf	moverMotor@velocidade^0,c
  2659  0013AC  0E64               	movlw	100
  2660  0013AE  ECDF  F010         	call	_moverMotor
  2661                           
  2662                           ;hachiko_0.c: 409:                     }
  2663  0013B2  EF37  F00B         	goto	l2910
  2664  0013B6                     l316:
  2665  0013B6  A280               	btfss	128,1,c	;volatile
  2666  0013B8  EFE0  F009         	goto	u5631
  2667  0013BC  EFE2  F009         	goto	u5630
  2668  0013C0                     u5631:
  2669  0013C0  EF12  F00A         	goto	l318
  2670  0013C4                     u5630:
  2671  0013C4  B880               	btfsc	128,4,c	;volatile
  2672  0013C6  EFE7  F009         	goto	u5641
  2673  0013CA  EFE9  F009         	goto	u5640
  2674  0013CE                     u5641:
  2675  0013CE  EF12  F00A         	goto	l318
  2676  0013D2                     u5640:
  2677  0013D2  A082               	btfss	130,0,c	;volatile
  2678  0013D4  EFEE  F009         	goto	u5651
  2679  0013D8  EFF0  F009         	goto	u5650
  2680  0013DC                     u5651:
  2681  0013DC  EF12  F00A         	goto	l318
  2682  0013E0                     u5650:
  2683  0013E0  B680               	btfsc	128,3,c	;volatile
  2684  0013E2  EFF5  F009         	goto	u5661
  2685  0013E6  EFF7  F009         	goto	u5660
  2686  0013EA                     u5661:
  2687  0013EA  EF12  F00A         	goto	l318
  2688  0013EE                     u5660:
  2689  0013EE  A480               	btfss	128,2,c	;volatile
  2690  0013F0  EFFC  F009         	goto	u5671
  2691  0013F4  EFFE  F009         	goto	u5670
  2692  0013F8                     u5671:
  2693  0013F8  EF12  F00A         	goto	l318
  2694  0013FC                     u5670:
  2695  0013FC                     
  2696                           ;hachiko_0.c: 411:                         moverMotor('e','f',60);
  2697  0013FC  0E66               	movlw	102
  2698  0013FE  6E08               	movwf	moverMotor@sentido^0,c
  2699  001400  0E00               	movlw	0
  2700  001402  6E0A               	movwf	(moverMotor@velocidade+1)^0,c
  2701  001404  0E3C               	movlw	60
  2702  001406  6E09               	movwf	moverMotor@velocidade^0,c
  2703  001408  0E65               	movlw	101
  2704  00140A  ECDF  F010         	call	_moverMotor
  2705                           
  2706                           ;hachiko_0.c: 412:                         moverMotor('d','f',60);
  2707  00140E  0E66               	movlw	102
  2708  001410  6E08               	movwf	moverMotor@sentido^0,c
  2709  001412  0E00               	movlw	0
  2710  001414  6E0A               	movwf	(moverMotor@velocidade+1)^0,c
  2711  001416  0E3C               	movlw	60
  2712  001418  6E09               	movwf	moverMotor@velocidade^0,c
  2713  00141A  0E64               	movlw	100
  2714  00141C  ECDF  F010         	call	_moverMotor
  2715                           
  2716                           ;hachiko_0.c: 414:                     }
  2717  001420  EF37  F00B         	goto	l2910
  2718  001424                     l318:
  2719  001424  A280               	btfss	128,1,c	;volatile
  2720  001426  EF17  F00A         	goto	u5681
  2721  00142A  EF19  F00A         	goto	u5680
  2722  00142E                     u5681:
  2723  00142E  EF49  F00A         	goto	l320
  2724  001432                     u5680:
  2725  001432  A880               	btfss	128,4,c	;volatile
  2726  001434  EF1E  F00A         	goto	u5691
  2727  001438  EF20  F00A         	goto	u5690
  2728  00143C                     u5691:
  2729  00143C  EF49  F00A         	goto	l320
  2730  001440                     u5690:
  2731  001440  A082               	btfss	130,0,c	;volatile
  2732  001442  EF25  F00A         	goto	u5701
  2733  001446  EF27  F00A         	goto	u5700
  2734  00144A                     u5701:
  2735  00144A  EF49  F00A         	goto	l320
  2736  00144E                     u5700:
  2737  00144E  B680               	btfsc	128,3,c	;volatile
  2738  001450  EF2C  F00A         	goto	u5711
  2739  001454  EF2E  F00A         	goto	u5710
  2740  001458                     u5711:
  2741  001458  EF49  F00A         	goto	l320
  2742  00145C                     u5710:
  2743  00145C  A480               	btfss	128,2,c	;volatile
  2744  00145E  EF33  F00A         	goto	u5721
  2745  001462  EF35  F00A         	goto	u5720
  2746  001466                     u5721:
  2747  001466  EF49  F00A         	goto	l320
  2748  00146A                     u5720:
  2749  00146A                     
  2750                           ;hachiko_0.c: 416:                         moverMotor('e','f',60);
  2751  00146A  0E66               	movlw	102
  2752  00146C  6E08               	movwf	moverMotor@sentido^0,c
  2753  00146E  0E00               	movlw	0
  2754  001470  6E0A               	movwf	(moverMotor@velocidade+1)^0,c
  2755  001472  0E3C               	movlw	60
  2756  001474  6E09               	movwf	moverMotor@velocidade^0,c
  2757  001476  0E65               	movlw	101
  2758  001478  ECDF  F010         	call	_moverMotor
  2759                           
  2760                           ;hachiko_0.c: 417:                         moverMotor('d','t',60);
  2761  00147C  0E74               	movlw	116
  2762  00147E  6E08               	movwf	moverMotor@sentido^0,c
  2763  001480  0E00               	movlw	0
  2764  001482  6E0A               	movwf	(moverMotor@velocidade+1)^0,c
  2765  001484  0E3C               	movlw	60
  2766  001486  6E09               	movwf	moverMotor@velocidade^0,c
  2767  001488  0E64               	movlw	100
  2768  00148A  ECDF  F010         	call	_moverMotor
  2769                           
  2770                           ;hachiko_0.c: 418:                     }
  2771  00148E  EF37  F00B         	goto	l2910
  2772  001492                     l320:
  2773  001492  A280               	btfss	128,1,c	;volatile
  2774  001494  EF4E  F00A         	goto	u5731
  2775  001498  EF50  F00A         	goto	u5730
  2776  00149C                     u5731:
  2777  00149C  EF80  F00A         	goto	l322
  2778  0014A0                     u5730:
  2779  0014A0  A880               	btfss	128,4,c	;volatile
  2780  0014A2  EF55  F00A         	goto	u5741
  2781  0014A6  EF57  F00A         	goto	u5740
  2782  0014AA                     u5741:
  2783  0014AA  EF80  F00A         	goto	l322
  2784  0014AE                     u5740:
  2785  0014AE  B082               	btfsc	130,0,c	;volatile
  2786  0014B0  EF5C  F00A         	goto	u5751
  2787  0014B4  EF5E  F00A         	goto	u5750
  2788  0014B8                     u5751:
  2789  0014B8  EF80  F00A         	goto	l322
  2790  0014BC                     u5750:
  2791  0014BC  B680               	btfsc	128,3,c	;volatile
  2792  0014BE  EF63  F00A         	goto	u5761
  2793  0014C2  EF65  F00A         	goto	u5760
  2794  0014C6                     u5761:
  2795  0014C6  EF80  F00A         	goto	l322
  2796  0014CA                     u5760:
  2797  0014CA  A480               	btfss	128,2,c	;volatile
  2798  0014CC  EF6A  F00A         	goto	u5771
  2799  0014D0  EF6C  F00A         	goto	u5770
  2800  0014D4                     u5771:
  2801  0014D4  EF80  F00A         	goto	l322
  2802  0014D8                     u5770:
  2803  0014D8                     
  2804                           ;hachiko_0.c: 420:                         moverMotor('e','f',60);
  2805  0014D8  0E66               	movlw	102
  2806  0014DA  6E08               	movwf	moverMotor@sentido^0,c
  2807  0014DC  0E00               	movlw	0
  2808  0014DE  6E0A               	movwf	(moverMotor@velocidade+1)^0,c
  2809  0014E0  0E3C               	movlw	60
  2810  0014E2  6E09               	movwf	moverMotor@velocidade^0,c
  2811  0014E4  0E65               	movlw	101
  2812  0014E6  ECDF  F010         	call	_moverMotor
  2813                           
  2814                           ;hachiko_0.c: 421:                         moverMotor('d','t',60);
  2815  0014EA  0E74               	movlw	116
  2816  0014EC  6E08               	movwf	moverMotor@sentido^0,c
  2817  0014EE  0E00               	movlw	0
  2818  0014F0  6E0A               	movwf	(moverMotor@velocidade+1)^0,c
  2819  0014F2  0E3C               	movlw	60
  2820  0014F4  6E09               	movwf	moverMotor@velocidade^0,c
  2821  0014F6  0E64               	movlw	100
  2822  0014F8  ECDF  F010         	call	_moverMotor
  2823                           
  2824                           ;hachiko_0.c: 422:                     }
  2825  0014FC  EF37  F00B         	goto	l2910
  2826  001500                     l322:
  2827  001500  A280               	btfss	128,1,c	;volatile
  2828  001502  EF85  F00A         	goto	u5781
  2829  001506  EF87  F00A         	goto	u5780
  2830  00150A                     u5781:
  2831  00150A  EFB7  F00A         	goto	l324
  2832  00150E                     u5780:
  2833  00150E  B880               	btfsc	128,4,c	;volatile
  2834  001510  EF8C  F00A         	goto	u5791
  2835  001514  EF8E  F00A         	goto	u5790
  2836  001518                     u5791:
  2837  001518  EFB7  F00A         	goto	l324
  2838  00151C                     u5790:
  2839  00151C  A082               	btfss	130,0,c	;volatile
  2840  00151E  EF93  F00A         	goto	u5801
  2841  001522  EF95  F00A         	goto	u5800
  2842  001526                     u5801:
  2843  001526  EFB7  F00A         	goto	l324
  2844  00152A                     u5800:
  2845  00152A  A680               	btfss	128,3,c	;volatile
  2846  00152C  EF9A  F00A         	goto	u5811
  2847  001530  EF9C  F00A         	goto	u5810
  2848  001534                     u5811:
  2849  001534  EFB7  F00A         	goto	l324
  2850  001538                     u5810:
  2851  001538  A480               	btfss	128,2,c	;volatile
  2852  00153A  EFA1  F00A         	goto	u5821
  2853  00153E  EFA3  F00A         	goto	u5820
  2854  001542                     u5821:
  2855  001542  EFB7  F00A         	goto	l324
  2856  001546                     u5820:
  2857  001546                     
  2858                           ;hachiko_0.c: 424:                         moverMotor('e','t',60);
  2859  001546  0E74               	movlw	116
  2860  001548  6E08               	movwf	moverMotor@sentido^0,c
  2861  00154A  0E00               	movlw	0
  2862  00154C  6E0A               	movwf	(moverMotor@velocidade+1)^0,c
  2863  00154E  0E3C               	movlw	60
  2864  001550  6E09               	movwf	moverMotor@velocidade^0,c
  2865  001552  0E65               	movlw	101
  2866  001554  ECDF  F010         	call	_moverMotor
  2867                           
  2868                           ;hachiko_0.c: 425:                         moverMotor('d','f',60);
  2869  001558  0E66               	movlw	102
  2870  00155A  6E08               	movwf	moverMotor@sentido^0,c
  2871  00155C  0E00               	movlw	0
  2872  00155E  6E0A               	movwf	(moverMotor@velocidade+1)^0,c
  2873  001560  0E3C               	movlw	60
  2874  001562  6E09               	movwf	moverMotor@velocidade^0,c
  2875  001564  0E64               	movlw	100
  2876  001566  ECDF  F010         	call	_moverMotor
  2877                           
  2878                           ;hachiko_0.c: 426:                     }
  2879  00156A  EF37  F00B         	goto	l2910
  2880  00156E                     l324:
  2881  00156E  A280               	btfss	128,1,c	;volatile
  2882  001570  EFBC  F00A         	goto	u5831
  2883  001574  EFBE  F00A         	goto	u5830
  2884  001578                     u5831:
  2885  001578  EFEE  F00A         	goto	l326
  2886  00157C                     u5830:
  2887  00157C  B880               	btfsc	128,4,c	;volatile
  2888  00157E  EFC3  F00A         	goto	u5841
  2889  001582  EFC5  F00A         	goto	u5840
  2890  001586                     u5841:
  2891  001586  EFEE  F00A         	goto	l326
  2892  00158A                     u5840:
  2893  00158A  B082               	btfsc	130,0,c	;volatile
  2894  00158C  EFCA  F00A         	goto	u5851
  2895  001590  EFCC  F00A         	goto	u5850
  2896  001594                     u5851:
  2897  001594  EFEE  F00A         	goto	l326
  2898  001598                     u5850:
  2899  001598  A680               	btfss	128,3,c	;volatile
  2900  00159A  EFD1  F00A         	goto	u5861
  2901  00159E  EFD3  F00A         	goto	u5860
  2902  0015A2                     u5861:
  2903  0015A2  EFEE  F00A         	goto	l326
  2904  0015A6                     u5860:
  2905  0015A6  A480               	btfss	128,2,c	;volatile
  2906  0015A8  EFD8  F00A         	goto	u5871
  2907  0015AC  EFDA  F00A         	goto	u5870
  2908  0015B0                     u5871:
  2909  0015B0  EFEE  F00A         	goto	l326
  2910  0015B4                     u5870:
  2911  0015B4                     
  2912                           ;hachiko_0.c: 428:                         moverMotor('e','t',60);
  2913  0015B4  0E74               	movlw	116
  2914  0015B6  6E08               	movwf	moverMotor@sentido^0,c
  2915  0015B8  0E00               	movlw	0
  2916  0015BA  6E0A               	movwf	(moverMotor@velocidade+1)^0,c
  2917  0015BC  0E3C               	movlw	60
  2918  0015BE  6E09               	movwf	moverMotor@velocidade^0,c
  2919  0015C0  0E65               	movlw	101
  2920  0015C2  ECDF  F010         	call	_moverMotor
  2921                           
  2922                           ;hachiko_0.c: 429:                         moverMotor('d','f',60);
  2923  0015C6  0E66               	movlw	102
  2924  0015C8  6E08               	movwf	moverMotor@sentido^0,c
  2925  0015CA  0E00               	movlw	0
  2926  0015CC  6E0A               	movwf	(moverMotor@velocidade+1)^0,c
  2927  0015CE  0E3C               	movlw	60
  2928  0015D0  6E09               	movwf	moverMotor@velocidade^0,c
  2929  0015D2  0E64               	movlw	100
  2930  0015D4  ECDF  F010         	call	_moverMotor
  2931                           
  2932                           ;hachiko_0.c: 430:                     }
  2933  0015D8  EF37  F00B         	goto	l2910
  2934  0015DC                     l326:
  2935  0015DC  A280               	btfss	128,1,c	;volatile
  2936  0015DE  EFF3  F00A         	goto	u5881
  2937  0015E2  EFF5  F00A         	goto	u5880
  2938  0015E6                     u5881:
  2939  0015E6  EF25  F00B         	goto	l2908
  2940  0015EA                     u5880:
  2941  0015EA  A880               	btfss	128,4,c	;volatile
  2942  0015EC  EFFA  F00A         	goto	u5891
  2943  0015F0  EFFC  F00A         	goto	u5890
  2944  0015F4                     u5891:
  2945  0015F4  EF25  F00B         	goto	l2908
  2946  0015F8                     u5890:
  2947  0015F8  A082               	btfss	130,0,c	;volatile
  2948  0015FA  EF01  F00B         	goto	u5901
  2949  0015FE  EF03  F00B         	goto	u5900
  2950  001602                     u5901:
  2951  001602  EF25  F00B         	goto	l2908
  2952  001606                     u5900:
  2953  001606  A680               	btfss	128,3,c	;volatile
  2954  001608  EF08  F00B         	goto	u5911
  2955  00160C  EF0A  F00B         	goto	u5910
  2956  001610                     u5911:
  2957  001610  EF25  F00B         	goto	l2908
  2958  001614                     u5910:
  2959  001614  B480               	btfsc	128,2,c	;volatile
  2960  001616  EF0F  F00B         	goto	u5921
  2961  00161A  EF11  F00B         	goto	u5920
  2962  00161E                     u5921:
  2963  00161E  EF25  F00B         	goto	l2908
  2964  001622                     u5920:
  2965  001622                     
  2966                           ;hachiko_0.c: 432:                         moverMotor('e','f',60);
  2967  001622  0E66               	movlw	102
  2968  001624  6E08               	movwf	moverMotor@sentido^0,c
  2969  001626  0E00               	movlw	0
  2970  001628  6E0A               	movwf	(moverMotor@velocidade+1)^0,c
  2971  00162A  0E3C               	movlw	60
  2972  00162C  6E09               	movwf	moverMotor@velocidade^0,c
  2973  00162E  0E65               	movlw	101
  2974  001630  ECDF  F010         	call	_moverMotor
  2975                           
  2976                           ;hachiko_0.c: 433:                         moverMotor('d','t',60);
  2977  001634  0E74               	movlw	116
  2978  001636  6E08               	movwf	moverMotor@sentido^0,c
  2979  001638  0E00               	movlw	0
  2980  00163A  6E0A               	movwf	(moverMotor@velocidade+1)^0,c
  2981  00163C  0E3C               	movlw	60
  2982  00163E  6E09               	movwf	moverMotor@velocidade^0,c
  2983  001640  0E64               	movlw	100
  2984  001642  ECDF  F010         	call	_moverMotor
  2985                           
  2986                           ;hachiko_0.c: 434:                     }
  2987  001646  EF37  F00B         	goto	l2910
  2988  00164A                     l2908:
  2989                           
  2990                           ;hachiko_0.c: 436:                         moverMotor('d','t',60);
  2991  00164A  0E74               	movlw	116
  2992  00164C  6E08               	movwf	moverMotor@sentido^0,c
  2993  00164E  0E00               	movlw	0
  2994  001650  6E0A               	movwf	(moverMotor@velocidade+1)^0,c
  2995  001652  0E3C               	movlw	60
  2996  001654  6E09               	movwf	moverMotor@velocidade^0,c
  2997  001656  0E64               	movlw	100
  2998  001658  ECDF  F010         	call	_moverMotor
  2999                           
  3000                           ;hachiko_0.c: 437:                         moverMotor('e','f',60);
  3001  00165C  0E66               	movlw	102
  3002  00165E  6E08               	movwf	moverMotor@sentido^0,c
  3003  001660  0E00               	movlw	0
  3004  001662  6E0A               	movwf	(moverMotor@velocidade+1)^0,c
  3005  001664  0E3C               	movlw	60
  3006  001666  6E09               	movwf	moverMotor@velocidade^0,c
  3007  001668  0E65               	movlw	101
  3008  00166A  ECDF  F010         	call	_moverMotor
  3009  00166E                     l2910:
  3010                           
  3011                           ;hachiko_0.c: 391:                 while(cont_tmr < 0x07){
  3012  00166E  0E06               	movlw	6
  3013  001670  6417               	cpfsgt	main@cont_tmr_702^0,c
  3014  001672  EF3D  F00B         	goto	u5931
  3015  001676  EF3F  F00B         	goto	u5930
  3016  00167A                     u5931:
  3017  00167A  EF60  F009         	goto	l312
  3018  00167E                     u5930:
  3019  00167E                     
  3020                           ;hachiko_0.c: 440:                 pararMotor();
  3021  00167E  ECAA  F011         	call	_pararMotor	;wreg free
  3022  001682                     
  3023                           ;hachiko_0.c: 441:                 _delay((unsigned long)((10)*(20000000/4000.0)));
  3024  001682  0E41               	movlw	65
  3025  001684  6E10               	movwf	??_main^0,c
  3026  001686  0EEE               	movlw	238
  3027  001688                     u6187:
  3028  001688  2EE8               	decfsz	wreg,f,c
  3029  00168A  D7FE               	bra	u6187
  3030  00168C  2E10               	decfsz	??_main^0,f,c
  3031  00168E  D7FC               	bra	u6187
  3032  001690  F000 F000          	nop2	
  3033  001694                     
  3034                           ;hachiko_0.c: 443:                 if(acao == "parar"){
  3035  001694  0E47               	movlw	low STR_15
  3036  001696  181C               	xorwf	_acao^0,w,c
  3037  001698  E107               	bnz	u5941
  3038  00169A  0E03               	movlw	high STR_15
  3039  00169C  181D               	xorwf	(_acao+1)^0,w,c
  3040  00169E  A4D8               	btfss	status,2,c
  3041  0016A0  EF54  F00B         	goto	u5941
  3042  0016A4  EF56  F00B         	goto	u5940
  3043  0016A8                     u5941:
  3044  0016A8  EF5A  F00B         	goto	l2920
  3045  0016AC                     u5940:
  3046  0016AC                     
  3047                           ;hachiko_0.c: 444:                     pararMotor();
  3048  0016AC  ECAA  F011         	call	_pararMotor	;wreg free
  3049                           
  3050                           ;hachiko_0.c: 445:                     break;
  3051  0016B0  EF63  F00B         	goto	l332
  3052  0016B4                     l2920:
  3053                           
  3054                           ;hachiko_0.c: 447:                 cont_zig++;
  3055  0016B4  2A13               	incf	main@cont_zig^0,f,c
  3056  0016B6                     l2922:
  3057                           
  3058                           ;hachiko_0.c: 334:             while(cont_zig < 0x0C){
  3059  0016B6  0E0B               	movlw	11
  3060  0016B8  6413               	cpfsgt	main@cont_zig^0,c
  3061  0016BA  EF61  F00B         	goto	u5951
  3062  0016BE  EF63  F00B         	goto	u5950
  3063  0016C2                     u5951:
  3064  0016C2  EF49  F009         	goto	l2812
  3065  0016C6                     u5950:
  3066  0016C6                     l332:
  3067                           
  3068                           ;hachiko_0.c: 449:             TMR1ON = 0;
  3069  0016C6  90CD               	bcf	4045,0,c	;volatile
  3070  0016C8                     
  3071                           ;hachiko_0.c: 450:             acao = " ";
  3072  0016C8  0E68               	movlw	low STR_29
  3073  0016CA  6E1C               	movwf	_acao^0,c
  3074  0016CC  0E03               	movlw	high STR_29
  3075  0016CE  6E1D               	movwf	(_acao+1)^0,c
  3076  0016D0                     l286:
  3077                           
  3078                           ;hachiko_0.c: 454:         if(acao == "esquerdo"){
  3079  0016D0  0E0B               	movlw	low STR_11
  3080  0016D2  181C               	xorwf	_acao^0,w,c
  3081  0016D4  E107               	bnz	u5961
  3082  0016D6  0E03               	movlw	high STR_11
  3083  0016D8  181D               	xorwf	(_acao+1)^0,w,c
  3084  0016DA  A4D8               	btfss	status,2,c
  3085  0016DC  EF72  F00B         	goto	u5961
  3086  0016E0  EF74  F00B         	goto	u5960
  3087  0016E4                     u5961:
  3088  0016E4  EFAF  F00B         	goto	l2946
  3089  0016E8                     u5960:
  3090  0016E8                     
  3091                           ;hachiko_0.c: 455:             velocidade = 10*600/100;
  3092  0016E8  0E00               	movlw	0
  3093  0016EA  6E1B               	movwf	(_velocidade+1)^0,c
  3094  0016EC  0E3C               	movlw	60
  3095  0016EE  6E1A               	movwf	_velocidade^0,c
  3096  0016F0                     
  3097                           ;hachiko_0.c: 456:             PORTBbits.RB7 = 1;
  3098  0016F0  8E81               	bsf	129,7,c	;volatile
  3099  0016F2                     l2930:
  3100                           
  3101                           ;hachiko_0.c: 458:                 if(acao == "tras"){
  3102  0016F2  0E5D               	movlw	low STR_13
  3103  0016F4  181C               	xorwf	_acao^0,w,c
  3104  0016F6  E107               	bnz	u5971
  3105  0016F8  0E03               	movlw	high STR_13
  3106  0016FA  181D               	xorwf	(_acao+1)^0,w,c
  3107  0016FC  A4D8               	btfss	status,2,c
  3108  0016FE  EF83  F00B         	goto	u5971
  3109  001702  EF85  F00B         	goto	u5970
  3110  001706                     u5971:
  3111  001706  EF8F  F00B         	goto	l2936
  3112  00170A                     u5970:
  3113  00170A                     
  3114                           ;hachiko_0.c: 459:                     PDC1L = 0x00;
  3115  00170A  0E00               	movlw	0
  3116  00170C  6E77               	movwf	119,c	;volatile
  3117                           
  3118                           ;hachiko_0.c: 460:                     PDC1H = 0x00;
  3119  00170E  0E00               	movlw	0
  3120  001710  6E76               	movwf	118,c	;volatile
  3121  001712                     
  3122                           ;hachiko_0.c: 461:                     PDC2L = velocidade & 0xFF;
  3123  001712  C01A  FF75         	movff	_velocidade,3957	;volatile
  3124                           
  3125                           ;hachiko_0.c: 462:                     PDC2H = (velocidade >> 8) & 0xFF;
  3126  001716  501B               	movf	(_velocidade+1)^0,w,c
  3127  001718  6E74               	movwf	116,c	;volatile
  3128                           
  3129                           ;hachiko_0.c: 463:                 }
  3130  00171A  EFA3  F00B         	goto	l2942
  3131  00171E                     l2936:
  3132  00171E  0E2D               	movlw	low STR_12
  3133  001720  181C               	xorwf	_acao^0,w,c
  3134  001722  E107               	bnz	u5981
  3135  001724  0E03               	movlw	high STR_12
  3136  001726  181D               	xorwf	(_acao+1)^0,w,c
  3137  001728  A4D8               	btfss	status,2,c
  3138  00172A  EF99  F00B         	goto	u5981
  3139  00172E  EF9B  F00B         	goto	u5980
  3140  001732                     u5981:
  3141  001732  EFA3  F00B         	goto	l2942
  3142  001736                     u5980:
  3143  001736                     
  3144                           ;hachiko_0.c: 465:                     PDC1L = velocidade & 0xFF;
  3145  001736  C01A  FF77         	movff	_velocidade,3959	;volatile
  3146  00173A                     
  3147                           ;hachiko_0.c: 466:                     PDC1H = (velocidade >> 8) & 0xFF;
  3148  00173A  501B               	movf	(_velocidade+1)^0,w,c
  3149  00173C  6E76               	movwf	118,c	;volatile
  3150                           
  3151                           ;hachiko_0.c: 467:                     PDC2L = 0x00;
  3152  00173E  0E00               	movlw	0
  3153  001740  6E75               	movwf	117,c	;volatile
  3154                           
  3155                           ;hachiko_0.c: 468:                     PDC2H = 0x00;
  3156  001742  0E00               	movlw	0
  3157  001744  6E74               	movwf	116,c	;volatile
  3158  001746                     l2942:
  3159                           
  3160                           ;hachiko_0.c: 470:                 if(acao == "parar") break;
  3161  001746  0E47               	movlw	low STR_15
  3162  001748  181C               	xorwf	_acao^0,w,c
  3163  00174A  E107               	bnz	u5991
  3164  00174C  0E03               	movlw	high STR_15
  3165  00174E  181D               	xorwf	(_acao+1)^0,w,c
  3166  001750  A4D8               	btfss	status,2,c
  3167  001752  EFAD  F00B         	goto	u5991
  3168  001756  EFAF  F00B         	goto	u5990
  3169  00175A                     u5991:
  3170  00175A  EF79  F00B         	goto	l2930
  3171  00175E                     u5990:
  3172  00175E                     l2946:
  3173                           
  3174                           ;hachiko_0.c: 474:         if(acao == "direito"){
  3175  00175E  0E25               	movlw	low STR_10
  3176  001760  181C               	xorwf	_acao^0,w,c
  3177  001762  E107               	bnz	u6001
  3178  001764  0E03               	movlw	high STR_10
  3179  001766  181D               	xorwf	(_acao+1)^0,w,c
  3180  001768  A4D8               	btfss	status,2,c
  3181  00176A  EFB9  F00B         	goto	u6001
  3182  00176E  EFBB  F00B         	goto	u6000
  3183  001772                     u6001:
  3184  001772  EFF6  F00B         	goto	l2968
  3185  001776                     u6000:
  3186  001776                     
  3187                           ;hachiko_0.c: 475:             velocidade = 10*600/100;
  3188  001776  0E00               	movlw	0
  3189  001778  6E1B               	movwf	(_velocidade+1)^0,c
  3190  00177A  0E3C               	movlw	60
  3191  00177C  6E1A               	movwf	_velocidade^0,c
  3192  00177E                     
  3193                           ;hachiko_0.c: 476:             PORTBbits.RB6 = 1;
  3194  00177E  8C81               	bsf	129,6,c	;volatile
  3195  001780                     l2952:
  3196                           
  3197                           ;hachiko_0.c: 478:                 if(acao == "frente"){
  3198  001780  0E2D               	movlw	low STR_12
  3199  001782  181C               	xorwf	_acao^0,w,c
  3200  001784  E107               	bnz	u6011
  3201  001786  0E03               	movlw	high STR_12
  3202  001788  181D               	xorwf	(_acao+1)^0,w,c
  3203  00178A  A4D8               	btfss	status,2,c
  3204  00178C  EFCA  F00B         	goto	u6011
  3205  001790  EFCC  F00B         	goto	u6010
  3206  001794                     u6011:
  3207  001794  EFD6  F00B         	goto	l2958
  3208  001798                     u6010:
  3209  001798                     
  3210                           ;hachiko_0.c: 479:                     PDC0L = velocidade & 0xFF;
  3211  001798  C01A  FF79         	movff	_velocidade,3961	;volatile
  3212  00179C                     
  3213                           ;hachiko_0.c: 480:                     PDC0H = (velocidade >> 8) & 0xFF;
  3214  00179C  501B               	movf	(_velocidade+1)^0,w,c
  3215  00179E  6E78               	movwf	120,c	;volatile
  3216                           
  3217                           ;hachiko_0.c: 481:                     PDC3L = 0x00;
  3218  0017A0  0E00               	movlw	0
  3219  0017A2  6E73               	movwf	115,c	;volatile
  3220                           
  3221                           ;hachiko_0.c: 482:                     PDC3H = 0x00;
  3222  0017A4  0E00               	movlw	0
  3223  0017A6  6E72               	movwf	114,c	;volatile
  3224                           
  3225                           ;hachiko_0.c: 483:                 }
  3226  0017A8  EFEA  F00B         	goto	l2964
  3227  0017AC                     l2958:
  3228  0017AC  0E5D               	movlw	low STR_13
  3229  0017AE  181C               	xorwf	_acao^0,w,c
  3230  0017B0  E107               	bnz	u6021
  3231  0017B2  0E03               	movlw	high STR_13
  3232  0017B4  181D               	xorwf	(_acao+1)^0,w,c
  3233  0017B6  A4D8               	btfss	status,2,c
  3234  0017B8  EFE0  F00B         	goto	u6021
  3235  0017BC  EFE2  F00B         	goto	u6020
  3236  0017C0                     u6021:
  3237  0017C0  EFEA  F00B         	goto	l2964
  3238  0017C4                     u6020:
  3239  0017C4                     
  3240                           ;hachiko_0.c: 485:                     PDC0L = 0x00;
  3241  0017C4  0E00               	movlw	0
  3242  0017C6  6E79               	movwf	121,c	;volatile
  3243                           
  3244                           ;hachiko_0.c: 486:                     PDC0H = 0x00;
  3245  0017C8  0E00               	movlw	0
  3246  0017CA  6E78               	movwf	120,c	;volatile
  3247  0017CC                     
  3248                           ;hachiko_0.c: 487:                     PDC3L = velocidade & 0xFF;
  3249  0017CC  C01A  FF73         	movff	_velocidade,3955	;volatile
  3250                           
  3251                           ;hachiko_0.c: 488:                     PDC3H = (velocidade >> 8) & 0xFF;
  3252  0017D0  501B               	movf	(_velocidade+1)^0,w,c
  3253  0017D2  6E72               	movwf	114,c	;volatile
  3254  0017D4                     l2964:
  3255                           
  3256                           ;hachiko_0.c: 490:                 if(acao == "parar") break;
  3257  0017D4  0E47               	movlw	low STR_15
  3258  0017D6  181C               	xorwf	_acao^0,w,c
  3259  0017D8  E107               	bnz	u6031
  3260  0017DA  0E03               	movlw	high STR_15
  3261  0017DC  181D               	xorwf	(_acao+1)^0,w,c
  3262  0017DE  A4D8               	btfss	status,2,c
  3263  0017E0  EFF4  F00B         	goto	u6031
  3264  0017E4  EFF6  F00B         	goto	u6030
  3265  0017E8                     u6031:
  3266  0017E8  EFC0  F00B         	goto	l2952
  3267  0017EC                     u6030:
  3268  0017EC                     l2968:
  3269                           
  3270                           ;hachiko_0.c: 494:         if(acao == "motor"){
  3271  0017EC  0E4D               	movlw	low STR_14
  3272  0017EE  181C               	xorwf	_acao^0,w,c
  3273  0017F0  E107               	bnz	u6041
  3274  0017F2  0E03               	movlw	high STR_14
  3275  0017F4  181D               	xorwf	(_acao+1)^0,w,c
  3276  0017F6  A4D8               	btfss	status,2,c
  3277  0017F8  EF00  F00C         	goto	u6041
  3278  0017FC  EF02  F00C         	goto	u6040
  3279  001800                     u6041:
  3280  001800  EF50  F00C         	goto	l2996
  3281  001804                     u6040:
  3282  001804                     
  3283                           ;hachiko_0.c: 495:             velocidade = 10*600/100;
  3284  001804  0E00               	movlw	0
  3285  001806  6E1B               	movwf	(_velocidade+1)^0,c
  3286  001808  0E3C               	movlw	60
  3287  00180A  6E1A               	movwf	_velocidade^0,c
  3288  00180C                     
  3289                           ;hachiko_0.c: 496:             PORTBbits.RB6 = 1;
  3290  00180C  8C81               	bsf	129,6,c	;volatile
  3291  00180E                     
  3292                           ;hachiko_0.c: 497:             PORTBbits.RB7 = 1;
  3293  00180E  8E81               	bsf	129,7,c	;volatile
  3294  001810                     l2976:
  3295                           
  3296                           ;hachiko_0.c: 499:                 if(acao == "frente"){
  3297  001810  0E2D               	movlw	low STR_12
  3298  001812  181C               	xorwf	_acao^0,w,c
  3299  001814  E107               	bnz	u6051
  3300  001816  0E03               	movlw	high STR_12
  3301  001818  181D               	xorwf	(_acao+1)^0,w,c
  3302  00181A  A4D8               	btfss	status,2,c
  3303  00181C  EF12  F00C         	goto	u6051
  3304  001820  EF14  F00C         	goto	u6050
  3305  001824                     u6051:
  3306  001824  EF26  F00C         	goto	l2984
  3307  001828                     u6050:
  3308  001828                     
  3309                           ;hachiko_0.c: 500:                     PDC0L = velocidade & 0xFF;
  3310  001828  C01A  FF79         	movff	_velocidade,3961	;volatile
  3311  00182C                     
  3312                           ;hachiko_0.c: 501:                     PDC0H = (velocidade >> 8) & 0xFF;
  3313  00182C  501B               	movf	(_velocidade+1)^0,w,c
  3314  00182E  6E78               	movwf	120,c	;volatile
  3315                           
  3316                           ;hachiko_0.c: 502:                     PDC3L = 0x00;
  3317  001830  0E00               	movlw	0
  3318  001832  6E73               	movwf	115,c	;volatile
  3319                           
  3320                           ;hachiko_0.c: 503:                     PDC3H = 0x00;
  3321  001834  0E00               	movlw	0
  3322  001836  6E72               	movwf	114,c	;volatile
  3323  001838                     
  3324                           ;hachiko_0.c: 505:                     PDC1L = velocidade & 0xFF;
  3325  001838  C01A  FF77         	movff	_velocidade,3959	;volatile
  3326                           
  3327                           ;hachiko_0.c: 506:                     PDC1H = (velocidade >> 8) & 0xFF;
  3328  00183C  501B               	movf	(_velocidade+1)^0,w,c
  3329  00183E  6E76               	movwf	118,c	;volatile
  3330                           
  3331                           ;hachiko_0.c: 507:                     PDC2L = 0x00;
  3332  001840  0E00               	movlw	0
  3333  001842  6E75               	movwf	117,c	;volatile
  3334                           
  3335                           ;hachiko_0.c: 508:                     PDC2H = 0x00;
  3336  001844  0E00               	movlw	0
  3337  001846  6E74               	movwf	116,c	;volatile
  3338                           
  3339                           ;hachiko_0.c: 515:                 }
  3340  001848  EF42  F00C         	goto	l2992
  3341  00184C                     l2984:
  3342  00184C  0E5D               	movlw	low STR_13
  3343  00184E  181C               	xorwf	_acao^0,w,c
  3344  001850  E107               	bnz	u6061
  3345  001852  0E03               	movlw	high STR_13
  3346  001854  181D               	xorwf	(_acao+1)^0,w,c
  3347  001856  A4D8               	btfss	status,2,c
  3348  001858  EF30  F00C         	goto	u6061
  3349  00185C  EF32  F00C         	goto	u6060
  3350  001860                     u6061:
  3351  001860  EF42  F00C         	goto	l2992
  3352  001864                     u6060:
  3353  001864                     
  3354                           ;hachiko_0.c: 517:                     PDC0L = 0x00;
  3355  001864  0E00               	movlw	0
  3356  001866  6E79               	movwf	121,c	;volatile
  3357                           
  3358                           ;hachiko_0.c: 518:                     PDC0H = 0x00;
  3359  001868  0E00               	movlw	0
  3360  00186A  6E78               	movwf	120,c	;volatile
  3361  00186C                     
  3362                           ;hachiko_0.c: 519:                     PDC3L = velocidade & 0xFF;
  3363  00186C  C01A  FF73         	movff	_velocidade,3955	;volatile
  3364                           
  3365                           ;hachiko_0.c: 520:                     PDC3H = (velocidade >> 8) & 0xFF;
  3366  001870  501B               	movf	(_velocidade+1)^0,w,c
  3367  001872  6E72               	movwf	114,c	;volatile
  3368                           
  3369                           ;hachiko_0.c: 522:                     PDC1L = 0x00;
  3370  001874  0E00               	movlw	0
  3371  001876  6E77               	movwf	119,c	;volatile
  3372                           
  3373                           ;hachiko_0.c: 523:                     PDC1H = 0x00;
  3374  001878  0E00               	movlw	0
  3375  00187A  6E76               	movwf	118,c	;volatile
  3376  00187C                     
  3377                           ;hachiko_0.c: 524:                     PDC2L = velocidade & 0xFF;
  3378  00187C  C01A  FF75         	movff	_velocidade,3957	;volatile
  3379                           
  3380                           ;hachiko_0.c: 525:                     PDC2H = (velocidade >> 8) & 0xFF;
  3381  001880  501B               	movf	(_velocidade+1)^0,w,c
  3382  001882  6E74               	movwf	116,c	;volatile
  3383  001884                     l2992:
  3384                           
  3385                           ;hachiko_0.c: 533:                 if(acao == "parar"){
  3386  001884  0E47               	movlw	low STR_15
  3387  001886  181C               	xorwf	_acao^0,w,c
  3388  001888  E107               	bnz	u6071
  3389  00188A  0E03               	movlw	high STR_15
  3390  00188C  181D               	xorwf	(_acao+1)^0,w,c
  3391  00188E  A4D8               	btfss	status,2,c
  3392  001890  EF4C  F00C         	goto	u6071
  3393  001894  EF4E  F00C         	goto	u6070
  3394  001898                     u6071:
  3395  001898  EF08  F00C         	goto	l2976
  3396  00189C                     u6070:
  3397  00189C                     
  3398                           ;hachiko_0.c: 534:                     pararMotor();
  3399  00189C  ECAA  F011         	call	_pararMotor	;wreg free
  3400  0018A0                     l2996:
  3401                           
  3402                           ;hachiko_0.c: 540:         if(acao == "teste"){
  3403  0018A0  0E41               	movlw	low STR_7
  3404  0018A2  181C               	xorwf	_acao^0,w,c
  3405  0018A4  E107               	bnz	u6081
  3406  0018A6  0E03               	movlw	high STR_7
  3407  0018A8  181D               	xorwf	(_acao+1)^0,w,c
  3408  0018AA  A4D8               	btfss	status,2,c
  3409  0018AC  EF5A  F00C         	goto	u6081
  3410  0018B0  EF5C  F00C         	goto	u6080
  3411  0018B4                     u6081:
  3412  0018B4  EFBF  F00C         	goto	l3016
  3413  0018B8                     u6080:
  3414  0018B8                     
  3415                           ;hachiko_0.c: 542:             PORTBbits.RB7 = 1;
  3416  0018B8  8E81               	bsf	129,7,c	;volatile
  3417                           
  3418                           ;hachiko_0.c: 543:             PORTBbits.RB6 = 1;
  3419  0018BA  8C81               	bsf	129,6,c	;volatile
  3420  0018BC                     
  3421                           ;hachiko_0.c: 559:             moverMotor('d','f',80);
  3422  0018BC  0E66               	movlw	102
  3423  0018BE  6E08               	movwf	moverMotor@sentido^0,c
  3424  0018C0  0E00               	movlw	0
  3425  0018C2  6E0A               	movwf	(moverMotor@velocidade+1)^0,c
  3426  0018C4  0E50               	movlw	80
  3427  0018C6  6E09               	movwf	moverMotor@velocidade^0,c
  3428  0018C8  0E64               	movlw	100
  3429  0018CA  ECDF  F010         	call	_moverMotor
  3430                           
  3431                           ;hachiko_0.c: 560:             moverMotor('e','f',80);
  3432  0018CE  0E66               	movlw	102
  3433  0018D0  6E08               	movwf	moverMotor@sentido^0,c
  3434  0018D2  0E00               	movlw	0
  3435  0018D4  6E0A               	movwf	(moverMotor@velocidade+1)^0,c
  3436  0018D6  0E50               	movlw	80
  3437  0018D8  6E09               	movwf	moverMotor@velocidade^0,c
  3438  0018DA  0E65               	movlw	101
  3439  0018DC  ECDF  F010         	call	_moverMotor
  3440  0018E0                     
  3441                           ;hachiko_0.c: 561:             _delay((unsigned long)((500)*(20000000/4000.0)));
  3442  0018E0  0E0D               	movlw	13
  3443  0018E2  6E11               	movwf	(??_main+1)^0,c
  3444  0018E4  0EAF               	movlw	175
  3445  0018E6  6E10               	movwf	??_main^0,c
  3446  0018E8  0EB6               	movlw	182
  3447  0018EA                     u6197:
  3448  0018EA  2EE8               	decfsz	wreg,f,c
  3449  0018EC  D7FE               	bra	u6197
  3450  0018EE  2E10               	decfsz	??_main^0,f,c
  3451  0018F0  D7FC               	bra	u6197
  3452  0018F2  2E11               	decfsz	(??_main+1)^0,f,c
  3453  0018F4  D7FA               	bra	u6197
  3454  0018F6  F000 F000          	nop2	
  3455  0018FA                     
  3456                           ;hachiko_0.c: 563:             moverMotor('d','f',0);
  3457  0018FA  0E66               	movlw	102
  3458  0018FC  6E08               	movwf	moverMotor@sentido^0,c
  3459  0018FE  0E00               	movlw	0
  3460  001900  6E0A               	movwf	(moverMotor@velocidade+1)^0,c
  3461  001902  0E00               	movlw	0
  3462  001904  6E09               	movwf	moverMotor@velocidade^0,c
  3463  001906  0E64               	movlw	100
  3464  001908  ECDF  F010         	call	_moverMotor
  3465  00190C                     
  3466                           ;hachiko_0.c: 564:             moverMotor('e','f',0);
  3467  00190C  0E66               	movlw	102
  3468  00190E  6E08               	movwf	moverMotor@sentido^0,c
  3469  001910  0E00               	movlw	0
  3470  001912  6E0A               	movwf	(moverMotor@velocidade+1)^0,c
  3471  001914  0E00               	movlw	0
  3472  001916  6E09               	movwf	moverMotor@velocidade^0,c
  3473  001918  0E65               	movlw	101
  3474  00191A  ECDF  F010         	call	_moverMotor
  3475  00191E                     
  3476                           ;hachiko_0.c: 565:             _delay((unsigned long)((2000)*(20000000/4000.0)));
  3477  00191E  0E33               	movlw	51
  3478  001920  6E11               	movwf	(??_main+1)^0,c
  3479  001922  0EBB               	movlw	187
  3480  001924  6E10               	movwf	??_main^0,c
  3481  001926  0EE0               	movlw	224
  3482  001928                     u6207:
  3483  001928  2EE8               	decfsz	wreg,f,c
  3484  00192A  D7FE               	bra	u6207
  3485  00192C  2E10               	decfsz	??_main^0,f,c
  3486  00192E  D7FC               	bra	u6207
  3487  001930  2E11               	decfsz	(??_main+1)^0,f,c
  3488  001932  D7FA               	bra	u6207
  3489                           
  3490                           ;hachiko_0.c: 566:             moverMotor('d','t',80);
  3491  001934  0E74               	movlw	116
  3492  001936  6E08               	movwf	moverMotor@sentido^0,c
  3493  001938  0E00               	movlw	0
  3494  00193A  6E0A               	movwf	(moverMotor@velocidade+1)^0,c
  3495  00193C  0E50               	movlw	80
  3496  00193E  6E09               	movwf	moverMotor@velocidade^0,c
  3497  001940  0E64               	movlw	100
  3498  001942  ECDF  F010         	call	_moverMotor
  3499                           
  3500                           ;hachiko_0.c: 567:             moverMotor('e','t',80);
  3501  001946  0E74               	movlw	116
  3502  001948  6E08               	movwf	moverMotor@sentido^0,c
  3503  00194A  0E00               	movlw	0
  3504  00194C  6E0A               	movwf	(moverMotor@velocidade+1)^0,c
  3505  00194E  0E50               	movlw	80
  3506  001950  6E09               	movwf	moverMotor@velocidade^0,c
  3507  001952  0E65               	movlw	101
  3508  001954  ECDF  F010         	call	_moverMotor
  3509  001958                     
  3510                           ;hachiko_0.c: 568:             _delay((unsigned long)((500)*(20000000/4000.0)));
  3511  001958  0E0D               	movlw	13
  3512  00195A  6E11               	movwf	(??_main+1)^0,c
  3513  00195C  0EAF               	movlw	175
  3514  00195E  6E10               	movwf	??_main^0,c
  3515  001960  0EB6               	movlw	182
  3516  001962                     u6217:
  3517  001962  2EE8               	decfsz	wreg,f,c
  3518  001964  D7FE               	bra	u6217
  3519  001966  2E10               	decfsz	??_main^0,f,c
  3520  001968  D7FC               	bra	u6217
  3521  00196A  2E11               	decfsz	(??_main+1)^0,f,c
  3522  00196C  D7FA               	bra	u6217
  3523  00196E  F000 F000          	nop2	
  3524  001972                     
  3525                           ;hachiko_0.c: 569:             pararMotor();
  3526  001972  ECAA  F011         	call	_pararMotor	;wreg free
  3527  001976                     
  3528                           ;hachiko_0.c: 570:             acao = ' ';
  3529  001976  0E20               	movlw	32
  3530  001978  6E1C               	movwf	_acao^0,c
  3531  00197A  0E00               	movlw	0
  3532  00197C  6E1D               	movwf	(_acao+1)^0,c
  3533  00197E                     l3016:
  3534                           
  3535                           ;hachiko_0.c: 574:         if(acao == "gd"){
  3536  00197E  0E62               	movlw	low STR_8
  3537  001980  181C               	xorwf	_acao^0,w,c
  3538  001982  E107               	bnz	u6091
  3539  001984  0E03               	movlw	high STR_8
  3540  001986  181D               	xorwf	(_acao+1)^0,w,c
  3541  001988  A4D8               	btfss	status,2,c
  3542  00198A  EFC9  F00C         	goto	u6091
  3543  00198E  EFCB  F00C         	goto	u6090
  3544  001992                     u6091:
  3545  001992  EFEE  F00C         	goto	l3026
  3546  001996                     u6090:
  3547  001996                     
  3548                           ;hachiko_0.c: 575:             moverMotor('e','f',60);
  3549  001996  0E66               	movlw	102
  3550  001998  6E08               	movwf	moverMotor@sentido^0,c
  3551  00199A  0E00               	movlw	0
  3552  00199C  6E0A               	movwf	(moverMotor@velocidade+1)^0,c
  3553  00199E  0E3C               	movlw	60
  3554  0019A0  6E09               	movwf	moverMotor@velocidade^0,c
  3555  0019A2  0E65               	movlw	101
  3556  0019A4  ECDF  F010         	call	_moverMotor
  3557                           
  3558                           ;hachiko_0.c: 576:             moverMotor('d','t',60);
  3559  0019A8  0E74               	movlw	116
  3560  0019AA  6E08               	movwf	moverMotor@sentido^0,c
  3561  0019AC  0E00               	movlw	0
  3562  0019AE  6E0A               	movwf	(moverMotor@velocidade+1)^0,c
  3563  0019B0  0E3C               	movlw	60
  3564  0019B2  6E09               	movwf	moverMotor@velocidade^0,c
  3565  0019B4  0E64               	movlw	100
  3566  0019B6  ECDF  F010         	call	_moverMotor
  3567  0019BA                     
  3568                           ;hachiko_0.c: 577:             _delay((unsigned long)((300)*(20000000/4000.0)));
  3569  0019BA  0E08               	movlw	8
  3570  0019BC  6E11               	movwf	(??_main+1)^0,c
  3571  0019BE  0E9D               	movlw	157
  3572  0019C0  6E10               	movwf	??_main^0,c
  3573  0019C2  0E06               	movlw	6
  3574  0019C4                     u6227:
  3575  0019C4  2EE8               	decfsz	wreg,f,c
  3576  0019C6  D7FE               	bra	u6227
  3577  0019C8  2E10               	decfsz	??_main^0,f,c
  3578  0019CA  D7FC               	bra	u6227
  3579  0019CC  2E11               	decfsz	(??_main+1)^0,f,c
  3580  0019CE  D7FA               	bra	u6227
  3581  0019D0                     
  3582                           ;hachiko_0.c: 578:             pararMotor();
  3583  0019D0  ECAA  F011         	call	_pararMotor	;wreg free
  3584  0019D4                     
  3585                           ;hachiko_0.c: 579:             acao = ' ';
  3586  0019D4  0E20               	movlw	32
  3587  0019D6  6E1C               	movwf	_acao^0,c
  3588  0019D8  0E00               	movlw	0
  3589  0019DA  6E1D               	movwf	(_acao+1)^0,c
  3590  0019DC                     l3026:
  3591                           
  3592                           ;hachiko_0.c: 583:         if(acao == "ge"){
  3593  0019DC  0E65               	movlw	low STR_9
  3594  0019DE  181C               	xorwf	_acao^0,w,c
  3595  0019E0  E107               	bnz	u6101
  3596  0019E2  0E03               	movlw	high STR_9
  3597  0019E4  181D               	xorwf	(_acao+1)^0,w,c
  3598  0019E6  A4D8               	btfss	status,2,c
  3599  0019E8  EFF8  F00C         	goto	u6101
  3600  0019EC  EFFA  F00C         	goto	u6100
  3601  0019F0                     u6101:
  3602  0019F0  EF1D  F00D         	goto	l3036
  3603  0019F4                     u6100:
  3604  0019F4                     
  3605                           ;hachiko_0.c: 584:             moverMotor('e','t',60);
  3606  0019F4  0E74               	movlw	116
  3607  0019F6  6E08               	movwf	moverMotor@sentido^0,c
  3608  0019F8  0E00               	movlw	0
  3609  0019FA  6E0A               	movwf	(moverMotor@velocidade+1)^0,c
  3610  0019FC  0E3C               	movlw	60
  3611  0019FE  6E09               	movwf	moverMotor@velocidade^0,c
  3612  001A00  0E65               	movlw	101
  3613  001A02  ECDF  F010         	call	_moverMotor
  3614                           
  3615                           ;hachiko_0.c: 585:             moverMotor('d','f',60);
  3616  001A06  0E66               	movlw	102
  3617  001A08  6E08               	movwf	moverMotor@sentido^0,c
  3618  001A0A  0E00               	movlw	0
  3619  001A0C  6E0A               	movwf	(moverMotor@velocidade+1)^0,c
  3620  001A0E  0E3C               	movlw	60
  3621  001A10  6E09               	movwf	moverMotor@velocidade^0,c
  3622  001A12  0E64               	movlw	100
  3623  001A14  ECDF  F010         	call	_moverMotor
  3624  001A18                     
  3625                           ;hachiko_0.c: 586:             _delay((unsigned long)((300)*(20000000/4000.0)));
  3626  001A18  0E08               	movlw	8
  3627  001A1A  6E11               	movwf	(??_main+1)^0,c
  3628  001A1C  0E9D               	movlw	157
  3629  001A1E  6E10               	movwf	??_main^0,c
  3630  001A20  0E06               	movlw	6
  3631  001A22                     u6237:
  3632  001A22  2EE8               	decfsz	wreg,f,c
  3633  001A24  D7FE               	bra	u6237
  3634  001A26  2E10               	decfsz	??_main^0,f,c
  3635  001A28  D7FC               	bra	u6237
  3636  001A2A  2E11               	decfsz	(??_main+1)^0,f,c
  3637  001A2C  D7FA               	bra	u6237
  3638  001A2E                     
  3639                           ;hachiko_0.c: 587:             pararMotor();
  3640  001A2E  ECAA  F011         	call	_pararMotor	;wreg free
  3641  001A32                     
  3642                           ;hachiko_0.c: 588:             acao = ' ';
  3643  001A32  0E20               	movlw	32
  3644  001A34  6E1C               	movwf	_acao^0,c
  3645  001A36  0E00               	movlw	0
  3646  001A38  6E1D               	movwf	(_acao+1)^0,c
  3647  001A3A                     l3036:
  3648                           
  3649                           ;hachiko_0.c: 592:         if(!PORTAbits.RA2){
  3650  001A3A  B480               	btfsc	128,2,c	;volatile
  3651  001A3C  EF22  F00D         	goto	u6111
  3652  001A40  EF24  F00D         	goto	u6110
  3653  001A44                     u6111:
  3654  001A44  EF32  F00D         	goto	l3042
  3655  001A48                     u6110:
  3656  001A48                     
  3657                           ;hachiko_0.c: 593:             _delay((unsigned long)((100)*(20000000/4000.0)));
  3658  001A48  0E03               	movlw	3
  3659  001A4A  6E11               	movwf	(??_main+1)^0,c
  3660  001A4C  0E8A               	movlw	138
  3661  001A4E  6E10               	movwf	??_main^0,c
  3662  001A50  0E56               	movlw	86
  3663  001A52                     u6247:
  3664  001A52  2EE8               	decfsz	wreg,f,c
  3665  001A54  D7FE               	bra	u6247
  3666  001A56  2E10               	decfsz	??_main^0,f,c
  3667  001A58  D7FC               	bra	u6247
  3668  001A5A  2E11               	decfsz	(??_main+1)^0,f,c
  3669  001A5C  D7FA               	bra	u6247
  3670  001A5E                     
  3671                           ;hachiko_0.c: 594:             picUSART('0');
  3672  001A5E  0E30               	movlw	48
  3673  001A60  ECF2  F011         	call	_picUSART
  3674  001A64                     l3042:
  3675                           
  3676                           ;hachiko_0.c: 596:         if(!PORTAbits.RA3){
  3677  001A64  B680               	btfsc	128,3,c	;volatile
  3678  001A66  EF37  F00D         	goto	u6121
  3679  001A6A  EF39  F00D         	goto	u6120
  3680  001A6E                     u6121:
  3681  001A6E  EF47  F00D         	goto	l3048
  3682  001A72                     u6120:
  3683  001A72                     
  3684                           ;hachiko_0.c: 597:             _delay((unsigned long)((100)*(20000000/4000.0)));
  3685  001A72  0E03               	movlw	3
  3686  001A74  6E11               	movwf	(??_main+1)^0,c
  3687  001A76  0E8A               	movlw	138
  3688  001A78  6E10               	movwf	??_main^0,c
  3689  001A7A  0E56               	movlw	86
  3690  001A7C                     u6257:
  3691  001A7C  2EE8               	decfsz	wreg,f,c
  3692  001A7E  D7FE               	bra	u6257
  3693  001A80  2E10               	decfsz	??_main^0,f,c
  3694  001A82  D7FC               	bra	u6257
  3695  001A84  2E11               	decfsz	(??_main+1)^0,f,c
  3696  001A86  D7FA               	bra	u6257
  3697  001A88                     
  3698                           ;hachiko_0.c: 598:             picUSART('1');
  3699  001A88  0E31               	movlw	49
  3700  001A8A  ECF2  F011         	call	_picUSART
  3701  001A8E                     l3048:
  3702                           
  3703                           ;hachiko_0.c: 600:         if(!PORTCbits.RC0){
  3704  001A8E  B082               	btfsc	130,0,c	;volatile
  3705  001A90  EF4C  F00D         	goto	u6131
  3706  001A94  EF4E  F00D         	goto	u6130
  3707  001A98                     u6131:
  3708  001A98  EF5C  F00D         	goto	l3054
  3709  001A9C                     u6130:
  3710  001A9C                     
  3711                           ;hachiko_0.c: 601:             _delay((unsigned long)((100)*(20000000/4000.0)));
  3712  001A9C  0E03               	movlw	3
  3713  001A9E  6E11               	movwf	(??_main+1)^0,c
  3714  001AA0  0E8A               	movlw	138
  3715  001AA2  6E10               	movwf	??_main^0,c
  3716  001AA4  0E56               	movlw	86
  3717  001AA6                     u6267:
  3718  001AA6  2EE8               	decfsz	wreg,f,c
  3719  001AA8  D7FE               	bra	u6267
  3720  001AAA  2E10               	decfsz	??_main^0,f,c
  3721  001AAC  D7FC               	bra	u6267
  3722  001AAE  2E11               	decfsz	(??_main+1)^0,f,c
  3723  001AB0  D7FA               	bra	u6267
  3724  001AB2                     
  3725                           ;hachiko_0.c: 602:             picUSART('2');
  3726  001AB2  0E32               	movlw	50
  3727  001AB4  ECF2  F011         	call	_picUSART
  3728  001AB8                     l3054:
  3729                           
  3730                           ;hachiko_0.c: 604:         if(!PORTAbits.RA4){
  3731  001AB8  B880               	btfsc	128,4,c	;volatile
  3732  001ABA  EF61  F00D         	goto	u6141
  3733  001ABE  EF63  F00D         	goto	u6140
  3734  001AC2                     u6141:
  3735  001AC2  EF71  F00D         	goto	l3060
  3736  001AC6                     u6140:
  3737  001AC6                     
  3738                           ;hachiko_0.c: 605:             _delay((unsigned long)((100)*(20000000/4000.0)));
  3739  001AC6  0E03               	movlw	3
  3740  001AC8  6E11               	movwf	(??_main+1)^0,c
  3741  001ACA  0E8A               	movlw	138
  3742  001ACC  6E10               	movwf	??_main^0,c
  3743  001ACE  0E56               	movlw	86
  3744  001AD0                     u6277:
  3745  001AD0  2EE8               	decfsz	wreg,f,c
  3746  001AD2  D7FE               	bra	u6277
  3747  001AD4  2E10               	decfsz	??_main^0,f,c
  3748  001AD6  D7FC               	bra	u6277
  3749  001AD8  2E11               	decfsz	(??_main+1)^0,f,c
  3750  001ADA  D7FA               	bra	u6277
  3751  001ADC                     
  3752                           ;hachiko_0.c: 606:             picUSART('3');
  3753  001ADC  0E33               	movlw	51
  3754  001ADE  ECF2  F011         	call	_picUSART
  3755  001AE2                     l3060:
  3756                           
  3757                           ;hachiko_0.c: 608:         if(!PORTAbits.RA1){
  3758  001AE2  B280               	btfsc	128,1,c	;volatile
  3759  001AE4  EF76  F00D         	goto	u6151
  3760  001AE8  EF78  F00D         	goto	u6150
  3761  001AEC                     u6151:
  3762  001AEC  EFD3  F001         	goto	l2426
  3763  001AF0                     u6150:
  3764  001AF0                     
  3765                           ;hachiko_0.c: 609:             _delay((unsigned long)((100)*(20000000/4000.0)));
  3766  001AF0  0E03               	movlw	3
  3767  001AF2  6E11               	movwf	(??_main+1)^0,c
  3768  001AF4  0E8A               	movlw	138
  3769  001AF6  6E10               	movwf	??_main^0,c
  3770  001AF8  0E56               	movlw	86
  3771  001AFA                     u6287:
  3772  001AFA  2EE8               	decfsz	wreg,f,c
  3773  001AFC  D7FE               	bra	u6287
  3774  001AFE  2E10               	decfsz	??_main^0,f,c
  3775  001B00  D7FC               	bra	u6287
  3776  001B02  2E11               	decfsz	(??_main+1)^0,f,c
  3777  001B04  D7FA               	bra	u6287
  3778  001B06                     
  3779                           ;hachiko_0.c: 610:             picUSART('4');
  3780  001B06  0E34               	movlw	52
  3781  001B08  ECF2  F011         	call	_picUSART
  3782  001B0C  EFD3  F001         	goto	l2426
  3783  001B10  EF3B  F001         	goto	start
  3784  001B14                     __end_of_main:
  3785                           	callstack 0
  3786                           
  3787 ;; *************** function _testarLinha *****************
  3788 ;; Defined at:
  3789 ;;		line 742 in file "hachiko_0.c"
  3790 ;; Parameters:    Size  Location     Type
  3791 ;;		None
  3792 ;; Auto vars:     Size  Location     Type
  3793 ;;  velTest         2    0        int 
  3794 ;; Return value:  Size  Location     Type
  3795 ;;                  1    wreg      void 
  3796 ;; Registers used:
  3797 ;;		wreg, status,2, status,0, prodl, prodh, cstack
  3798 ;; Tracked objects:
  3799 ;;		On entry : 0/0
  3800 ;;		On exit  : 0/0
  3801 ;;		Unchanged: 0/0
  3802 ;; Data sizes:     COMRAM   BANK0   BANK1   BANK2
  3803 ;;      Params:         0       0       0       0
  3804 ;;      Locals:         0       0       0       0
  3805 ;;      Temps:          2       0       0       0
  3806 ;;      Totals:         2       0       0       0
  3807 ;;Total ram usage:        2 bytes
  3808 ;; Hardware stack levels used: 1
  3809 ;; Hardware stack levels required when called: 4
  3810 ;; This function calls:
  3811 ;;		_moverMotor
  3812 ;;		_pararMotor
  3813 ;; This function is called by:
  3814 ;;		_main
  3815 ;; This function uses a non-reentrant model
  3816 ;;
  3817                           
  3818                           	psect	text1
  3819  001F00                     __ptext1:
  3820                           	callstack 0
  3821  001F00                     _testarLinha:
  3822                           	callstack 26
  3823  001F00                     
  3824                           ;hachiko_0.c: 744:     if(PORTCbits.RC3 && PORTCbits.RC4){
  3825  001F00  A682               	btfss	130,3,c	;volatile
  3826  001F02  EF85  F00F         	goto	u3761
  3827  001F06  EF87  F00F         	goto	u3760
  3828  001F0A                     u3761:
  3829  001F0A  EFA2  F00F         	goto	l406
  3830  001F0E                     u3760:
  3831  001F0E  A882               	btfss	130,4,c	;volatile
  3832  001F10  EF8C  F00F         	goto	u3771
  3833  001F14  EF8E  F00F         	goto	u3770
  3834  001F18                     u3771:
  3835  001F18  EFA2  F00F         	goto	l406
  3836  001F1C                     u3770:
  3837  001F1C                     
  3838                           ;hachiko_0.c: 745:         moverMotor('d','f',velTest);
  3839  001F1C  0E66               	movlw	102
  3840  001F1E  6E08               	movwf	moverMotor@sentido^0,c
  3841  001F20  0E00               	movlw	0
  3842  001F22  6E0A               	movwf	(moverMotor@velocidade+1)^0,c
  3843  001F24  0E14               	movlw	20
  3844  001F26  6E09               	movwf	moverMotor@velocidade^0,c
  3845  001F28  0E64               	movlw	100
  3846  001F2A  ECDF  F010         	call	_moverMotor
  3847                           
  3848                           ;hachiko_0.c: 746:         moverMotor('e','f',velTest);
  3849  001F2E  0E66               	movlw	102
  3850  001F30  6E08               	movwf	moverMotor@sentido^0,c
  3851  001F32  0E00               	movlw	0
  3852  001F34  6E0A               	movwf	(moverMotor@velocidade+1)^0,c
  3853  001F36  0E14               	movlw	20
  3854  001F38  6E09               	movwf	moverMotor@velocidade^0,c
  3855  001F3A  0E65               	movlw	101
  3856  001F3C  ECDF  F010         	call	_moverMotor
  3857                           
  3858                           ;hachiko_0.c: 748:     }
  3859  001F40  EF3B  F010         	goto	l413
  3860  001F44                     l406:
  3861  001F44  A682               	btfss	130,3,c	;volatile
  3862  001F46  EFA7  F00F         	goto	u3781
  3863  001F4A  EFA9  F00F         	goto	u3780
  3864  001F4E                     u3781:
  3865  001F4E  EFCF  F00F         	goto	l408
  3866  001F52                     u3780:
  3867  001F52  B882               	btfsc	130,4,c	;volatile
  3868  001F54  EFAE  F00F         	goto	u3791
  3869  001F58  EFB0  F00F         	goto	u3790
  3870  001F5C                     u3791:
  3871  001F5C  EFCF  F00F         	goto	l408
  3872  001F60                     u3790:
  3873  001F60                     
  3874                           ;hachiko_0.c: 750:         moverMotor('d','f',velTest);
  3875  001F60  0E66               	movlw	102
  3876  001F62  6E08               	movwf	moverMotor@sentido^0,c
  3877  001F64  0E00               	movlw	0
  3878  001F66  6E0A               	movwf	(moverMotor@velocidade+1)^0,c
  3879  001F68  0E14               	movlw	20
  3880  001F6A  6E09               	movwf	moverMotor@velocidade^0,c
  3881  001F6C  0E64               	movlw	100
  3882  001F6E  ECDF  F010         	call	_moverMotor
  3883                           
  3884                           ;hachiko_0.c: 751:         moverMotor('e','t',velTest);
  3885  001F72  0E74               	movlw	116
  3886  001F74  6E08               	movwf	moverMotor@sentido^0,c
  3887  001F76  0E00               	movlw	0
  3888  001F78  6E0A               	movwf	(moverMotor@velocidade+1)^0,c
  3889  001F7A  0E14               	movlw	20
  3890  001F7C  6E09               	movwf	moverMotor@velocidade^0,c
  3891  001F7E  0E65               	movlw	101
  3892  001F80  ECDF  F010         	call	_moverMotor
  3893  001F84                     l2356:
  3894                           
  3895                           ;hachiko_0.c: 752:         _delay((unsigned long)((100)*(20000000/4000.0)));
  3896  001F84  0E03               	movlw	3
  3897  001F86  6E0D               	movwf	(??_testarLinha+1)^0,c
  3898  001F88  0E8A               	movlw	138
  3899  001F8A  6E0C               	movwf	??_testarLinha^0,c
  3900  001F8C  0E56               	movlw	86
  3901  001F8E                     u6297:
  3902  001F8E  2EE8               	decfsz	wreg,f,c
  3903  001F90  D7FE               	bra	u6297
  3904  001F92  2E0C               	decfsz	??_testarLinha^0,f,c
  3905  001F94  D7FC               	bra	u6297
  3906  001F96  2E0D               	decfsz	(??_testarLinha+1)^0,f,c
  3907  001F98  D7FA               	bra	u6297
  3908                           
  3909                           ;hachiko_0.c: 754:     }
  3910  001F9A  EF3B  F010         	goto	l413
  3911  001F9E                     l408:
  3912  001F9E  B682               	btfsc	130,3,c	;volatile
  3913  001FA0  EFD4  F00F         	goto	u3801
  3914  001FA4  EFD6  F00F         	goto	u3800
  3915  001FA8                     u3801:
  3916  001FA8  EFF1  F00F         	goto	l410
  3917  001FAC                     u3800:
  3918  001FAC  A882               	btfss	130,4,c	;volatile
  3919  001FAE  EFDB  F00F         	goto	u3811
  3920  001FB2  EFDD  F00F         	goto	u3810
  3921  001FB6                     u3811:
  3922  001FB6  EFF1  F00F         	goto	l410
  3923  001FBA                     u3810:
  3924  001FBA                     
  3925                           ;hachiko_0.c: 756:         moverMotor('d','t',velTest);
  3926  001FBA  0E74               	movlw	116
  3927  001FBC  6E08               	movwf	moverMotor@sentido^0,c
  3928  001FBE  0E00               	movlw	0
  3929  001FC0  6E0A               	movwf	(moverMotor@velocidade+1)^0,c
  3930  001FC2  0E14               	movlw	20
  3931  001FC4  6E09               	movwf	moverMotor@velocidade^0,c
  3932  001FC6  0E64               	movlw	100
  3933  001FC8  ECDF  F010         	call	_moverMotor
  3934                           
  3935                           ;hachiko_0.c: 757:         moverMotor('e','f',velTest);
  3936  001FCC  0E66               	movlw	102
  3937  001FCE  6E08               	movwf	moverMotor@sentido^0,c
  3938  001FD0  0E00               	movlw	0
  3939  001FD2  6E0A               	movwf	(moverMotor@velocidade+1)^0,c
  3940  001FD4  0E14               	movlw	20
  3941  001FD6  6E09               	movwf	moverMotor@velocidade^0,c
  3942  001FD8  0E65               	movlw	101
  3943  001FDA  ECDF  F010         	call	_moverMotor
  3944  001FDE  EFC2  F00F         	goto	l2356
  3945  001FE2                     l410:
  3946  001FE2  B682               	btfsc	130,3,c	;volatile
  3947  001FE4  EFF6  F00F         	goto	u3821
  3948  001FE8  EFF8  F00F         	goto	u3820
  3949  001FEC                     u3821:
  3950  001FEC  EF3B  F010         	goto	l409
  3951  001FF0                     u3820:
  3952  001FF0  B882               	btfsc	130,4,c	;volatile
  3953  001FF2  EFFD  F00F         	goto	u3831
  3954  001FF6  EFFF  F00F         	goto	u3830
  3955  001FFA                     u3831:
  3956  001FFA  EF3B  F010         	goto	l409
  3957  001FFE                     u3830:
  3958  001FFE                     
  3959                           ;hachiko_0.c: 762:         moverMotor('d','t',velTest);
  3960  001FFE  0E74               	movlw	116
  3961  002000  6E08               	movwf	moverMotor@sentido^0,c
  3962  002002  0E00               	movlw	0
  3963  002004  6E0A               	movwf	(moverMotor@velocidade+1)^0,c
  3964  002006  0E14               	movlw	20
  3965  002008  6E09               	movwf	moverMotor@velocidade^0,c
  3966  00200A  0E64               	movlw	100
  3967  00200C  ECDF  F010         	call	_moverMotor
  3968                           
  3969                           ;hachiko_0.c: 763:         moverMotor('e','t',velTest);
  3970  002010  0E74               	movlw	116
  3971  002012  6E08               	movwf	moverMotor@sentido^0,c
  3972  002014  0E00               	movlw	0
  3973  002016  6E0A               	movwf	(moverMotor@velocidade+1)^0,c
  3974  002018  0E14               	movlw	20
  3975  00201A  6E09               	movwf	moverMotor@velocidade^0,c
  3976  00201C  0E65               	movlw	101
  3977  00201E  ECDF  F010         	call	_moverMotor
  3978  002022                     
  3979                           ;hachiko_0.c: 764:         _delay((unsigned long)((50)*(20000000/4000.0)));
  3980  002022  0E02               	movlw	2
  3981  002024  6E0D               	movwf	(??_testarLinha+1)^0,c
  3982  002026  0E45               	movlw	69
  3983  002028  6E0C               	movwf	??_testarLinha^0,c
  3984  00202A  0EAA               	movlw	170
  3985  00202C                     u6307:
  3986  00202C  2EE8               	decfsz	wreg,f,c
  3987  00202E  D7FE               	bra	u6307
  3988  002030  2E0C               	decfsz	??_testarLinha^0,f,c
  3989  002032  D7FC               	bra	u6307
  3990  002034  2E0D               	decfsz	(??_testarLinha+1)^0,f,c
  3991  002036  D7FA               	bra	u6307
  3992  002038                     
  3993                           ;hachiko_0.c: 765:         pararMotor();
  3994  002038  ECAA  F011         	call	_pararMotor	;wreg free
  3995  00203C                     
  3996                           ;hachiko_0.c: 766:         _delay((unsigned long)((10)*(20000000/4000.0)));
  3997  00203C  0E41               	movlw	65
  3998  00203E  6E0C               	movwf	??_testarLinha^0,c
  3999  002040  0EEE               	movlw	238
  4000  002042                     u6317:
  4001  002042  2EE8               	decfsz	wreg,f,c
  4002  002044  D7FE               	bra	u6317
  4003  002046  2E0C               	decfsz	??_testarLinha^0,f,c
  4004  002048  D7FC               	bra	u6317
  4005  00204A  F000 F000          	nop2	
  4006  00204E                     
  4007                           ;hachiko_0.c: 767:         moverMotor('d','f',velTest);
  4008  00204E  0E66               	movlw	102
  4009  002050  6E08               	movwf	moverMotor@sentido^0,c
  4010  002052  0E00               	movlw	0
  4011  002054  6E0A               	movwf	(moverMotor@velocidade+1)^0,c
  4012  002056  0E14               	movlw	20
  4013  002058  6E09               	movwf	moverMotor@velocidade^0,c
  4014  00205A  0E64               	movlw	100
  4015  00205C  ECDF  F010         	call	_moverMotor
  4016  002060                     
  4017                           ;hachiko_0.c: 768:         moverMotor('e','t',velTest);
  4018  002060  0E74               	movlw	116
  4019  002062  6E08               	movwf	moverMotor@sentido^0,c
  4020  002064  0E00               	movlw	0
  4021  002066  6E0A               	movwf	(moverMotor@velocidade+1)^0,c
  4022  002068  0E14               	movlw	20
  4023  00206A  6E09               	movwf	moverMotor@velocidade^0,c
  4024  00206C  0E65               	movlw	101
  4025  00206E  ECDF  F010         	call	_moverMotor
  4026  002072  EF3B  F010         	goto	l413
  4027  002076                     l409:
  4028  002076                     l413:
  4029  002076  0012               	return		;funcret
  4030  002078                     __end_of_testarLinha:
  4031                           	callstack 0
  4032                           
  4033 ;; *************** function _stringUSART *****************
  4034 ;; Defined at:
  4035 ;;		line 48 in file "./bt.h"
  4036 ;; Parameters:    Size  Location     Type
  4037 ;;  frase           2    1[COMRAM] PTR unsigned char 
  4038 ;;		 -> STR_16(5), 
  4039 ;; Auto vars:     Size  Location     Type
  4040 ;;  i               2    5[COMRAM] int 
  4041 ;; Return value:  Size  Location     Type
  4042 ;;                  1    wreg      void 
  4043 ;; Registers used:
  4044 ;;		wreg, status,2, status,0, tblptrl, tblptrh, tblptru, cstack
  4045 ;; Tracked objects:
  4046 ;;		On entry : 0/0
  4047 ;;		On exit  : 0/0
  4048 ;;		Unchanged: 0/0
  4049 ;; Data sizes:     COMRAM   BANK0   BANK1   BANK2
  4050 ;;      Params:         2       0       0       0
  4051 ;;      Locals:         2       0       0       0
  4052 ;;      Temps:          2       0       0       0
  4053 ;;      Totals:         6       0       0       0
  4054 ;;Total ram usage:        6 bytes
  4055 ;; Hardware stack levels used: 1
  4056 ;; Hardware stack levels required when called: 3
  4057 ;; This function calls:
  4058 ;;		_testBuff
  4059 ;; This function is called by:
  4060 ;;		_main
  4061 ;; This function uses a non-reentrant model
  4062 ;;
  4063                           
  4064                           	psect	text2
  4065  00229A                     __ptext2:
  4066                           	callstack 0
  4067  00229A                     _stringUSART:
  4068                           	callstack 27
  4069  00229A                     
  4070                           ;./bt.h: 49:     int i = 0;
  4071  00229A  0E00               	movlw	0
  4072  00229C  6E07               	movwf	(stringUSART@i+1)^0,c
  4073  00229E  0E00               	movlw	0
  4074  0022A0  6E06               	movwf	stringUSART@i^0,c
  4075                           
  4076                           ;./bt.h: 50:     while(frase[i] != '\0'){
  4077  0022A2  EF64  F011         	goto	l2338
  4078  0022A6                     l2332:
  4079                           
  4080                           ;./bt.h: 51:         TXREG = frase[i];
  4081  0022A6  5006               	movf	stringUSART@i^0,w,c
  4082  0022A8  2402               	addwf	stringUSART@frase^0,w,c
  4083  0022AA  6E04               	movwf	??_stringUSART^0,c
  4084  0022AC  5007               	movf	(stringUSART@i+1)^0,w,c
  4085  0022AE  2003               	addwfc	(stringUSART@frase+1)^0,w,c
  4086  0022B0  6E05               	movwf	(??_stringUSART+1)^0,c
  4087  0022B2  C004  FFF6         	movff	??_stringUSART,tblptrl
  4088  0022B6  C005  FFF7         	movff	??_stringUSART+1,tblptrh
  4089  0022BA                     	if	0	;tblptru may be non-zero
  4090  0022BA                     	endif
  4091  0022BA                     	if	0	;tblptru may be non-zero
  4092  0022BA                     	endif
  4093  0022BA  0008               	tblrd		*
  4094  0022BC  CFF5 FFAD          	movff	tablat,4013	;volatile
  4095  0022C0                     
  4096                           ;./bt.h: 52:         testBuff();
  4097  0022C0  EC04  F012         	call	_testBuff	;wreg free
  4098  0022C4                     
  4099                           ;./bt.h: 53:         i++;
  4100  0022C4  4A06               	infsnz	stringUSART@i^0,f,c
  4101  0022C6  2A07               	incf	(stringUSART@i+1)^0,f,c
  4102  0022C8                     l2338:
  4103                           
  4104                           ;./bt.h: 50:     while(frase[i] != '\0'){
  4105  0022C8  5006               	movf	stringUSART@i^0,w,c
  4106  0022CA  2402               	addwf	stringUSART@frase^0,w,c
  4107  0022CC  6E04               	movwf	??_stringUSART^0,c
  4108  0022CE  5007               	movf	(stringUSART@i+1)^0,w,c
  4109  0022D0  2003               	addwfc	(stringUSART@frase+1)^0,w,c
  4110  0022D2  6E05               	movwf	(??_stringUSART+1)^0,c
  4111  0022D4  C004  FFF6         	movff	??_stringUSART,tblptrl
  4112  0022D8  C005  FFF7         	movff	??_stringUSART+1,tblptrh
  4113  0022DC                     	if	0	;tblptru may be non-zero
  4114  0022DC                     	endif
  4115  0022DC                     	if	0	;tblptru may be non-zero
  4116  0022DC                     	endif
  4117  0022DC  0008               	tblrd		*
  4118  0022DE  50F5               	movf	tablat,w,c
  4119  0022E0  0900               	iorlw	0
  4120  0022E2  A4D8               	btfss	status,2,c
  4121  0022E4  EF76  F011         	goto	u3751
  4122  0022E8  EF78  F011         	goto	u3750
  4123  0022EC                     u3751:
  4124  0022EC  EF53  F011         	goto	l2332
  4125  0022F0                     u3750:
  4126  0022F0                     
  4127                           ;./bt.h: 55:     TXREG = 0x0D;
  4128  0022F0  0E0D               	movlw	13
  4129  0022F2  6EAD               	movwf	173,c	;volatile
  4130  0022F4                     
  4131                           ;./bt.h: 56:     testBuff();
  4132  0022F4  EC04  F012         	call	_testBuff	;wreg free
  4133  0022F8  0012               	return		;funcret
  4134  0022FA                     __end_of_stringUSART:
  4135                           	callstack 0
  4136                           
  4137 ;; *************** function _setTMR1 *****************
  4138 ;; Defined at:
  4139 ;;		line 21 in file "./timer.h"
  4140 ;; Parameters:    Size  Location     Type
  4141 ;;		None
  4142 ;; Auto vars:     Size  Location     Type
  4143 ;;		None
  4144 ;; Return value:  Size  Location     Type
  4145 ;;                  1    wreg      void 
  4146 ;; Registers used:
  4147 ;;		None
  4148 ;; Tracked objects:
  4149 ;;		On entry : 0/0
  4150 ;;		On exit  : 0/0
  4151 ;;		Unchanged: 0/0
  4152 ;; Data sizes:     COMRAM   BANK0   BANK1   BANK2
  4153 ;;      Params:         0       0       0       0
  4154 ;;      Locals:         0       0       0       0
  4155 ;;      Temps:          0       0       0       0
  4156 ;;      Totals:         0       0       0       0
  4157 ;;Total ram usage:        0 bytes
  4158 ;; Hardware stack levels used: 1
  4159 ;; Hardware stack levels required when called: 2
  4160 ;; This function calls:
  4161 ;;		Nothing
  4162 ;; This function is called by:
  4163 ;;		_main
  4164 ;; This function uses a non-reentrant model
  4165 ;;
  4166                           
  4167                           	psect	text3
  4168  0023F8                     __ptext3:
  4169                           	callstack 0
  4170  0023F8                     _setTMR1:
  4171                           	callstack 28
  4172  0023F8                     
  4173                           ;./timer.h: 33:     RD16 = 1;
  4174  0023F8  8ECD               	bsf	4045,7,c	;volatile
  4175                           
  4176                           ;./timer.h: 34:     T1RUN = 0;
  4177  0023FA  9CCD               	bcf	4045,6,c	;volatile
  4178  0023FC  88CD               	bsf	4045,4,c	;volatile
  4179                           
  4180                           ;./timer.h: 38:     T1OSCEN = 0;
  4181  0023FE  96CD               	bcf	4045,3,c	;volatile
  4182                           
  4183                           ;./timer.h: 39:     T1SYNC = 0;
  4184  002400  94CD               	bcf	4045,2,c	;volatile
  4185                           
  4186                           ;./timer.h: 40:     TMR1CS = 0;
  4187  002402  92CD               	bcf	4045,1,c	;volatile
  4188                           
  4189                           ;./timer.h: 41:     TMR1ON = 0;
  4190  002404  90CD               	bcf	4045,0,c	;volatile
  4191  002406  0012               	return		;funcret
  4192  002408                     __end_of_setTMR1:
  4193                           	callstack 0
  4194                           
  4195 ;; *************** function _setTMR0 *****************
  4196 ;; Defined at:
  4197 ;;		line 12 in file "./timer.h"
  4198 ;; Parameters:    Size  Location     Type
  4199 ;;		None
  4200 ;; Auto vars:     Size  Location     Type
  4201 ;;		None
  4202 ;; Return value:  Size  Location     Type
  4203 ;;                  1    wreg      void 
  4204 ;; Registers used:
  4205 ;;		None
  4206 ;; Tracked objects:
  4207 ;;		On entry : 0/0
  4208 ;;		On exit  : 0/0
  4209 ;;		Unchanged: 0/0
  4210 ;; Data sizes:     COMRAM   BANK0   BANK1   BANK2
  4211 ;;      Params:         0       0       0       0
  4212 ;;      Locals:         0       0       0       0
  4213 ;;      Temps:          0       0       0       0
  4214 ;;      Totals:         0       0       0       0
  4215 ;;Total ram usage:        0 bytes
  4216 ;; Hardware stack levels used: 1
  4217 ;; Hardware stack levels required when called: 2
  4218 ;; This function calls:
  4219 ;;		Nothing
  4220 ;; This function is called by:
  4221 ;;		_main
  4222 ;; This function uses a non-reentrant model
  4223 ;;
  4224                           
  4225                           	psect	text4
  4226  002418                     __ptext4:
  4227                           	callstack 0
  4228  002418                     _setTMR0:
  4229                           	callstack 28
  4230  002418                     
  4231                           ;./timer.h: 14:     TMR0ON = 0;
  4232  002418  9ED5               	bcf	4053,7,c	;volatile
  4233                           
  4234                           ;./timer.h: 15:     T016BIT = 0;
  4235  00241A  9CD5               	bcf	4053,6,c	;volatile
  4236                           
  4237                           ;./timer.h: 16:     T0CS = 0;
  4238  00241C  9AD5               	bcf	4053,5,c	;volatile
  4239                           
  4240                           ;./timer.h: 17:     PSA = 0;
  4241  00241E  96D5               	bcf	4053,3,c	;volatile
  4242  002420  80D5               	bsf	4053,0,c	;volatile
  4243                           
  4244                           ;./timer.h: 19:     TMR0IF = 0;
  4245  002422  94F2               	bcf	4082,2,c	;volatile
  4246  002424  0012               	return		;funcret
  4247  002426                     __end_of_setTMR0:
  4248                           	callstack 0
  4249                           
  4250 ;; *************** function _setPWM *****************
  4251 ;; Defined at:
  4252 ;;		line 1 in file "./pwm.h"
  4253 ;; Parameters:    Size  Location     Type
  4254 ;;		None
  4255 ;; Auto vars:     Size  Location     Type
  4256 ;;		None
  4257 ;; Return value:  Size  Location     Type
  4258 ;;                  1    wreg      void 
  4259 ;; Registers used:
  4260 ;;		wreg, status,2
  4261 ;; Tracked objects:
  4262 ;;		On entry : 0/0
  4263 ;;		On exit  : 0/0
  4264 ;;		Unchanged: 0/0
  4265 ;; Data sizes:     COMRAM   BANK0   BANK1   BANK2
  4266 ;;      Params:         0       0       0       0
  4267 ;;      Locals:         0       0       0       0
  4268 ;;      Temps:          0       0       0       0
  4269 ;;      Totals:         0       0       0       0
  4270 ;;Total ram usage:        0 bytes
  4271 ;; Hardware stack levels used: 1
  4272 ;; Hardware stack levels required when called: 2
  4273 ;; This function calls:
  4274 ;;		Nothing
  4275 ;; This function is called by:
  4276 ;;		_main
  4277 ;; This function uses a non-reentrant model
  4278 ;;
  4279                           
  4280                           	psect	text5
  4281  0022FA                     __ptext5:
  4282                           	callstack 0
  4283  0022FA                     _setPWM:
  4284                           	callstack 28
  4285  0022FA                     
  4286                           ;./pwm.h: 3:     PTCON0 = 0b00000000;
  4287  0022FA  0E00               	movlw	0
  4288  0022FC  6E7F               	movwf	127,c	;volatile
  4289                           
  4290                           ;./pwm.h: 4:     PTCON1 = 0b10000000;
  4291  0022FE  0E80               	movlw	128
  4292  002300  6E7E               	movwf	126,c	;volatile
  4293                           
  4294                           ;./pwm.h: 5:     PWMCON0 = 0b01011111;
  4295  002302  0E5F               	movlw	95
  4296  002304  6E6F               	movwf	111,c	;volatile
  4297                           
  4298                           ;./pwm.h: 6:     PWMCON1 = 0b00000001;
  4299  002306  0E01               	movlw	1
  4300  002308  6E6E               	movwf	110,c	;volatile
  4301                           
  4302                           ;./pwm.h: 7:     DTCON = 0b00010000;
  4303  00230A  0E10               	movlw	16
  4304  00230C  6E6D               	movwf	109,c	;volatile
  4305  00230E                     
  4306                           ;./pwm.h: 8:     OVDCOND = 0b11111111;
  4307  00230E  686B               	setf	107,c	;volatile
  4308                           
  4309                           ;./pwm.h: 9:     OVDCONS = 0b00000000;
  4310  002310  0E00               	movlw	0
  4311  002312  6E6A               	movwf	106,c	;volatile
  4312                           
  4313                           ;./pwm.h: 10:     PTPERL = 0b10010110;
  4314  002314  0E96               	movlw	150
  4315  002316  6E7B               	movwf	123,c	;volatile
  4316                           
  4317                           ;./pwm.h: 11:     PTPERH = 0b00000000;
  4318  002318  0E00               	movlw	0
  4319  00231A  6E7A               	movwf	122,c	;volatile
  4320                           
  4321                           ;./pwm.h: 12:     PTMRL = 0x00;
  4322  00231C  0E00               	movlw	0
  4323  00231E  6E7D               	movwf	125,c	;volatile
  4324                           
  4325                           ;./pwm.h: 13:     PTMRH = 0x00;
  4326  002320  0E00               	movlw	0
  4327  002322  6E7C               	movwf	124,c	;volatile
  4328                           
  4329                           ;./pwm.h: 14:     PORTB = 0;
  4330  002324  0E00               	movlw	0
  4331  002326  6E81               	movwf	129,c	;volatile
  4332                           
  4333                           ;./pwm.h: 15:     PORTD = 0;
  4334  002328  0E00               	movlw	0
  4335  00232A  6E83               	movwf	131,c	;volatile
  4336  00232C  0012               	return		;funcret
  4337  00232E                     __end_of_setPWM:
  4338                           	callstack 0
  4339                           
  4340 ;; *************** function _setIO *****************
  4341 ;; Defined at:
  4342 ;;		line 63 in file "./config.h"
  4343 ;; Parameters:    Size  Location     Type
  4344 ;;		None
  4345 ;; Auto vars:     Size  Location     Type
  4346 ;;		None
  4347 ;; Return value:  Size  Location     Type
  4348 ;;                  1    wreg      void 
  4349 ;; Registers used:
  4350 ;;		wreg, status,2
  4351 ;; Tracked objects:
  4352 ;;		On entry : 0/0
  4353 ;;		On exit  : 0/0
  4354 ;;		Unchanged: 0/0
  4355 ;; Data sizes:     COMRAM   BANK0   BANK1   BANK2
  4356 ;;      Params:         0       0       0       0
  4357 ;;      Locals:         0       0       0       0
  4358 ;;      Temps:          0       0       0       0
  4359 ;;      Totals:         0       0       0       0
  4360 ;;Total ram usage:        0 bytes
  4361 ;; Hardware stack levels used: 1
  4362 ;; Hardware stack levels required when called: 2
  4363 ;; This function calls:
  4364 ;;		Nothing
  4365 ;; This function is called by:
  4366 ;;		_main
  4367 ;; This function uses a non-reentrant model
  4368 ;;
  4369                           
  4370                           	psect	text6
  4371  0023B6                     __ptext6:
  4372                           	callstack 0
  4373  0023B6                     _setIO:
  4374                           	callstack 28
  4375  0023B6  6892               	setf	146,c	;volatile
  4376  0023B8  0E00               	movlw	0
  4377  0023BA  6E93               	movwf	147,c	;volatile
  4378  0023BC  6894               	setf	148,c	;volatile
  4379  0023BE  0E00               	movlw	0
  4380  0023C0  6E95               	movwf	149,c	;volatile
  4381  0023C2  0E07               	movlw	7
  4382  0023C4  6E96               	movwf	150,c	;volatile
  4383  0023C6  0E80               	movlw	128
  4384  0023C8  6EB8               	movwf	184,c	;volatile
  4385  0023CA  0E01               	movlw	1
  4386  0023CC  6EB9               	movwf	185,c	;volatile
  4387  0023CE  0012               	return		;funcret
  4388  0023D0                     __end_of_setIO:
  4389                           	callstack 0
  4390                           
  4391 ;; *************** function _setBT *****************
  4392 ;; Defined at:
  4393 ;;		line 1 in file "./bt.h"
  4394 ;; Parameters:    Size  Location     Type
  4395 ;;		None
  4396 ;; Auto vars:     Size  Location     Type
  4397 ;;		None
  4398 ;; Return value:  Size  Location     Type
  4399 ;;                  1    wreg      void 
  4400 ;; Registers used:
  4401 ;;		wreg, status,2
  4402 ;; Tracked objects:
  4403 ;;		On entry : 0/0
  4404 ;;		On exit  : 0/0
  4405 ;;		Unchanged: 0/0
  4406 ;; Data sizes:     COMRAM   BANK0   BANK1   BANK2
  4407 ;;      Params:         0       0       0       0
  4408 ;;      Locals:         0       0       0       0
  4409 ;;      Temps:          0       0       0       0
  4410 ;;      Totals:         0       0       0       0
  4411 ;;Total ram usage:        0 bytes
  4412 ;; Hardware stack levels used: 1
  4413 ;; Hardware stack levels required when called: 2
  4414 ;; This function calls:
  4415 ;;		Nothing
  4416 ;; This function is called by:
  4417 ;;		_main
  4418 ;; This function uses a non-reentrant model
  4419 ;;
  4420                           
  4421                           	psect	text7
  4422  0023D0                     __ptext7:
  4423                           	callstack 0
  4424  0023D0                     _setBT:
  4425                           	callstack 28
  4426  0023D0                     
  4427                           ;./bt.h: 12:     SPBRG = 0x82;
  4428  0023D0  0E82               	movlw	130
  4429  0023D2  6EAF               	movwf	175,c	;volatile
  4430  0023D4                     
  4431                           ;./bt.h: 15:     TXSTAbits.TXEN = 1;
  4432  0023D4  8AAC               	bsf	172,5,c	;volatile
  4433  0023D6                     
  4434                           ;./bt.h: 16:     TXSTAbits.SYNC = 0;
  4435  0023D6  98AC               	bcf	172,4,c	;volatile
  4436  0023D8                     
  4437                           ;./bt.h: 17:     TXSTAbits.BRGH = 1;
  4438  0023D8  84AC               	bsf	172,2,c	;volatile
  4439  0023DA                     
  4440                           ;./bt.h: 19:     RCSTAbits.SPEN = 1;
  4441  0023DA  8EAB               	bsf	171,7,c	;volatile
  4442  0023DC                     
  4443                           ;./bt.h: 20:     RCSTAbits.CREN = 1;
  4444  0023DC  88AB               	bsf	171,4,c	;volatile
  4445  0023DE                     
  4446                           ;./bt.h: 23:     PIR1bits.RCIF = 0;
  4447  0023DE  9A9E               	bcf	158,5,c	;volatile
  4448  0023E0                     
  4449                           ;./bt.h: 25:     PIE1bits.RCIE = 1;
  4450  0023E0  8A9D               	bsf	157,5,c	;volatile
  4451  0023E2  0012               	return		;funcret
  4452  0023E4                     __end_of_setBT:
  4453                           	callstack 0
  4454                           
  4455 ;; *************** function _picUSART *****************
  4456 ;; Defined at:
  4457 ;;		line 38 in file "./bt.h"
  4458 ;; Parameters:    Size  Location     Type
  4459 ;;  status          1    wreg     unsigned char 
  4460 ;; Auto vars:     Size  Location     Type
  4461 ;;  status          1    1[COMRAM] unsigned char 
  4462 ;; Return value:  Size  Location     Type
  4463 ;;                  1    wreg      void 
  4464 ;; Registers used:
  4465 ;;		wreg, status,2, cstack
  4466 ;; Tracked objects:
  4467 ;;		On entry : 0/0
  4468 ;;		On exit  : 0/0
  4469 ;;		Unchanged: 0/0
  4470 ;; Data sizes:     COMRAM   BANK0   BANK1   BANK2
  4471 ;;      Params:         0       0       0       0
  4472 ;;      Locals:         1       0       0       0
  4473 ;;      Temps:          0       0       0       0
  4474 ;;      Totals:         1       0       0       0
  4475 ;;Total ram usage:        1 bytes
  4476 ;; Hardware stack levels used: 1
  4477 ;; Hardware stack levels required when called: 3
  4478 ;; This function calls:
  4479 ;;		_testBuff
  4480 ;; This function is called by:
  4481 ;;		_main
  4482 ;;		_iniciar
  4483 ;; This function uses a non-reentrant model
  4484 ;;
  4485                           
  4486                           	psect	text8
  4487  0023E4                     __ptext8:
  4488                           	callstack 0
  4489  0023E4                     _picUSART:
  4490                           	callstack 27
  4491                           
  4492                           ;incstack = 0
  4493                           ;picUSART@status stored from wreg
  4494  0023E4  6E02               	movwf	picUSART@status^0,c
  4495  0023E6                     
  4496                           ;./bt.h: 39:     TXREG = status;
  4497  0023E6  C002  FFAD         	movff	picUSART@status,4013	;volatile
  4498  0023EA                     
  4499                           ;./bt.h: 40:     testBuff();
  4500  0023EA  EC04  F012         	call	_testBuff	;wreg free
  4501  0023EE                     
  4502                           ;./bt.h: 41:     TXREG = 0x0D;
  4503  0023EE  0E0D               	movlw	13
  4504  0023F0  6EAD               	movwf	173,c	;volatile
  4505  0023F2                     
  4506                           ;./bt.h: 42:     testBuff();
  4507  0023F2  EC04  F012         	call	_testBuff	;wreg free
  4508  0023F6  0012               	return		;funcret
  4509  0023F8                     __end_of_picUSART:
  4510                           	callstack 0
  4511                           
  4512 ;; *************** function _testBuff *****************
  4513 ;; Defined at:
  4514 ;;		line 27 in file "./bt.h"
  4515 ;; Parameters:    Size  Location     Type
  4516 ;;		None
  4517 ;; Auto vars:     Size  Location     Type
  4518 ;;		None
  4519 ;; Return value:  Size  Location     Type
  4520 ;;                  1    wreg      void 
  4521 ;; Registers used:
  4522 ;;		None
  4523 ;; Tracked objects:
  4524 ;;		On entry : 0/0
  4525 ;;		On exit  : 0/0
  4526 ;;		Unchanged: 0/0
  4527 ;; Data sizes:     COMRAM   BANK0   BANK1   BANK2
  4528 ;;      Params:         0       0       0       0
  4529 ;;      Locals:         0       0       0       0
  4530 ;;      Temps:          0       0       0       0
  4531 ;;      Totals:         0       0       0       0
  4532 ;;Total ram usage:        0 bytes
  4533 ;; Hardware stack levels used: 1
  4534 ;; Hardware stack levels required when called: 2
  4535 ;; This function calls:
  4536 ;;		Nothing
  4537 ;; This function is called by:
  4538 ;;		_picUSART
  4539 ;;		_stringUSART
  4540 ;;		_echo
  4541 ;; This function uses a non-reentrant model
  4542 ;;
  4543                           
  4544                           	psect	text9
  4545  002408                     __ptext9:
  4546                           	callstack 0
  4547  002408                     _testBuff:
  4548                           	callstack 27
  4549  002408                     l137:
  4550  002408  A2AC               	btfss	172,1,c	;volatile
  4551  00240A  EF09  F012         	goto	u71
  4552  00240E  EF0B  F012         	goto	u70
  4553  002412                     u71:
  4554  002412  EF04  F012         	goto	l137
  4555  002416                     u70:
  4556  002416  0012               	return		;funcret
  4557  002418                     __end_of_testBuff:
  4558                           	callstack 0
  4559                           
  4560 ;; *************** function _estrela *****************
  4561 ;; Defined at:
  4562 ;;		line 809 in file "hachiko_0.c"
  4563 ;; Parameters:    Size  Location     Type
  4564 ;;		None
  4565 ;; Auto vars:     Size  Location     Type
  4566 ;;		None
  4567 ;; Return value:  Size  Location     Type
  4568 ;;                  1    wreg      void 
  4569 ;; Registers used:
  4570 ;;		wreg, status,2, status,0, prodl, prodh, cstack
  4571 ;; Tracked objects:
  4572 ;;		On entry : 0/0
  4573 ;;		On exit  : 0/0
  4574 ;;		Unchanged: 0/0
  4575 ;; Data sizes:     COMRAM   BANK0   BANK1   BANK2
  4576 ;;      Params:         0       0       0       0
  4577 ;;      Locals:         0       0       0       0
  4578 ;;      Temps:          2       0       0       0
  4579 ;;      Totals:         2       0       0       0
  4580 ;;Total ram usage:        2 bytes
  4581 ;; Hardware stack levels used: 1
  4582 ;; Hardware stack levels required when called: 5
  4583 ;; This function calls:
  4584 ;;		_moverMotor
  4585 ;;		_pararMotor
  4586 ;;		_testarDistancia
  4587 ;; This function is called by:
  4588 ;;		_main
  4589 ;; This function uses a non-reentrant model
  4590 ;;
  4591                           
  4592                           	psect	text10
  4593  002078                     __ptext10:
  4594                           	callstack 0
  4595  002078                     _estrela:
  4596                           	callstack 25
  4597  002078                     
  4598                           ;hachiko_0.c: 810:     if(PORTCbits.RC3 && PORTCbits.RC4){
  4599  002078  A682               	btfss	130,3,c	;volatile
  4600  00207A  EF41  F010         	goto	u3841
  4601  00207E  EF43  F010         	goto	u3840
  4602  002082                     u3841:
  4603  002082  EF4E  F010         	goto	l435
  4604  002086                     u3840:
  4605  002086  A882               	btfss	130,4,c	;volatile
  4606  002088  EF48  F010         	goto	u3851
  4607  00208C  EF4A  F010         	goto	u3850
  4608  002090                     u3851:
  4609  002090  EF4E  F010         	goto	l435
  4610  002094                     u3850:
  4611  002094                     
  4612                           ;hachiko_0.c: 811:         testarDistancia();
  4613  002094  EC8A  F00D         	call	_testarDistancia	;wreg free
  4614                           
  4615                           ;hachiko_0.c: 812:     }
  4616  002098  EFDE  F010         	goto	l442
  4617  00209C                     l435:
  4618  00209C  B682               	btfsc	130,3,c	;volatile
  4619  00209E  EF53  F010         	goto	u3861
  4620  0020A2  EF55  F010         	goto	u3860
  4621  0020A6                     u3861:
  4622  0020A6  EF70  F010         	goto	l437
  4623  0020AA                     u3860:
  4624  0020AA  A882               	btfss	130,4,c	;volatile
  4625  0020AC  EF5A  F010         	goto	u3871
  4626  0020B0  EF5C  F010         	goto	u3870
  4627  0020B4                     u3871:
  4628  0020B4  EF70  F010         	goto	l437
  4629  0020B8                     u3870:
  4630  0020B8                     
  4631                           ;hachiko_0.c: 814:         moverMotor('d','f',60);
  4632  0020B8  0E66               	movlw	102
  4633  0020BA  6E08               	movwf	moverMotor@sentido^0,c
  4634  0020BC  0E00               	movlw	0
  4635  0020BE  6E0A               	movwf	(moverMotor@velocidade+1)^0,c
  4636  0020C0  0E3C               	movlw	60
  4637  0020C2  6E09               	movwf	moverMotor@velocidade^0,c
  4638  0020C4  0E64               	movlw	100
  4639  0020C6  ECDF  F010         	call	_moverMotor
  4640                           
  4641                           ;hachiko_0.c: 815:         moverMotor('e','t',60);
  4642  0020CA  0E74               	movlw	116
  4643  0020CC  6E08               	movwf	moverMotor@sentido^0,c
  4644  0020CE  0E00               	movlw	0
  4645  0020D0  6E0A               	movwf	(moverMotor@velocidade+1)^0,c
  4646  0020D2  0E3C               	movlw	60
  4647  0020D4  6E09               	movwf	moverMotor@velocidade^0,c
  4648  0020D6  0E65               	movlw	101
  4649  0020D8  ECDF  F010         	call	_moverMotor
  4650                           
  4651                           ;hachiko_0.c: 816:     }
  4652  0020DC  EFDE  F010         	goto	l442
  4653  0020E0                     l437:
  4654  0020E0  A682               	btfss	130,3,c	;volatile
  4655  0020E2  EF75  F010         	goto	u3881
  4656  0020E6  EF77  F010         	goto	u3880
  4657  0020EA                     u3881:
  4658  0020EA  EF92  F010         	goto	l439
  4659  0020EE                     u3880:
  4660  0020EE  B882               	btfsc	130,4,c	;volatile
  4661  0020F0  EF7C  F010         	goto	u3891
  4662  0020F4  EF7E  F010         	goto	u3890
  4663  0020F8                     u3891:
  4664  0020F8  EF92  F010         	goto	l439
  4665  0020FC                     u3890:
  4666  0020FC                     
  4667                           ;hachiko_0.c: 818:         moverMotor('d','t',60);
  4668  0020FC  0E74               	movlw	116
  4669  0020FE  6E08               	movwf	moverMotor@sentido^0,c
  4670  002100  0E00               	movlw	0
  4671  002102  6E0A               	movwf	(moverMotor@velocidade+1)^0,c
  4672  002104  0E3C               	movlw	60
  4673  002106  6E09               	movwf	moverMotor@velocidade^0,c
  4674  002108  0E64               	movlw	100
  4675  00210A  ECDF  F010         	call	_moverMotor
  4676                           
  4677                           ;hachiko_0.c: 819:         moverMotor('e','f',60);
  4678  00210E  0E66               	movlw	102
  4679  002110  6E08               	movwf	moverMotor@sentido^0,c
  4680  002112  0E00               	movlw	0
  4681  002114  6E0A               	movwf	(moverMotor@velocidade+1)^0,c
  4682  002116  0E3C               	movlw	60
  4683  002118  6E09               	movwf	moverMotor@velocidade^0,c
  4684  00211A  0E65               	movlw	101
  4685  00211C  ECDF  F010         	call	_moverMotor
  4686                           
  4687                           ;hachiko_0.c: 820:     }
  4688  002120  EFDE  F010         	goto	l442
  4689  002124                     l439:
  4690  002124  B682               	btfsc	130,3,c	;volatile
  4691  002126  EF97  F010         	goto	u3901
  4692  00212A  EF99  F010         	goto	u3900
  4693  00212E                     u3901:
  4694  00212E  EFDE  F010         	goto	l438
  4695  002132                     u3900:
  4696  002132  B882               	btfsc	130,4,c	;volatile
  4697  002134  EF9E  F010         	goto	u3911
  4698  002138  EFA0  F010         	goto	u3910
  4699  00213C                     u3911:
  4700  00213C  EFDE  F010         	goto	l438
  4701  002140                     u3910:
  4702  002140                     
  4703                           ;hachiko_0.c: 822:         moverMotor('d','t',60);
  4704  002140  0E74               	movlw	116
  4705  002142  6E08               	movwf	moverMotor@sentido^0,c
  4706  002144  0E00               	movlw	0
  4707  002146  6E0A               	movwf	(moverMotor@velocidade+1)^0,c
  4708  002148  0E3C               	movlw	60
  4709  00214A  6E09               	movwf	moverMotor@velocidade^0,c
  4710  00214C  0E64               	movlw	100
  4711  00214E  ECDF  F010         	call	_moverMotor
  4712                           
  4713                           ;hachiko_0.c: 823:         moverMotor('e','t',60);
  4714  002152  0E74               	movlw	116
  4715  002154  6E08               	movwf	moverMotor@sentido^0,c
  4716  002156  0E00               	movlw	0
  4717  002158  6E0A               	movwf	(moverMotor@velocidade+1)^0,c
  4718  00215A  0E3C               	movlw	60
  4719  00215C  6E09               	movwf	moverMotor@velocidade^0,c
  4720  00215E  0E65               	movlw	101
  4721  002160  ECDF  F010         	call	_moverMotor
  4722  002164                     
  4723                           ;hachiko_0.c: 824:         _delay((unsigned long)((50)*(20000000/4000.0)));
  4724  002164  0E02               	movlw	2
  4725  002166  6E0F               	movwf	(??_estrela+1)^0,c
  4726  002168  0E45               	movlw	69
  4727  00216A  6E0E               	movwf	??_estrela^0,c
  4728  00216C  0EAA               	movlw	170
  4729  00216E                     u6327:
  4730  00216E  2EE8               	decfsz	wreg,f,c
  4731  002170  D7FE               	bra	u6327
  4732  002172  2E0E               	decfsz	??_estrela^0,f,c
  4733  002174  D7FC               	bra	u6327
  4734  002176  2E0F               	decfsz	(??_estrela+1)^0,f,c
  4735  002178  D7FA               	bra	u6327
  4736  00217A                     
  4737                           ;hachiko_0.c: 825:         pararMotor();
  4738  00217A  ECAA  F011         	call	_pararMotor	;wreg free
  4739  00217E                     
  4740                           ;hachiko_0.c: 826:         _delay((unsigned long)((50)*(20000000/4000.0)));
  4741  00217E  0E02               	movlw	2
  4742  002180  6E0F               	movwf	(??_estrela+1)^0,c
  4743  002182  0E45               	movlw	69
  4744  002184  6E0E               	movwf	??_estrela^0,c
  4745  002186  0EAA               	movlw	170
  4746  002188                     u6337:
  4747  002188  2EE8               	decfsz	wreg,f,c
  4748  00218A  D7FE               	bra	u6337
  4749  00218C  2E0E               	decfsz	??_estrela^0,f,c
  4750  00218E  D7FC               	bra	u6337
  4751  002190  2E0F               	decfsz	(??_estrela+1)^0,f,c
  4752  002192  D7FA               	bra	u6337
  4753  002194                     
  4754                           ;hachiko_0.c: 827:         moverMotor('d','t',60);
  4755  002194  0E74               	movlw	116
  4756  002196  6E08               	movwf	moverMotor@sentido^0,c
  4757  002198  0E00               	movlw	0
  4758  00219A  6E0A               	movwf	(moverMotor@velocidade+1)^0,c
  4759  00219C  0E3C               	movlw	60
  4760  00219E  6E09               	movwf	moverMotor@velocidade^0,c
  4761  0021A0  0E64               	movlw	100
  4762  0021A2  ECDF  F010         	call	_moverMotor
  4763  0021A6                     
  4764                           ;hachiko_0.c: 828:         moverMotor('e','f',60);
  4765  0021A6  0E66               	movlw	102
  4766  0021A8  6E08               	movwf	moverMotor@sentido^0,c
  4767  0021AA  0E00               	movlw	0
  4768  0021AC  6E0A               	movwf	(moverMotor@velocidade+1)^0,c
  4769  0021AE  0E3C               	movlw	60
  4770  0021B0  6E09               	movwf	moverMotor@velocidade^0,c
  4771  0021B2  0E65               	movlw	101
  4772  0021B4  ECDF  F010         	call	_moverMotor
  4773  0021B8  EFDE  F010         	goto	l442
  4774  0021BC                     l438:
  4775  0021BC                     l442:
  4776  0021BC  0012               	return		;funcret
  4777  0021BE                     __end_of_estrela:
  4778                           	callstack 0
  4779                           
  4780 ;; *************** function _testarDistancia *****************
  4781 ;; Defined at:
  4782 ;;		line 695 in file "hachiko_0.c"
  4783 ;; Parameters:    Size  Location     Type
  4784 ;;		None
  4785 ;; Auto vars:     Size  Location     Type
  4786 ;;  velTest         2    0        int 
  4787 ;;  velTestParaF    2   11[COMRAM] int 
  4788 ;; Return value:  Size  Location     Type
  4789 ;;                  1    wreg      void 
  4790 ;; Registers used:
  4791 ;;		wreg, status,2, status,0, prodl, prodh, cstack
  4792 ;; Tracked objects:
  4793 ;;		On entry : 0/0
  4794 ;;		On exit  : 0/0
  4795 ;;		Unchanged: 0/0
  4796 ;; Data sizes:     COMRAM   BANK0   BANK1   BANK2
  4797 ;;      Params:         0       0       0       0
  4798 ;;      Locals:         2       0       0       0
  4799 ;;      Temps:          0       0       0       0
  4800 ;;      Totals:         2       0       0       0
  4801 ;;Total ram usage:        2 bytes
  4802 ;; Hardware stack levels used: 1
  4803 ;; Hardware stack levels required when called: 4
  4804 ;; This function calls:
  4805 ;;		_moverMotor
  4806 ;;		_pararMotor
  4807 ;; This function is called by:
  4808 ;;		_main
  4809 ;;		_estrela
  4810 ;; This function uses a non-reentrant model
  4811 ;;
  4812                           
  4813                           	psect	text11
  4814  001B14                     __ptext11:
  4815                           	callstack 0
  4816  001B14                     _testarDistancia:
  4817                           	callstack 26
  4818  001B14                     
  4819                           ;hachiko_0.c: 697:     int velTestParaFrente = 0;
  4820  001B14  0E00               	movlw	0
  4821  001B16  6E0D               	movwf	(testarDistancia@velTestParaFrente+1)^0,c
  4822  001B18  0E00               	movlw	0
  4823  001B1A  6E0C               	movwf	testarDistancia@velTestParaFrente^0,c
  4824  001B1C                     
  4825                           ;hachiko_0.c: 698:     if(!PORTAbits.RA1 && PORTAbits.RA4 && PORTCbits.RC0 && PORTAbits.
      +                          RA3 && PORTAbits.RA2){
  4826  001B1C  B280               	btfsc	128,1,c	;volatile
  4827  001B1E  EF93  F00D         	goto	u3301
  4828  001B22  EF95  F00D         	goto	u3300
  4829  001B26                     u3301:
  4830  001B26  EFC5  F00D         	goto	l385
  4831  001B2A                     u3300:
  4832  001B2A  A880               	btfss	128,4,c	;volatile
  4833  001B2C  EF9A  F00D         	goto	u3311
  4834  001B30  EF9C  F00D         	goto	u3310
  4835  001B34                     u3311:
  4836  001B34  EFC5  F00D         	goto	l385
  4837  001B38                     u3310:
  4838  001B38  A082               	btfss	130,0,c	;volatile
  4839  001B3A  EFA1  F00D         	goto	u3321
  4840  001B3E  EFA3  F00D         	goto	u3320
  4841  001B42                     u3321:
  4842  001B42  EFC5  F00D         	goto	l385
  4843  001B46                     u3320:
  4844  001B46  A680               	btfss	128,3,c	;volatile
  4845  001B48  EFA8  F00D         	goto	u3331
  4846  001B4C  EFAA  F00D         	goto	u3330
  4847  001B50                     u3331:
  4848  001B50  EFC5  F00D         	goto	l385
  4849  001B54                     u3330:
  4850  001B54  A480               	btfss	128,2,c	;volatile
  4851  001B56  EFAF  F00D         	goto	u3341
  4852  001B5A  EFB1  F00D         	goto	u3340
  4853  001B5E                     u3341:
  4854  001B5E  EFC5  F00D         	goto	l385
  4855  001B62                     u3340:
  4856  001B62                     
  4857                           ;hachiko_0.c: 699:         moverMotor('e','t',velTest);
  4858  001B62  0E74               	movlw	116
  4859  001B64  6E08               	movwf	moverMotor@sentido^0,c
  4860  001B66  0E00               	movlw	0
  4861  001B68  6E0A               	movwf	(moverMotor@velocidade+1)^0,c
  4862  001B6A  0E14               	movlw	20
  4863  001B6C  6E09               	movwf	moverMotor@velocidade^0,c
  4864  001B6E  0E65               	movlw	101
  4865  001B70  ECDF  F010         	call	_moverMotor
  4866                           
  4867                           ;hachiko_0.c: 700:         moverMotor('d','f',velTest);
  4868  001B74  0E66               	movlw	102
  4869  001B76  6E08               	movwf	moverMotor@sentido^0,c
  4870  001B78  0E00               	movlw	0
  4871  001B7A  6E0A               	movwf	(moverMotor@velocidade+1)^0,c
  4872  001B7C  0E14               	movlw	20
  4873  001B7E  6E09               	movwf	moverMotor@velocidade^0,c
  4874  001B80  0E64               	movlw	100
  4875  001B82  ECDF  F010         	call	_moverMotor
  4876                           
  4877                           ;hachiko_0.c: 701:     }
  4878  001B86  EF7F  F00F         	goto	l403
  4879  001B8A                     l385:
  4880  001B8A  A280               	btfss	128,1,c	;volatile
  4881  001B8C  EFCA  F00D         	goto	u3351
  4882  001B90  EFCC  F00D         	goto	u3350
  4883  001B94                     u3351:
  4884  001B94  EFFC  F00D         	goto	l387
  4885  001B98                     u3350:
  4886  001B98  A880               	btfss	128,4,c	;volatile
  4887  001B9A  EFD1  F00D         	goto	u3361
  4888  001B9E  EFD3  F00D         	goto	u3360
  4889  001BA2                     u3361:
  4890  001BA2  EFFC  F00D         	goto	l387
  4891  001BA6                     u3360:
  4892  001BA6  B082               	btfsc	130,0,c	;volatile
  4893  001BA8  EFD8  F00D         	goto	u3371
  4894  001BAC  EFDA  F00D         	goto	u3370
  4895  001BB0                     u3371:
  4896  001BB0  EFFC  F00D         	goto	l387
  4897  001BB4                     u3370:
  4898  001BB4  A680               	btfss	128,3,c	;volatile
  4899  001BB6  EFDF  F00D         	goto	u3381
  4900  001BBA  EFE1  F00D         	goto	u3380
  4901  001BBE                     u3381:
  4902  001BBE  EFFC  F00D         	goto	l387
  4903  001BC2                     u3380:
  4904  001BC2  A480               	btfss	128,2,c	;volatile
  4905  001BC4  EFE6  F00D         	goto	u3391
  4906  001BC8  EFE8  F00D         	goto	u3390
  4907  001BCC                     u3391:
  4908  001BCC  EFFC  F00D         	goto	l387
  4909  001BD0                     u3390:
  4910  001BD0                     
  4911                           ;hachiko_0.c: 703:         moverMotor('e','f',velTestParaFrente);
  4912  001BD0  0E66               	movlw	102
  4913  001BD2  6E08               	movwf	moverMotor@sentido^0,c
  4914  001BD4  0E00               	movlw	0
  4915  001BD6  6E0A               	movwf	(moverMotor@velocidade+1)^0,c
  4916  001BD8  0E00               	movlw	0
  4917  001BDA  6E09               	movwf	moverMotor@velocidade^0,c
  4918  001BDC  0E65               	movlw	101
  4919  001BDE  ECDF  F010         	call	_moverMotor
  4920                           
  4921                           ;hachiko_0.c: 704:         moverMotor('d','f',velTestParaFrente);
  4922  001BE2  0E66               	movlw	102
  4923  001BE4  6E08               	movwf	moverMotor@sentido^0,c
  4924  001BE6  0E00               	movlw	0
  4925  001BE8  6E0A               	movwf	(moverMotor@velocidade+1)^0,c
  4926  001BEA  0E00               	movlw	0
  4927  001BEC  6E09               	movwf	moverMotor@velocidade^0,c
  4928  001BEE  0E64               	movlw	100
  4929  001BF0  ECDF  F010         	call	_moverMotor
  4930                           
  4931                           ;hachiko_0.c: 706:     }
  4932  001BF4  EF7F  F00F         	goto	l403
  4933  001BF8                     l387:
  4934  001BF8  A280               	btfss	128,1,c	;volatile
  4935  001BFA  EF01  F00E         	goto	u3401
  4936  001BFE  EF03  F00E         	goto	u3400
  4937  001C02                     u3401:
  4938  001C02  EF33  F00E         	goto	l389
  4939  001C06                     u3400:
  4940  001C06  B880               	btfsc	128,4,c	;volatile
  4941  001C08  EF08  F00E         	goto	u3411
  4942  001C0C  EF0A  F00E         	goto	u3410
  4943  001C10                     u3411:
  4944  001C10  EF33  F00E         	goto	l389
  4945  001C14                     u3410:
  4946  001C14  A082               	btfss	130,0,c	;volatile
  4947  001C16  EF0F  F00E         	goto	u3421
  4948  001C1A  EF11  F00E         	goto	u3420
  4949  001C1E                     u3421:
  4950  001C1E  EF33  F00E         	goto	l389
  4951  001C22                     u3420:
  4952  001C22  B680               	btfsc	128,3,c	;volatile
  4953  001C24  EF16  F00E         	goto	u3431
  4954  001C28  EF18  F00E         	goto	u3430
  4955  001C2C                     u3431:
  4956  001C2C  EF33  F00E         	goto	l389
  4957  001C30                     u3430:
  4958  001C30  A480               	btfss	128,2,c	;volatile
  4959  001C32  EF1D  F00E         	goto	u3441
  4960  001C36  EF1F  F00E         	goto	u3440
  4961  001C3A                     u3441:
  4962  001C3A  EF33  F00E         	goto	l389
  4963  001C3E                     u3440:
  4964  001C3E                     
  4965                           ;hachiko_0.c: 708:         moverMotor('e','f',velTestParaFrente);
  4966  001C3E  0E66               	movlw	102
  4967  001C40  6E08               	movwf	moverMotor@sentido^0,c
  4968  001C42  0E00               	movlw	0
  4969  001C44  6E0A               	movwf	(moverMotor@velocidade+1)^0,c
  4970  001C46  0E00               	movlw	0
  4971  001C48  6E09               	movwf	moverMotor@velocidade^0,c
  4972  001C4A  0E65               	movlw	101
  4973  001C4C  ECDF  F010         	call	_moverMotor
  4974                           
  4975                           ;hachiko_0.c: 709:         moverMotor('d','f',velTestParaFrente);
  4976  001C50  0E66               	movlw	102
  4977  001C52  6E08               	movwf	moverMotor@sentido^0,c
  4978  001C54  0E00               	movlw	0
  4979  001C56  6E0A               	movwf	(moverMotor@velocidade+1)^0,c
  4980  001C58  0E00               	movlw	0
  4981  001C5A  6E09               	movwf	moverMotor@velocidade^0,c
  4982  001C5C  0E64               	movlw	100
  4983  001C5E  ECDF  F010         	call	_moverMotor
  4984                           
  4985                           ;hachiko_0.c: 711:     }
  4986  001C62  EF7F  F00F         	goto	l403
  4987  001C66                     l389:
  4988  001C66  A280               	btfss	128,1,c	;volatile
  4989  001C68  EF38  F00E         	goto	u3451
  4990  001C6C  EF3A  F00E         	goto	u3450
  4991  001C70                     u3451:
  4992  001C70  EF6A  F00E         	goto	l391
  4993  001C74                     u3450:
  4994  001C74  B880               	btfsc	128,4,c	;volatile
  4995  001C76  EF3F  F00E         	goto	u3461
  4996  001C7A  EF41  F00E         	goto	u3460
  4997  001C7E                     u3461:
  4998  001C7E  EF6A  F00E         	goto	l391
  4999  001C82                     u3460:
  5000  001C82  B082               	btfsc	130,0,c	;volatile
  5001  001C84  EF46  F00E         	goto	u3471
  5002  001C88  EF48  F00E         	goto	u3470
  5003  001C8C                     u3471:
  5004  001C8C  EF6A  F00E         	goto	l391
  5005  001C90                     u3470:
  5006  001C90  B680               	btfsc	128,3,c	;volatile
  5007  001C92  EF4D  F00E         	goto	u3481
  5008  001C96  EF4F  F00E         	goto	u3480
  5009  001C9A                     u3481:
  5010  001C9A  EF6A  F00E         	goto	l391
  5011  001C9E                     u3480:
  5012  001C9E  A480               	btfss	128,2,c	;volatile
  5013  001CA0  EF54  F00E         	goto	u3491
  5014  001CA4  EF56  F00E         	goto	u3490
  5015  001CA8                     u3491:
  5016  001CA8  EF6A  F00E         	goto	l391
  5017  001CAC                     u3490:
  5018  001CAC                     
  5019                           ;hachiko_0.c: 713:         moverMotor('d','f',velTestParaFrente);
  5020  001CAC  0E66               	movlw	102
  5021  001CAE  6E08               	movwf	moverMotor@sentido^0,c
  5022  001CB0  0E00               	movlw	0
  5023  001CB2  6E0A               	movwf	(moverMotor@velocidade+1)^0,c
  5024  001CB4  0E00               	movlw	0
  5025  001CB6  6E09               	movwf	moverMotor@velocidade^0,c
  5026  001CB8  0E64               	movlw	100
  5027  001CBA  ECDF  F010         	call	_moverMotor
  5028                           
  5029                           ;hachiko_0.c: 714:         moverMotor('e','f',velTestParaFrente);
  5030  001CBE  0E66               	movlw	102
  5031  001CC0  6E08               	movwf	moverMotor@sentido^0,c
  5032  001CC2  0E00               	movlw	0
  5033  001CC4  6E0A               	movwf	(moverMotor@velocidade+1)^0,c
  5034  001CC6  0E00               	movlw	0
  5035  001CC8  6E09               	movwf	moverMotor@velocidade^0,c
  5036  001CCA  0E65               	movlw	101
  5037  001CCC  ECDF  F010         	call	_moverMotor
  5038                           
  5039                           ;hachiko_0.c: 715:     }
  5040  001CD0  EF7F  F00F         	goto	l403
  5041  001CD4                     l391:
  5042  001CD4  A280               	btfss	128,1,c	;volatile
  5043  001CD6  EF6F  F00E         	goto	u3501
  5044  001CDA  EF71  F00E         	goto	u3500
  5045  001CDE                     u3501:
  5046  001CDE  EFA1  F00E         	goto	l393
  5047  001CE2                     u3500:
  5048  001CE2  A880               	btfss	128,4,c	;volatile
  5049  001CE4  EF76  F00E         	goto	u3511
  5050  001CE8  EF78  F00E         	goto	u3510
  5051  001CEC                     u3511:
  5052  001CEC  EFA1  F00E         	goto	l393
  5053  001CF0                     u3510:
  5054  001CF0  A082               	btfss	130,0,c	;volatile
  5055  001CF2  EF7D  F00E         	goto	u3521
  5056  001CF6  EF7F  F00E         	goto	u3520
  5057  001CFA                     u3521:
  5058  001CFA  EFA1  F00E         	goto	l393
  5059  001CFE                     u3520:
  5060  001CFE  B680               	btfsc	128,3,c	;volatile
  5061  001D00  EF84  F00E         	goto	u3531
  5062  001D04  EF86  F00E         	goto	u3530
  5063  001D08                     u3531:
  5064  001D08  EFA1  F00E         	goto	l393
  5065  001D0C                     u3530:
  5066  001D0C  A480               	btfss	128,2,c	;volatile
  5067  001D0E  EF8B  F00E         	goto	u3541
  5068  001D12  EF8D  F00E         	goto	u3540
  5069  001D16                     u3541:
  5070  001D16  EFA1  F00E         	goto	l393
  5071  001D1A                     u3540:
  5072  001D1A                     
  5073                           ;hachiko_0.c: 717:         moverMotor('e','f',velTest);
  5074  001D1A  0E66               	movlw	102
  5075  001D1C  6E08               	movwf	moverMotor@sentido^0,c
  5076  001D1E  0E00               	movlw	0
  5077  001D20  6E0A               	movwf	(moverMotor@velocidade+1)^0,c
  5078  001D22  0E14               	movlw	20
  5079  001D24  6E09               	movwf	moverMotor@velocidade^0,c
  5080  001D26  0E65               	movlw	101
  5081  001D28  ECDF  F010         	call	_moverMotor
  5082                           
  5083                           ;hachiko_0.c: 718:         moverMotor('d','t',velTest);
  5084  001D2C  0E74               	movlw	116
  5085  001D2E  6E08               	movwf	moverMotor@sentido^0,c
  5086  001D30  0E00               	movlw	0
  5087  001D32  6E0A               	movwf	(moverMotor@velocidade+1)^0,c
  5088  001D34  0E14               	movlw	20
  5089  001D36  6E09               	movwf	moverMotor@velocidade^0,c
  5090  001D38  0E64               	movlw	100
  5091  001D3A  ECDF  F010         	call	_moverMotor
  5092                           
  5093                           ;hachiko_0.c: 719:     }
  5094  001D3E  EF7F  F00F         	goto	l403
  5095  001D42                     l393:
  5096  001D42  A280               	btfss	128,1,c	;volatile
  5097  001D44  EFA6  F00E         	goto	u3551
  5098  001D48  EFA8  F00E         	goto	u3550
  5099  001D4C                     u3551:
  5100  001D4C  EFD8  F00E         	goto	l395
  5101  001D50                     u3550:
  5102  001D50  A880               	btfss	128,4,c	;volatile
  5103  001D52  EFAD  F00E         	goto	u3561
  5104  001D56  EFAF  F00E         	goto	u3560
  5105  001D5A                     u3561:
  5106  001D5A  EFD8  F00E         	goto	l395
  5107  001D5E                     u3560:
  5108  001D5E  B082               	btfsc	130,0,c	;volatile
  5109  001D60  EFB4  F00E         	goto	u3571
  5110  001D64  EFB6  F00E         	goto	u3570
  5111  001D68                     u3571:
  5112  001D68  EFD8  F00E         	goto	l395
  5113  001D6C                     u3570:
  5114  001D6C  B680               	btfsc	128,3,c	;volatile
  5115  001D6E  EFBB  F00E         	goto	u3581
  5116  001D72  EFBD  F00E         	goto	u3580
  5117  001D76                     u3581:
  5118  001D76  EFD8  F00E         	goto	l395
  5119  001D7A                     u3580:
  5120  001D7A  A480               	btfss	128,2,c	;volatile
  5121  001D7C  EFC2  F00E         	goto	u3591
  5122  001D80  EFC4  F00E         	goto	u3590
  5123  001D84                     u3591:
  5124  001D84  EFD8  F00E         	goto	l395
  5125  001D88                     u3590:
  5126  001D88                     
  5127                           ;hachiko_0.c: 721:         moverMotor('e','f',velTest);
  5128  001D88  0E66               	movlw	102
  5129  001D8A  6E08               	movwf	moverMotor@sentido^0,c
  5130  001D8C  0E00               	movlw	0
  5131  001D8E  6E0A               	movwf	(moverMotor@velocidade+1)^0,c
  5132  001D90  0E14               	movlw	20
  5133  001D92  6E09               	movwf	moverMotor@velocidade^0,c
  5134  001D94  0E65               	movlw	101
  5135  001D96  ECDF  F010         	call	_moverMotor
  5136                           
  5137                           ;hachiko_0.c: 722:         moverMotor('d','t',velTest);
  5138  001D9A  0E74               	movlw	116
  5139  001D9C  6E08               	movwf	moverMotor@sentido^0,c
  5140  001D9E  0E00               	movlw	0
  5141  001DA0  6E0A               	movwf	(moverMotor@velocidade+1)^0,c
  5142  001DA2  0E14               	movlw	20
  5143  001DA4  6E09               	movwf	moverMotor@velocidade^0,c
  5144  001DA6  0E64               	movlw	100
  5145  001DA8  ECDF  F010         	call	_moverMotor
  5146                           
  5147                           ;hachiko_0.c: 723:     }
  5148  001DAC  EF7F  F00F         	goto	l403
  5149  001DB0                     l395:
  5150  001DB0  A280               	btfss	128,1,c	;volatile
  5151  001DB2  EFDD  F00E         	goto	u3601
  5152  001DB6  EFDF  F00E         	goto	u3600
  5153  001DBA                     u3601:
  5154  001DBA  EF0F  F00F         	goto	l397
  5155  001DBE                     u3600:
  5156  001DBE  B880               	btfsc	128,4,c	;volatile
  5157  001DC0  EFE4  F00E         	goto	u3611
  5158  001DC4  EFE6  F00E         	goto	u3610
  5159  001DC8                     u3611:
  5160  001DC8  EF0F  F00F         	goto	l397
  5161  001DCC                     u3610:
  5162  001DCC  A082               	btfss	130,0,c	;volatile
  5163  001DCE  EFEB  F00E         	goto	u3621
  5164  001DD2  EFED  F00E         	goto	u3620
  5165  001DD6                     u3621:
  5166  001DD6  EF0F  F00F         	goto	l397
  5167  001DDA                     u3620:
  5168  001DDA  A680               	btfss	128,3,c	;volatile
  5169  001DDC  EFF2  F00E         	goto	u3631
  5170  001DE0  EFF4  F00E         	goto	u3630
  5171  001DE4                     u3631:
  5172  001DE4  EF0F  F00F         	goto	l397
  5173  001DE8                     u3630:
  5174  001DE8  A480               	btfss	128,2,c	;volatile
  5175  001DEA  EFF9  F00E         	goto	u3641
  5176  001DEE  EFFB  F00E         	goto	u3640
  5177  001DF2                     u3641:
  5178  001DF2  EF0F  F00F         	goto	l397
  5179  001DF6                     u3640:
  5180  001DF6                     
  5181                           ;hachiko_0.c: 725:         moverMotor('e','t',velTest);
  5182  001DF6  0E74               	movlw	116
  5183  001DF8  6E08               	movwf	moverMotor@sentido^0,c
  5184  001DFA  0E00               	movlw	0
  5185  001DFC  6E0A               	movwf	(moverMotor@velocidade+1)^0,c
  5186  001DFE  0E14               	movlw	20
  5187  001E00  6E09               	movwf	moverMotor@velocidade^0,c
  5188  001E02  0E65               	movlw	101
  5189  001E04  ECDF  F010         	call	_moverMotor
  5190                           
  5191                           ;hachiko_0.c: 726:         moverMotor('d','f',velTest);
  5192  001E08  0E66               	movlw	102
  5193  001E0A  6E08               	movwf	moverMotor@sentido^0,c
  5194  001E0C  0E00               	movlw	0
  5195  001E0E  6E0A               	movwf	(moverMotor@velocidade+1)^0,c
  5196  001E10  0E14               	movlw	20
  5197  001E12  6E09               	movwf	moverMotor@velocidade^0,c
  5198  001E14  0E64               	movlw	100
  5199  001E16  ECDF  F010         	call	_moverMotor
  5200                           
  5201                           ;hachiko_0.c: 727:     }
  5202  001E1A  EF7F  F00F         	goto	l403
  5203  001E1E                     l397:
  5204  001E1E  A280               	btfss	128,1,c	;volatile
  5205  001E20  EF14  F00F         	goto	u3651
  5206  001E24  EF16  F00F         	goto	u3650
  5207  001E28                     u3651:
  5208  001E28  EF46  F00F         	goto	l399
  5209  001E2C                     u3650:
  5210  001E2C  B880               	btfsc	128,4,c	;volatile
  5211  001E2E  EF1B  F00F         	goto	u3661
  5212  001E32  EF1D  F00F         	goto	u3660
  5213  001E36                     u3661:
  5214  001E36  EF46  F00F         	goto	l399
  5215  001E3A                     u3660:
  5216  001E3A  B082               	btfsc	130,0,c	;volatile
  5217  001E3C  EF22  F00F         	goto	u3671
  5218  001E40  EF24  F00F         	goto	u3670
  5219  001E44                     u3671:
  5220  001E44  EF46  F00F         	goto	l399
  5221  001E48                     u3670:
  5222  001E48  A680               	btfss	128,3,c	;volatile
  5223  001E4A  EF29  F00F         	goto	u3681
  5224  001E4E  EF2B  F00F         	goto	u3680
  5225  001E52                     u3681:
  5226  001E52  EF46  F00F         	goto	l399
  5227  001E56                     u3680:
  5228  001E56  A480               	btfss	128,2,c	;volatile
  5229  001E58  EF30  F00F         	goto	u3691
  5230  001E5C  EF32  F00F         	goto	u3690
  5231  001E60                     u3691:
  5232  001E60  EF46  F00F         	goto	l399
  5233  001E64                     u3690:
  5234  001E64                     
  5235                           ;hachiko_0.c: 729:         moverMotor('e','t',velTest);
  5236  001E64  0E74               	movlw	116
  5237  001E66  6E08               	movwf	moverMotor@sentido^0,c
  5238  001E68  0E00               	movlw	0
  5239  001E6A  6E0A               	movwf	(moverMotor@velocidade+1)^0,c
  5240  001E6C  0E14               	movlw	20
  5241  001E6E  6E09               	movwf	moverMotor@velocidade^0,c
  5242  001E70  0E65               	movlw	101
  5243  001E72  ECDF  F010         	call	_moverMotor
  5244                           
  5245                           ;hachiko_0.c: 730:         moverMotor('d','f',velTest);
  5246  001E76  0E66               	movlw	102
  5247  001E78  6E08               	movwf	moverMotor@sentido^0,c
  5248  001E7A  0E00               	movlw	0
  5249  001E7C  6E0A               	movwf	(moverMotor@velocidade+1)^0,c
  5250  001E7E  0E14               	movlw	20
  5251  001E80  6E09               	movwf	moverMotor@velocidade^0,c
  5252  001E82  0E64               	movlw	100
  5253  001E84  ECDF  F010         	call	_moverMotor
  5254                           
  5255                           ;hachiko_0.c: 731:     }
  5256  001E88  EF7F  F00F         	goto	l403
  5257  001E8C                     l399:
  5258  001E8C  A280               	btfss	128,1,c	;volatile
  5259  001E8E  EF4B  F00F         	goto	u3701
  5260  001E92  EF4D  F00F         	goto	u3700
  5261  001E96                     u3701:
  5262  001E96  EF7D  F00F         	goto	l2328
  5263  001E9A                     u3700:
  5264  001E9A  A880               	btfss	128,4,c	;volatile
  5265  001E9C  EF52  F00F         	goto	u3711
  5266  001EA0  EF54  F00F         	goto	u3710
  5267  001EA4                     u3711:
  5268  001EA4  EF7D  F00F         	goto	l2328
  5269  001EA8                     u3710:
  5270  001EA8  A082               	btfss	130,0,c	;volatile
  5271  001EAA  EF59  F00F         	goto	u3721
  5272  001EAE  EF5B  F00F         	goto	u3720
  5273  001EB2                     u3721:
  5274  001EB2  EF7D  F00F         	goto	l2328
  5275  001EB6                     u3720:
  5276  001EB6  A680               	btfss	128,3,c	;volatile
  5277  001EB8  EF60  F00F         	goto	u3731
  5278  001EBC  EF62  F00F         	goto	u3730
  5279  001EC0                     u3731:
  5280  001EC0  EF7D  F00F         	goto	l2328
  5281  001EC4                     u3730:
  5282  001EC4  B480               	btfsc	128,2,c	;volatile
  5283  001EC6  EF67  F00F         	goto	u3741
  5284  001ECA  EF69  F00F         	goto	u3740
  5285  001ECE                     u3741:
  5286  001ECE  EF7D  F00F         	goto	l2328
  5287  001ED2                     u3740:
  5288  001ED2                     
  5289                           ;hachiko_0.c: 733:         moverMotor('e','f',velTest);
  5290  001ED2  0E66               	movlw	102
  5291  001ED4  6E08               	movwf	moverMotor@sentido^0,c
  5292  001ED6  0E00               	movlw	0
  5293  001ED8  6E0A               	movwf	(moverMotor@velocidade+1)^0,c
  5294  001EDA  0E14               	movlw	20
  5295  001EDC  6E09               	movwf	moverMotor@velocidade^0,c
  5296  001EDE  0E65               	movlw	101
  5297  001EE0  ECDF  F010         	call	_moverMotor
  5298                           
  5299                           ;hachiko_0.c: 734:         moverMotor('d','t',velTest);
  5300  001EE4  0E74               	movlw	116
  5301  001EE6  6E08               	movwf	moverMotor@sentido^0,c
  5302  001EE8  0E00               	movlw	0
  5303  001EEA  6E0A               	movwf	(moverMotor@velocidade+1)^0,c
  5304  001EEC  0E14               	movlw	20
  5305  001EEE  6E09               	movwf	moverMotor@velocidade^0,c
  5306  001EF0  0E64               	movlw	100
  5307  001EF2  ECDF  F010         	call	_moverMotor
  5308                           
  5309                           ;hachiko_0.c: 735:     }
  5310  001EF6  EF7F  F00F         	goto	l403
  5311  001EFA                     l2328:
  5312                           
  5313                           ;hachiko_0.c: 739:         pararMotor();
  5314  001EFA  ECAA  F011         	call	_pararMotor	;wreg free
  5315  001EFE                     l403:
  5316  001EFE  0012               	return		;funcret
  5317  001F00                     __end_of_testarDistancia:
  5318                           	callstack 0
  5319                           
  5320 ;; *************** function _pararMotor *****************
  5321 ;; Defined at:
  5322 ;;		line 683 in file "hachiko_0.c"
  5323 ;; Parameters:    Size  Location     Type
  5324 ;;		None
  5325 ;; Auto vars:     Size  Location     Type
  5326 ;;		None
  5327 ;; Return value:  Size  Location     Type
  5328 ;;                  1    wreg      void 
  5329 ;; Registers used:
  5330 ;;		wreg, status,2
  5331 ;; Tracked objects:
  5332 ;;		On entry : 0/0
  5333 ;;		On exit  : 0/0
  5334 ;;		Unchanged: 0/0
  5335 ;; Data sizes:     COMRAM   BANK0   BANK1   BANK2
  5336 ;;      Params:         0       0       0       0
  5337 ;;      Locals:         0       0       0       0
  5338 ;;      Temps:          0       0       0       0
  5339 ;;      Totals:         0       0       0       0
  5340 ;;Total ram usage:        0 bytes
  5341 ;; Hardware stack levels used: 1
  5342 ;; Hardware stack levels required when called: 2
  5343 ;; This function calls:
  5344 ;;		Nothing
  5345 ;; This function is called by:
  5346 ;;		_main
  5347 ;;		_testarDistancia
  5348 ;;		_testarLinha
  5349 ;;		_estrela
  5350 ;;		_testarMotor
  5351 ;; This function uses a non-reentrant model
  5352 ;;
  5353                           
  5354                           	psect	text12
  5355  002354                     __ptext12:
  5356                           	callstack 0
  5357  002354                     _pararMotor:
  5358                           	callstack 27
  5359  002354                     
  5360                           ;hachiko_0.c: 686:     PDC0H = 0x00;
  5361  002354  0E00               	movlw	0
  5362  002356  6E78               	movwf	120,c	;volatile
  5363                           
  5364                           ;hachiko_0.c: 687:     PDC0L = 0x00;
  5365  002358  0E00               	movlw	0
  5366  00235A  6E79               	movwf	121,c	;volatile
  5367                           
  5368                           ;hachiko_0.c: 688:     PDC1H = 0x00;
  5369  00235C  0E00               	movlw	0
  5370  00235E  6E76               	movwf	118,c	;volatile
  5371                           
  5372                           ;hachiko_0.c: 689:     PDC1L = 0x00;
  5373  002360  0E00               	movlw	0
  5374  002362  6E77               	movwf	119,c	;volatile
  5375                           
  5376                           ;hachiko_0.c: 690:     PDC2H = 0x00;
  5377  002364  0E00               	movlw	0
  5378  002366  6E74               	movwf	116,c	;volatile
  5379                           
  5380                           ;hachiko_0.c: 691:     PDC2L = 0x00;
  5381  002368  0E00               	movlw	0
  5382  00236A  6E75               	movwf	117,c	;volatile
  5383                           
  5384                           ;hachiko_0.c: 692:     PDC3H = 0x00;
  5385  00236C  0E00               	movlw	0
  5386  00236E  6E72               	movwf	114,c	;volatile
  5387                           
  5388                           ;hachiko_0.c: 693:     PDC3L = 0x00;
  5389  002370  0E00               	movlw	0
  5390  002372  6E73               	movwf	115,c	;volatile
  5391  002374  0012               	return		;funcret
  5392  002376                     __end_of_pararMotor:
  5393                           	callstack 0
  5394                           
  5395 ;; *************** function _moverMotor *****************
  5396 ;; Defined at:
  5397 ;;		line 634 in file "hachiko_0.c"
  5398 ;; Parameters:    Size  Location     Type
  5399 ;;  lado            1    wreg     unsigned char 
  5400 ;;  sentido         1    7[COMRAM] unsigned char 
  5401 ;;  velocidade      2    8[COMRAM] unsigned int 
  5402 ;; Auto vars:     Size  Location     Type
  5403 ;;  lado            1   10[COMRAM] unsigned char 
  5404 ;; Return value:  Size  Location     Type
  5405 ;;                  1    wreg      void 
  5406 ;; Registers used:
  5407 ;;		wreg, status,2, status,0, prodl, prodh, cstack
  5408 ;; Tracked objects:
  5409 ;;		On entry : 0/0
  5410 ;;		On exit  : 0/0
  5411 ;;		Unchanged: 0/0
  5412 ;; Data sizes:     COMRAM   BANK0   BANK1   BANK2
  5413 ;;      Params:         3       0       0       0
  5414 ;;      Locals:         1       0       0       0
  5415 ;;      Temps:          0       0       0       0
  5416 ;;      Totals:         4       0       0       0
  5417 ;;Total ram usage:        4 bytes
  5418 ;; Hardware stack levels used: 1
  5419 ;; Hardware stack levels required when called: 3
  5420 ;; This function calls:
  5421 ;;		___wmul
  5422 ;; This function is called by:
  5423 ;;		_main
  5424 ;;		_testarDistancia
  5425 ;;		_testarLinha
  5426 ;;		_estrela
  5427 ;;		_testarMotor
  5428 ;;		_arco
  5429 ;;		_dibre
  5430 ;; This function uses a non-reentrant model
  5431 ;;
  5432                           
  5433                           	psect	text13
  5434  0021BE                     __ptext13:
  5435                           	callstack 0
  5436  0021BE                     _moverMotor:
  5437                           	callstack 26
  5438                           
  5439                           ;incstack = 0
  5440                           ;moverMotor@lado stored from wreg
  5441  0021BE  6E0B               	movwf	moverMotor@lado^0,c
  5442  0021C0                     
  5443                           ;hachiko_0.c: 635:     velocidade *= 600/100;
  5444  0021C0  C009  F002         	movff	moverMotor@velocidade,___wmul@multiplier
  5445  0021C4  C00A  F003         	movff	moverMotor@velocidade+1,___wmul@multiplier+1
  5446  0021C8  0E00               	movlw	0
  5447  0021CA  6E05               	movwf	(___wmul@multiplicand+1)^0,c
  5448  0021CC  0E06               	movlw	6
  5449  0021CE  6E04               	movwf	___wmul@multiplicand^0,c
  5450  0021D0  EC97  F011         	call	___wmul	;wreg free
  5451  0021D4  C002  F009         	movff	?___wmul,moverMotor@velocidade
  5452  0021D8  C003  F00A         	movff	?___wmul+1,moverMotor@velocidade+1
  5453  0021DC                     
  5454                           ;hachiko_0.c: 636:     if(lado == 'e'){
  5455  0021DC  0E65               	movlw	101
  5456  0021DE  180B               	xorwf	moverMotor@lado^0,w,c
  5457  0021E0  A4D8               	btfss	status,2,c
  5458  0021E2  EFF5  F010         	goto	u3241
  5459  0021E6  EFF7  F010         	goto	u3240
  5460  0021EA                     u3241:
  5461  0021EA  EF1E  F011         	goto	l2218
  5462  0021EE                     u3240:
  5463  0021EE                     
  5464                           ;hachiko_0.c: 637:         PORTBbits.RB6 = 1;
  5465  0021EE  8C81               	bsf	129,6,c	;volatile
  5466  0021F0                     
  5467                           ;hachiko_0.c: 638:         if(sentido == 'f'){
  5468  0021F0  0E66               	movlw	102
  5469  0021F2  1808               	xorwf	moverMotor@sentido^0,w,c
  5470  0021F4  A4D8               	btfss	status,2,c
  5471  0021F6  EFFF  F010         	goto	u3251
  5472  0021FA  EF01  F011         	goto	u3250
  5473  0021FE                     u3251:
  5474  0021FE  EF0B  F011         	goto	l2212
  5475  002202                     u3250:
  5476  002202                     
  5477                           ;hachiko_0.c: 640:             PDC1L = velocidade & 0xFF;
  5478  002202  C009  FF77         	movff	moverMotor@velocidade,3959	;volatile
  5479  002206                     
  5480                           ;hachiko_0.c: 641:             PDC1H = (velocidade >> 8) & 0xFF;
  5481  002206  500A               	movf	(moverMotor@velocidade+1)^0,w,c
  5482  002208  6E76               	movwf	118,c	;volatile
  5483                           
  5484                           ;hachiko_0.c: 642:             PDC2L = 0x00;
  5485  00220A  0E00               	movlw	0
  5486  00220C  6E75               	movwf	117,c	;volatile
  5487                           
  5488                           ;hachiko_0.c: 643:             PDC2H = 0x00;
  5489  00220E  0E00               	movlw	0
  5490  002210  6E74               	movwf	116,c	;volatile
  5491                           
  5492                           ;hachiko_0.c: 650:         }
  5493  002212  EF4C  F011         	goto	l379
  5494  002216                     l2212:
  5495  002216  0E74               	movlw	116
  5496  002218  1808               	xorwf	moverMotor@sentido^0,w,c
  5497  00221A  A4D8               	btfss	status,2,c
  5498  00221C  EF12  F011         	goto	u3261
  5499  002220  EF14  F011         	goto	u3260
  5500  002224                     u3261:
  5501  002224  EF4C  F011         	goto	l379
  5502  002228                     u3260:
  5503  002228                     
  5504                           ;hachiko_0.c: 653:             PDC1L = 0x00;
  5505  002228  0E00               	movlw	0
  5506  00222A  6E77               	movwf	119,c	;volatile
  5507                           
  5508                           ;hachiko_0.c: 654:             PDC1H = 0x00;
  5509  00222C  0E00               	movlw	0
  5510  00222E  6E76               	movwf	118,c	;volatile
  5511  002230                     
  5512                           ;hachiko_0.c: 655:             PDC2L = velocidade & 0xFF;
  5513  002230  C009  FF75         	movff	moverMotor@velocidade,3957	;volatile
  5514                           
  5515                           ;hachiko_0.c: 656:             PDC2H = (velocidade >> 8) & 0xFF;
  5516  002234  500A               	movf	(moverMotor@velocidade+1)^0,w,c
  5517  002236  6E74               	movwf	116,c	;volatile
  5518  002238  EF4C  F011         	goto	l379
  5519  00223C                     l2218:
  5520  00223C  0E64               	movlw	100
  5521  00223E  180B               	xorwf	moverMotor@lado^0,w,c
  5522  002240  A4D8               	btfss	status,2,c
  5523  002242  EF25  F011         	goto	u3271
  5524  002246  EF27  F011         	goto	u3270
  5525  00224A                     u3271:
  5526  00224A  EF4C  F011         	goto	l379
  5527  00224E                     u3270:
  5528  00224E                     
  5529                           ;hachiko_0.c: 667:         PORTBbits.RB7 = 1;
  5530  00224E  8E81               	bsf	129,7,c	;volatile
  5531  002250                     
  5532                           ;hachiko_0.c: 668:         if(sentido == 'f'){
  5533  002250  0E66               	movlw	102
  5534  002252  1808               	xorwf	moverMotor@sentido^0,w,c
  5535  002254  A4D8               	btfss	status,2,c
  5536  002256  EF2F  F011         	goto	u3281
  5537  00225A  EF31  F011         	goto	u3280
  5538  00225E                     u3281:
  5539  00225E  EF3B  F011         	goto	l2228
  5540  002262                     u3280:
  5541  002262                     
  5542                           ;hachiko_0.c: 669:             PDC0L = velocidade & 0b11111111;
  5543  002262  C009  FF79         	movff	moverMotor@velocidade,3961	;volatile
  5544  002266                     
  5545                           ;hachiko_0.c: 670:             PDC0H = (velocidade >> 8) & 0b11111111;
  5546  002266  500A               	movf	(moverMotor@velocidade+1)^0,w,c
  5547  002268  6E78               	movwf	120,c	;volatile
  5548                           
  5549                           ;hachiko_0.c: 671:             PDC3L = 0;
  5550  00226A  0E00               	movlw	0
  5551  00226C  6E73               	movwf	115,c	;volatile
  5552                           
  5553                           ;hachiko_0.c: 672:             PDC3H = 0;
  5554  00226E  0E00               	movlw	0
  5555  002270  6E72               	movwf	114,c	;volatile
  5556                           
  5557                           ;hachiko_0.c: 673:         }
  5558  002272  EF4C  F011         	goto	l379
  5559  002276                     l2228:
  5560  002276  0E74               	movlw	116
  5561  002278  1808               	xorwf	moverMotor@sentido^0,w,c
  5562  00227A  A4D8               	btfss	status,2,c
  5563  00227C  EF42  F011         	goto	u3291
  5564  002280  EF44  F011         	goto	u3290
  5565  002284                     u3291:
  5566  002284  EF4C  F011         	goto	l379
  5567  002288                     u3290:
  5568  002288                     
  5569                           ;hachiko_0.c: 675:             PDC3L = velocidade & 0b11111111;
  5570  002288  C009  FF73         	movff	moverMotor@velocidade,3955	;volatile
  5571  00228C                     
  5572                           ;hachiko_0.c: 676:             PDC3H = (velocidade >> 8) & 0b11111111;
  5573  00228C  500A               	movf	(moverMotor@velocidade+1)^0,w,c
  5574  00228E  6E72               	movwf	114,c	;volatile
  5575                           
  5576                           ;hachiko_0.c: 677:             PDC0L = 0;
  5577  002290  0E00               	movlw	0
  5578  002292  6E79               	movwf	121,c	;volatile
  5579                           
  5580                           ;hachiko_0.c: 678:             PDC0H = 0;
  5581  002294  0E00               	movlw	0
  5582  002296  6E78               	movwf	120,c	;volatile
  5583  002298                     l379:
  5584  002298  0012               	return		;funcret
  5585  00229A                     __end_of_moverMotor:
  5586                           	callstack 0
  5587                           
  5588 ;; *************** function ___wmul *****************
  5589 ;; Defined at:
  5590 ;;		line 15 in file "C:\Program Files\Microchip\xc8\v2.32\pic\sources\c99\common\Umul16.c"
  5591 ;; Parameters:    Size  Location     Type
  5592 ;;  multiplier      2    1[COMRAM] unsigned int 
  5593 ;;  multiplicand    2    3[COMRAM] unsigned int 
  5594 ;; Auto vars:     Size  Location     Type
  5595 ;;  product         2    5[COMRAM] unsigned int 
  5596 ;; Return value:  Size  Location     Type
  5597 ;;                  2    1[COMRAM] unsigned int 
  5598 ;; Registers used:
  5599 ;;		wreg, status,2, status,0, prodl, prodh
  5600 ;; Tracked objects:
  5601 ;;		On entry : 0/0
  5602 ;;		On exit  : 0/0
  5603 ;;		Unchanged: 0/0
  5604 ;; Data sizes:     COMRAM   BANK0   BANK1   BANK2
  5605 ;;      Params:         4       0       0       0
  5606 ;;      Locals:         2       0       0       0
  5607 ;;      Temps:          0       0       0       0
  5608 ;;      Totals:         6       0       0       0
  5609 ;;Total ram usage:        6 bytes
  5610 ;; Hardware stack levels used: 1
  5611 ;; Hardware stack levels required when called: 2
  5612 ;; This function calls:
  5613 ;;		Nothing
  5614 ;; This function is called by:
  5615 ;;		_moverMotor
  5616 ;; This function uses a non-reentrant model
  5617 ;;
  5618                           
  5619                           	psect	text14
  5620  00232E                     __ptext14:
  5621                           	callstack 0
  5622  00232E                     ___wmul:
  5623                           	callstack 26
  5624  00232E  5002               	movf	___wmul@multiplier^0,w,c
  5625  002330  0204               	mulwf	___wmul@multiplicand^0,c
  5626  002332  CFF3 F006          	movff	prodl,___wmul@product
  5627  002336  CFF4 F007          	movff	prodh,___wmul@product+1
  5628  00233A  5002               	movf	___wmul@multiplier^0,w,c
  5629  00233C  0205               	mulwf	(___wmul@multiplicand+1)^0,c
  5630  00233E  50F3               	movf	243,w,c
  5631  002340  2607               	addwf	(___wmul@product+1)^0,f,c
  5632  002342  5003               	movf	(___wmul@multiplier+1)^0,w,c
  5633  002344  0204               	mulwf	___wmul@multiplicand^0,c
  5634  002346  50F3               	movf	243,w,c
  5635  002348  2607               	addwf	(___wmul@product+1)^0,f,c
  5636  00234A  C006  F002         	movff	___wmul@product,?___wmul
  5637  00234E  C007  F003         	movff	___wmul@product+1,?___wmul+1
  5638  002352  0012               	return		;funcret
  5639  002354                     __end_of___wmul:
  5640                           	callstack 0
  5641                           
  5642 ;; *************** function _ISR *****************
  5643 ;; Defined at:
  5644 ;;		line 42 in file "hachiko_0.c"
  5645 ;; Parameters:    Size  Location     Type
  5646 ;;		None
  5647 ;; Auto vars:     Size  Location     Type
  5648 ;;		None
  5649 ;; Return value:  Size  Location     Type
  5650 ;;                  1    wreg      void 
  5651 ;; Registers used:
  5652 ;;		wreg, status,2, status,0, cstack
  5653 ;; Tracked objects:
  5654 ;;		On entry : 0/0
  5655 ;;		On exit  : 0/0
  5656 ;;		Unchanged: 0/0
  5657 ;; Data sizes:     COMRAM   BANK0   BANK1   BANK2
  5658 ;;      Params:         0       0       0       0
  5659 ;;      Locals:         0       0       0       0
  5660 ;;      Temps:          0       0       0       0
  5661 ;;      Totals:         0       0       0       0
  5662 ;;Total ram usage:        0 bytes
  5663 ;; Hardware stack levels used: 1
  5664 ;; Hardware stack levels required when called: 1
  5665 ;; This function calls:
  5666 ;;		_readUSART
  5667 ;;		i2_pararMotor
  5668 ;; This function is called by:
  5669 ;;		Interrupt level 2
  5670 ;; This function uses a non-reentrant model
  5671 ;;
  5672                           
  5673                           	psect	intcode
  5674  000008                     __pintcode:
  5675                           	callstack 0
  5676  000008                     _ISR:
  5677                           	callstack 25
  5678                           
  5679                           ;incstack = 0
  5680  000008  8220               	bsf	int$flags,1,c	;set compiler interrupt flag (level 2)
  5681  00000A                     
  5682                           ;hachiko_0.c: 43:     if(PIR1bits.RCIF){
  5683  00000A  AA9E               	btfss	158,5,c	;volatile
  5684  00000C  EF0A  F000         	goto	i2u70_41
  5685  000010  EF0C  F000         	goto	i2u70_40
  5686  000014                     i2u70_41:
  5687  000014  EF39  F001         	goto	i2l208
  5688  000018                     i2u70_40:
  5689  000018                     
  5690                           ;hachiko_0.c: 44:         PIR1bits.RCIF = 0x00;
  5691  000018  9A9E               	bcf	158,5,c	;volatile
  5692                           
  5693                           ;hachiko_0.c: 45:         if(RCSTAbits.FERR || RCSTAbits.OERR){
  5694  00001A  B4AB               	btfsc	171,2,c	;volatile
  5695  00001C  EF12  F000         	goto	i2u71_41
  5696  000020  EF14  F000         	goto	i2u71_40
  5697  000024                     i2u71_41:
  5698  000024  EF1B  F000         	goto	i2l187
  5699  000028                     i2u71_40:
  5700  000028  A2AB               	btfss	171,1,c	;volatile
  5701  00002A  EF19  F000         	goto	i2u72_41
  5702  00002E  EF1B  F000         	goto	i2u72_40
  5703  000032                     i2u72_41:
  5704  000032  EF1D  F000         	goto	i2l1410
  5705  000036                     i2u72_40:
  5706  000036                     i2l187:
  5707                           
  5708                           ;hachiko_0.c: 46:             RCSTAbits.CREN = 0x00;
  5709  000036  98AB               	bcf	171,4,c	;volatile
  5710                           
  5711                           ;hachiko_0.c: 47:             RCSTAbits.CREN = 0x01;
  5712  000038  88AB               	bsf	171,4,c	;volatile
  5713  00003A                     i2l1410:
  5714                           
  5715                           ;hachiko_0.c: 50:         if(readUSART() == 'L') acao = "linha";
  5716  00003A  EC13  F012         	call	_readUSART	;wreg free
  5717  00003E  0A4C               	xorlw	76
  5718  000040  A4D8               	btfss	status,2,c
  5719  000042  EF25  F000         	goto	i2u73_41
  5720  000046  EF27  F000         	goto	i2u73_40
  5721  00004A                     i2u73_41:
  5722  00004A  EF2B  F000         	goto	i2l1414
  5723  00004E                     i2u73_40:
  5724  00004E  0E3B               	movlw	low STR_1
  5725  000050  6E1C               	movwf	_acao^0,c
  5726  000052  0E03               	movlw	high STR_1
  5727  000054  6E1D               	movwf	(_acao+1)^0,c
  5728  000056                     i2l1414:
  5729                           
  5730                           ;hachiko_0.c: 52:         if(readUSART() == 'D') acao = "distancia";
  5731  000056  EC13  F012         	call	_readUSART	;wreg free
  5732  00005A  0A44               	xorlw	68
  5733  00005C  A4D8               	btfss	status,2,c
  5734  00005E  EF33  F000         	goto	i2u74_41
  5735  000062  EF35  F000         	goto	i2u74_40
  5736  000066                     i2u74_41:
  5737  000066  EF39  F000         	goto	i2l1418
  5738  00006A                     i2u74_40:
  5739  00006A  0E01               	movlw	low STR_2
  5740  00006C  6E1C               	movwf	_acao^0,c
  5741  00006E  0E03               	movlw	high STR_2
  5742  000070  6E1D               	movwf	(_acao+1)^0,c
  5743  000072                     i2l1418:
  5744                           
  5745                           ;hachiko_0.c: 54:         if(readUSART() == 'T') acao = "toquinho";
  5746  000072  EC13  F012         	call	_readUSART	;wreg free
  5747  000076  0A54               	xorlw	84
  5748  000078  A4D8               	btfss	status,2,c
  5749  00007A  EF41  F000         	goto	i2u75_41
  5750  00007E  EF43  F000         	goto	i2u75_40
  5751  000082                     i2u75_41:
  5752  000082  EF47  F000         	goto	i2l1422
  5753  000086                     i2u75_40:
  5754  000086  0E14               	movlw	low STR_3
  5755  000088  6E1C               	movwf	_acao^0,c
  5756  00008A  0E03               	movlw	high STR_3
  5757  00008C  6E1D               	movwf	(_acao+1)^0,c
  5758  00008E                     i2l1422:
  5759                           
  5760                           ;hachiko_0.c: 56:         if(readUSART() == 'A') acao = "arco";
  5761  00008E  EC13  F012         	call	_readUSART	;wreg free
  5762  000092  0A41               	xorlw	65
  5763  000094  A4D8               	btfss	status,2,c
  5764  000096  EF4F  F000         	goto	i2u76_41
  5765  00009A  EF51  F000         	goto	i2u76_40
  5766  00009E                     i2u76_41:
  5767  00009E  EF55  F000         	goto	i2l1426
  5768  0000A2                     i2u76_40:
  5769  0000A2  0E58               	movlw	low STR_4
  5770  0000A4  6E1C               	movwf	_acao^0,c
  5771  0000A6  0E03               	movlw	high STR_4
  5772  0000A8  6E1D               	movwf	(_acao+1)^0,c
  5773  0000AA                     i2l1426:
  5774                           
  5775                           ;hachiko_0.c: 58:         if(readUSART() == 'E') acao = "estrela";
  5776  0000AA  EC13  F012         	call	_readUSART	;wreg free
  5777  0000AE  0A45               	xorlw	69
  5778  0000B0  A4D8               	btfss	status,2,c
  5779  0000B2  EF5D  F000         	goto	i2u77_41
  5780  0000B6  EF5F  F000         	goto	i2u77_40
  5781  0000BA                     i2u77_41:
  5782  0000BA  EF63  F000         	goto	i2l1430
  5783  0000BE                     i2u77_40:
  5784  0000BE  0E1D               	movlw	low STR_5
  5785  0000C0  6E1C               	movwf	_acao^0,c
  5786  0000C2  0E03               	movlw	high STR_5
  5787  0000C4  6E1D               	movwf	(_acao+1)^0,c
  5788  0000C6                     i2l1430:
  5789                           
  5790                           ;hachiko_0.c: 60:         if(readUSART() == 'Z') acao = "zigzag";
  5791  0000C6  EC13  F012         	call	_readUSART	;wreg free
  5792  0000CA  0A5A               	xorlw	90
  5793  0000CC  A4D8               	btfss	status,2,c
  5794  0000CE  EF6B  F000         	goto	i2u78_41
  5795  0000D2  EF6D  F000         	goto	i2u78_40
  5796  0000D6                     i2u78_41:
  5797  0000D6  EF71  F000         	goto	i2l1434
  5798  0000DA                     i2u78_40:
  5799  0000DA  0E34               	movlw	low STR_6
  5800  0000DC  6E1C               	movwf	_acao^0,c
  5801  0000DE  0E03               	movlw	high STR_6
  5802  0000E0  6E1D               	movwf	(_acao+1)^0,c
  5803  0000E2                     i2l1434:
  5804                           
  5805                           ;hachiko_0.c: 62:         if(readUSART() == 'R') acao = "teste";
  5806  0000E2  EC13  F012         	call	_readUSART	;wreg free
  5807  0000E6  0A52               	xorlw	82
  5808  0000E8  A4D8               	btfss	status,2,c
  5809  0000EA  EF79  F000         	goto	i2u79_41
  5810  0000EE  EF7B  F000         	goto	i2u79_40
  5811  0000F2                     i2u79_41:
  5812  0000F2  EF7F  F000         	goto	i2l1438
  5813  0000F6                     i2u79_40:
  5814  0000F6  0E41               	movlw	low STR_7
  5815  0000F8  6E1C               	movwf	_acao^0,c
  5816  0000FA  0E03               	movlw	high STR_7
  5817  0000FC  6E1D               	movwf	(_acao+1)^0,c
  5818  0000FE                     i2l1438:
  5819                           
  5820                           ;hachiko_0.c: 64:         if(readUSART() == 'X') acao = "gd";
  5821  0000FE  EC13  F012         	call	_readUSART	;wreg free
  5822  000102  0A58               	xorlw	88
  5823  000104  A4D8               	btfss	status,2,c
  5824  000106  EF87  F000         	goto	i2u80_41
  5825  00010A  EF89  F000         	goto	i2u80_40
  5826  00010E                     i2u80_41:
  5827  00010E  EF8D  F000         	goto	i2l1442
  5828  000112                     i2u80_40:
  5829  000112  0E62               	movlw	low STR_8
  5830  000114  6E1C               	movwf	_acao^0,c
  5831  000116  0E03               	movlw	high STR_8
  5832  000118  6E1D               	movwf	(_acao+1)^0,c
  5833  00011A                     i2l1442:
  5834                           
  5835                           ;hachiko_0.c: 66:         if(readUSART() == 'Y') acao = "ge";
  5836  00011A  EC13  F012         	call	_readUSART	;wreg free
  5837  00011E  0A59               	xorlw	89
  5838  000120  A4D8               	btfss	status,2,c
  5839  000122  EF95  F000         	goto	i2u81_41
  5840  000126  EF97  F000         	goto	i2u81_40
  5841  00012A                     i2u81_41:
  5842  00012A  EF9B  F000         	goto	i2l1446
  5843  00012E                     i2u81_40:
  5844  00012E  0E65               	movlw	low STR_9
  5845  000130  6E1C               	movwf	_acao^0,c
  5846  000132  0E03               	movlw	high STR_9
  5847  000134  6E1D               	movwf	(_acao+1)^0,c
  5848  000136                     i2l1446:
  5849                           
  5850                           ;hachiko_0.c: 68:         if(readUSART() == 'd') acao = "direito";
  5851  000136  EC13  F012         	call	_readUSART	;wreg free
  5852  00013A  0A64               	xorlw	100
  5853  00013C  A4D8               	btfss	status,2,c
  5854  00013E  EFA3  F000         	goto	i2u82_41
  5855  000142  EFA5  F000         	goto	i2u82_40
  5856  000146                     i2u82_41:
  5857  000146  EFA9  F000         	goto	i2l1450
  5858  00014A                     i2u82_40:
  5859  00014A  0E25               	movlw	low STR_10
  5860  00014C  6E1C               	movwf	_acao^0,c
  5861  00014E  0E03               	movlw	high STR_10
  5862  000150  6E1D               	movwf	(_acao+1)^0,c
  5863  000152                     i2l1450:
  5864                           
  5865                           ;hachiko_0.c: 70:         if(readUSART() == 'e') acao = "esquerdo";
  5866  000152  EC13  F012         	call	_readUSART	;wreg free
  5867  000156  0A65               	xorlw	101
  5868  000158  A4D8               	btfss	status,2,c
  5869  00015A  EFB1  F000         	goto	i2u83_41
  5870  00015E  EFB3  F000         	goto	i2u83_40
  5871  000162                     i2u83_41:
  5872  000162  EFB7  F000         	goto	i2l1454
  5873  000166                     i2u83_40:
  5874  000166  0E0B               	movlw	low STR_11
  5875  000168  6E1C               	movwf	_acao^0,c
  5876  00016A  0E03               	movlw	high STR_11
  5877  00016C  6E1D               	movwf	(_acao+1)^0,c
  5878  00016E                     i2l1454:
  5879                           
  5880                           ;hachiko_0.c: 72:         if(readUSART() == 'f') acao = "frente";
  5881  00016E  EC13  F012         	call	_readUSART	;wreg free
  5882  000172  0A66               	xorlw	102
  5883  000174  A4D8               	btfss	status,2,c
  5884  000176  EFBF  F000         	goto	i2u84_41
  5885  00017A  EFC1  F000         	goto	i2u84_40
  5886  00017E                     i2u84_41:
  5887  00017E  EFC5  F000         	goto	i2l1458
  5888  000182                     i2u84_40:
  5889  000182  0E2D               	movlw	low STR_12
  5890  000184  6E1C               	movwf	_acao^0,c
  5891  000186  0E03               	movlw	high STR_12
  5892  000188  6E1D               	movwf	(_acao+1)^0,c
  5893  00018A                     i2l1458:
  5894                           
  5895                           ;hachiko_0.c: 74:         if(readUSART() == 't') acao = "tras";
  5896  00018A  EC13  F012         	call	_readUSART	;wreg free
  5897  00018E  0A74               	xorlw	116
  5898  000190  A4D8               	btfss	status,2,c
  5899  000192  EFCD  F000         	goto	i2u85_41
  5900  000196  EFCF  F000         	goto	i2u85_40
  5901  00019A                     i2u85_41:
  5902  00019A  EFD3  F000         	goto	i2l1462
  5903  00019E                     i2u85_40:
  5904  00019E  0E5D               	movlw	low STR_13
  5905  0001A0  6E1C               	movwf	_acao^0,c
  5906  0001A2  0E03               	movlw	high STR_13
  5907  0001A4  6E1D               	movwf	(_acao+1)^0,c
  5908  0001A6                     i2l1462:
  5909                           
  5910                           ;hachiko_0.c: 76:         if(readUSART() == 'm') acao = "motor";
  5911  0001A6  EC13  F012         	call	_readUSART	;wreg free
  5912  0001AA  0A6D               	xorlw	109
  5913  0001AC  A4D8               	btfss	status,2,c
  5914  0001AE  EFDB  F000         	goto	i2u86_41
  5915  0001B2  EFDD  F000         	goto	i2u86_40
  5916  0001B6                     i2u86_41:
  5917  0001B6  EFE1  F000         	goto	i2l1466
  5918  0001BA                     i2u86_40:
  5919  0001BA  0E4D               	movlw	low STR_14
  5920  0001BC  6E1C               	movwf	_acao^0,c
  5921  0001BE  0E03               	movlw	high STR_14
  5922  0001C0  6E1D               	movwf	(_acao+1)^0,c
  5923  0001C2                     i2l1466:
  5924                           
  5925                           ;hachiko_0.c: 78:         if(readUSART() == '+'){
  5926  0001C2  EC13  F012         	call	_readUSART	;wreg free
  5927  0001C6  0A2B               	xorlw	43
  5928  0001C8  A4D8               	btfss	status,2,c
  5929  0001CA  EFE9  F000         	goto	i2u87_41
  5930  0001CE  EFEB  F000         	goto	i2u87_40
  5931  0001D2                     i2u87_41:
  5932  0001D2  EFFE  F000         	goto	i2l1472
  5933  0001D6                     i2u87_40:
  5934  0001D6                     
  5935                           ;hachiko_0.c: 79:             velocidade += 10*600/100;
  5936  0001D6  0E3C               	movlw	60
  5937  0001D8  261A               	addwf	_velocidade^0,f,c
  5938  0001DA  0E00               	movlw	0
  5939  0001DC  221B               	addwfc	(_velocidade+1)^0,f,c
  5940                           
  5941                           ;hachiko_0.c: 80:             if(velocidade >= 600) velocidade = 10*600/100;
  5942  0001DE  0E58               	movlw	88
  5943  0001E0  5C1A               	subwf	_velocidade^0,w,c
  5944  0001E2  0E02               	movlw	2
  5945  0001E4  581B               	subwfb	(_velocidade+1)^0,w,c
  5946  0001E6  A0D8               	btfss	status,0,c
  5947  0001E8  EFF8  F000         	goto	i2u88_41
  5948  0001EC  EFFA  F000         	goto	i2u88_40
  5949  0001F0                     i2u88_41:
  5950  0001F0  EFFE  F000         	goto	i2l1472
  5951  0001F4                     i2u88_40:
  5952  0001F4  0E00               	movlw	0
  5953  0001F6  6E1B               	movwf	(_velocidade+1)^0,c
  5954  0001F8  0E3C               	movlw	60
  5955  0001FA  6E1A               	movwf	_velocidade^0,c
  5956  0001FC                     i2l1472:
  5957                           
  5958                           ;hachiko_0.c: 83:         if(readUSART() == '-'){
  5959  0001FC  EC13  F012         	call	_readUSART	;wreg free
  5960  000200  0A2D               	xorlw	45
  5961  000202  A4D8               	btfss	status,2,c
  5962  000204  EF06  F001         	goto	i2u89_41
  5963  000208  EF08  F001         	goto	i2u89_40
  5964  00020C                     i2u89_41:
  5965  00020C  EF1B  F001         	goto	i2l1478
  5966  000210                     i2u89_40:
  5967  000210                     
  5968                           ;hachiko_0.c: 84:             velocidade -= 10*600/100;
  5969  000210  0E3C               	movlw	60
  5970  000212  5E1A               	subwf	_velocidade^0,f,c
  5971  000214  0E00               	movlw	0
  5972  000216  5A1B               	subwfb	(_velocidade+1)^0,f,c
  5973                           
  5974                           ;hachiko_0.c: 85:             if(velocidade <= 59) velocidade = 50*600/100;
  5975  000218  501B               	movf	(_velocidade+1)^0,w,c
  5976  00021A  E107               	bnz	i2u90_41
  5977  00021C  0E3C               	movlw	60
  5978  00021E  5C1A               	subwf	_velocidade^0,w,c
  5979  000220  B0D8               	btfsc	status,0,c
  5980  000222  EF15  F001         	goto	i2u90_41
  5981  000226  EF17  F001         	goto	i2u90_40
  5982  00022A                     i2u90_41:
  5983  00022A  EF1B  F001         	goto	i2l1478
  5984  00022E                     i2u90_40:
  5985  00022E  0E01               	movlw	1
  5986  000230  6E1B               	movwf	(_velocidade+1)^0,c
  5987  000232  0E2C               	movlw	44
  5988  000234  6E1A               	movwf	_velocidade^0,c
  5989  000236                     i2l1478:
  5990                           
  5991                           ;hachiko_0.c: 88:         if(readUSART() == 'G') ini = 1;
  5992  000236  EC13  F012         	call	_readUSART	;wreg free
  5993  00023A  0A47               	xorlw	71
  5994  00023C  A4D8               	btfss	status,2,c
  5995  00023E  EF23  F001         	goto	i2u91_41
  5996  000242  EF25  F001         	goto	i2u91_40
  5997  000246                     i2u91_41:
  5998  000246  EF29  F001         	goto	i2l1482
  5999  00024A                     i2u91_40:
  6000  00024A  0E00               	movlw	0
  6001  00024C  6E19               	movwf	(_ini+1)^0,c
  6002  00024E  0E01               	movlw	1
  6003  000250  6E18               	movwf	_ini^0,c
  6004  000252                     i2l1482:
  6005                           
  6006                           ;hachiko_0.c: 90:         if(readUSART() == 'P'){
  6007  000252  EC13  F012         	call	_readUSART	;wreg free
  6008  000256  0A50               	xorlw	80
  6009  000258  A4D8               	btfss	status,2,c
  6010  00025A  EF31  F001         	goto	i2u92_41
  6011  00025E  EF33  F001         	goto	i2u92_40
  6012  000262                     i2u92_41:
  6013  000262  EF39  F001         	goto	i2l208
  6014  000266                     i2u92_40:
  6015  000266                     
  6016                           ;hachiko_0.c: 91:             pararMotor();
  6017  000266  ECBB  F011         	call	i2_pararMotor	;wreg free
  6018  00026A                     
  6019                           ;hachiko_0.c: 92:             acao = "parar";
  6020  00026A  0E47               	movlw	low STR_15
  6021  00026C  6E1C               	movwf	_acao^0,c
  6022  00026E  0E03               	movlw	high STR_15
  6023  000270  6E1D               	movwf	(_acao+1)^0,c
  6024  000272                     i2l208:
  6025  000272  9220               	bcf	int$flags,1,c	;clear compiler interrupt flag (level 2)
  6026  000274  0011               	retfie		f
  6027  000276                     __end_of_ISR:
  6028                           	callstack 0
  6029                           
  6030 ;; *************** function i2_pararMotor *****************
  6031 ;; Defined at:
  6032 ;;		line 683 in file "hachiko_0.c"
  6033 ;; Parameters:    Size  Location     Type
  6034 ;;		None
  6035 ;; Auto vars:     Size  Location     Type
  6036 ;;		None
  6037 ;; Return value:  Size  Location     Type
  6038 ;;                  1    wreg      void 
  6039 ;; Registers used:
  6040 ;;		wreg, status,2
  6041 ;; Tracked objects:
  6042 ;;		On entry : 0/0
  6043 ;;		On exit  : 0/0
  6044 ;;		Unchanged: 0/0
  6045 ;; Data sizes:     COMRAM   BANK0   BANK1   BANK2
  6046 ;;      Params:         0       0       0       0
  6047 ;;      Locals:         0       0       0       0
  6048 ;;      Temps:          0       0       0       0
  6049 ;;      Totals:         0       0       0       0
  6050 ;;Total ram usage:        0 bytes
  6051 ;; Hardware stack levels used: 1
  6052 ;; This function calls:
  6053 ;;		Nothing
  6054 ;; This function is called by:
  6055 ;;		_ISR
  6056 ;; This function uses a non-reentrant model
  6057 ;;
  6058                           
  6059                           	psect	text16
  6060  002376                     __ptext16:
  6061                           	callstack 0
  6062  002376                     i2_pararMotor:
  6063                           	callstack 25
  6064  002376                     
  6065                           ;hachiko_0.c: 686:     PDC0H = 0x00;
  6066  002376  0E00               	movlw	0
  6067  002378  6E78               	movwf	120,c	;volatile
  6068                           
  6069                           ;hachiko_0.c: 687:     PDC0L = 0x00;
  6070  00237A  0E00               	movlw	0
  6071  00237C  6E79               	movwf	121,c	;volatile
  6072                           
  6073                           ;hachiko_0.c: 688:     PDC1H = 0x00;
  6074  00237E  0E00               	movlw	0
  6075  002380  6E76               	movwf	118,c	;volatile
  6076                           
  6077                           ;hachiko_0.c: 689:     PDC1L = 0x00;
  6078  002382  0E00               	movlw	0
  6079  002384  6E77               	movwf	119,c	;volatile
  6080                           
  6081                           ;hachiko_0.c: 690:     PDC2H = 0x00;
  6082  002386  0E00               	movlw	0
  6083  002388  6E74               	movwf	116,c	;volatile
  6084                           
  6085                           ;hachiko_0.c: 691:     PDC2L = 0x00;
  6086  00238A  0E00               	movlw	0
  6087  00238C  6E75               	movwf	117,c	;volatile
  6088                           
  6089                           ;hachiko_0.c: 692:     PDC3H = 0x00;
  6090  00238E  0E00               	movlw	0
  6091  002390  6E72               	movwf	114,c	;volatile
  6092                           
  6093                           ;hachiko_0.c: 693:     PDC3L = 0x00;
  6094  002392  0E00               	movlw	0
  6095  002394  6E73               	movwf	115,c	;volatile
  6096  002396  0012               	return		;funcret
  6097  002398                     __end_ofi2_pararMotor:
  6098                           	callstack 0
  6099                           
  6100 ;; *************** function _readUSART *****************
  6101 ;; Defined at:
  6102 ;;		line 44 in file "./bt.h"
  6103 ;; Parameters:    Size  Location     Type
  6104 ;;		None
  6105 ;; Auto vars:     Size  Location     Type
  6106 ;;  ler             1    0[COMRAM] unsigned char 
  6107 ;; Return value:  Size  Location     Type
  6108 ;;                  1    wreg      unsigned char 
  6109 ;; Registers used:
  6110 ;;		wreg, status,2
  6111 ;; Tracked objects:
  6112 ;;		On entry : 0/0
  6113 ;;		On exit  : 0/0
  6114 ;;		Unchanged: 0/0
  6115 ;; Data sizes:     COMRAM   BANK0   BANK1   BANK2
  6116 ;;      Params:         0       0       0       0
  6117 ;;      Locals:         1       0       0       0
  6118 ;;      Temps:          0       0       0       0
  6119 ;;      Totals:         1       0       0       0
  6120 ;;Total ram usage:        1 bytes
  6121 ;; Hardware stack levels used: 1
  6122 ;; This function calls:
  6123 ;;		Nothing
  6124 ;; This function is called by:
  6125 ;;		_ISR
  6126 ;;		_iniciar
  6127 ;; This function uses a non-reentrant model
  6128 ;;
  6129                           
  6130                           	psect	text17
  6131  002426                     __ptext17:
  6132                           	callstack 0
  6133  002426                     _readUSART:
  6134                           	callstack 25
  6135  002426                     
  6136                           ;./bt.h: 45:     char ler = RCREG;
  6137  002426  CFAE F001          	movff	4014,readUSART@ler	;volatile
  6138  00242A                     
  6139                           ;./bt.h: 46:     return ler;
  6140  00242A  5001               	movf	readUSART@ler^0,w,c
  6141  00242C  0012               	return		;funcret
  6142  00242E                     __end_of_readUSART:
  6143                           	callstack 0
  6144                           
  6145                           	psect	rparam
  6146  0000                     
  6147                           	psect	temp
  6148  000020                     btemp:
  6149                           	callstack 0
  6150  000020                     	ds	1
  6151  0000                     int$flags	set	btemp
  6152  0000                     wtemp8	set	btemp+1
  6153  0000                     ttemp5	set	btemp+1
  6154  0000                     ttemp6	set	btemp+4
  6155  0000                     ttemp7	set	btemp+8
  6156                           
  6157                           	psect	idloc
  6158                           
  6159                           ;Config register IDLOC0 @ 0x200000
  6160                           ;	unspecified, using default values
  6161  200000                     	org	2097152
  6162  200000  FF                 	db	255
  6163                           
  6164                           ;Config register IDLOC1 @ 0x200001
  6165                           ;	unspecified, using default values
  6166  200001                     	org	2097153
  6167  200001  FF                 	db	255
  6168                           
  6169                           ;Config register IDLOC2 @ 0x200002
  6170                           ;	unspecified, using default values
  6171  200002                     	org	2097154
  6172  200002  FF                 	db	255
  6173                           
  6174                           ;Config register IDLOC3 @ 0x200003
  6175                           ;	unspecified, using default values
  6176  200003                     	org	2097155
  6177  200003  FF                 	db	255
  6178                           
  6179                           ;Config register IDLOC4 @ 0x200004
  6180                           ;	unspecified, using default values
  6181  200004                     	org	2097156
  6182  200004  FF                 	db	255
  6183                           
  6184                           ;Config register IDLOC5 @ 0x200005
  6185                           ;	unspecified, using default values
  6186  200005                     	org	2097157
  6187  200005  FF                 	db	255
  6188                           
  6189                           ;Config register IDLOC6 @ 0x200006
  6190                           ;	unspecified, using default values
  6191  200006                     	org	2097158
  6192  200006  FF                 	db	255
  6193                           
  6194                           ;Config register IDLOC7 @ 0x200007
  6195                           ;	unspecified, using default values
  6196  200007                     	org	2097159
  6197  200007  FF                 	db	255
  6198                           
  6199                           	psect	config
  6200                           
  6201                           ; Padding undefined space
  6202  300000                     	org	3145728
  6203  300000  FF                 	db	255
  6204                           
  6205                           ;Config register CONFIG1H @ 0x300001
  6206                           ;	Oscillator Selection bits
  6207                           ;	OSC = HS, HS oscillator
  6208                           ;	Fail-Safe Clock Monitor Enable bit
  6209                           ;	FCMEN = ON, Fail-Safe Clock Monitor enabled
  6210                           ;	Internal External Oscillator Switchover bit
  6211                           ;	IESO = ON, Internal External Switchover mode enabled
  6212  300001                     	org	3145729
  6213  300001  C2                 	db	194
  6214                           
  6215                           ;Config register CONFIG2L @ 0x300002
  6216                           ;	Power-up Timer Enable bit
  6217                           ;	PWRTEN = OFF, PWRT disabled
  6218                           ;	Brown-out Reset Enable bits
  6219                           ;	BOREN = OFF, Brown-out Reset disabled
  6220                           ;	Brown Out Reset Voltage bits
  6221                           ;	BORV = 0x3, unprogrammed default
  6222  300002                     	org	3145730
  6223  300002  0D                 	db	13
  6224                           
  6225                           ;Config register CONFIG2H @ 0x300003
  6226                           ;	Watchdog Timer Enable bit
  6227                           ;	WDTEN = OFF, WDT disabled (control is placed on the SWDTEN bit)
  6228                           ;	Watchdog Timer Postscale Select bits
  6229                           ;	WDPS = 32768, 1:32768
  6230                           ;	Watchdog Timer Window Enable bit
  6231                           ;	WINEN = OFF, WDT window disabled
  6232  300003                     	org	3145731
  6233  300003  3E                 	db	62
  6234                           
  6235                           ;Config register CONFIG3L @ 0x300004
  6236                           ;	PWM output pins Reset state control
  6237                           ;	PWMPIN = OFF, PWM outputs disabled upon Reset (default)
  6238                           ;	Low-Side Transistors Polarity
  6239                           ;	LPOL = HIGH, PWM0, 2, 4 and 6 are active-high
  6240                           ;	High-Side Transistors Polarity
  6241                           ;	HPOL = HIGH, PWM1, 3, 5 and 7 are active-high
  6242                           ;	Timer1 Oscillator MUX
  6243                           ;	T1OSCMX = ON, Low-power Timer1 operation when microcontroller is in Sleep mode
  6244  300004                     	org	3145732
  6245  300004  3C                 	db	60
  6246                           
  6247                           ;Config register CONFIG3H @ 0x300005
  6248                           ;	FLTA MUX bit
  6249                           ;	FLTAMX = RC1, FLTA input is multiplexed with RC1
  6250                           ;	SSP I/O MUX bit
  6251                           ;	SSPMX = RC7, SCK/SCL clocks and SDA/SDI data are multiplexed with RC5 and RC4, respect
      +                          ively. SDO output is multiplexed with RC7.
  6252                           ;	PWM4 MUX bit
  6253                           ;	PWM4MX = RB5, PWM4 output is multiplexed with RB5
  6254                           ;	TMR0/T5CKI External clock MUX bit
  6255                           ;	EXCLKMX = RC3, TMR0/T5CKI external clock input is multiplexed with RC3
  6256                           ;	MCLR Pin Enable bit
  6257                           ;	MCLRE = OFF, Disabled
  6258  300005                     	org	3145733
  6259  300005  1D                 	db	29
  6260                           
  6261                           ;Config register CONFIG4L @ 0x300006
  6262                           ;	Stack Full/Underflow Reset Enable bit
  6263                           ;	STVREN = ON, Stack full/underflow will cause Reset
  6264                           ;	Low-Voltage ICSP Enable bit
  6265                           ;	LVP = OFF, Low-voltage ICSP disabled
  6266                           ;	Background Debugger Enable bit
  6267                           ;	DEBUG = 0x1, unprogrammed default
  6268  300006                     	org	3145734
  6269  300006  81                 	db	129
  6270                           
  6271                           ; Padding undefined space
  6272  300007                     	org	3145735
  6273  300007  FF                 	db	255
  6274                           
  6275                           ;Config register CONFIG5L @ 0x300008
  6276                           ;	Code Protection bit
  6277                           ;	CP0 = OFF, Block 0 (000200-000FFFh) not code-protected
  6278                           ;	Code Protection bit
  6279                           ;	CP1 = OFF, Block 1 (001000-001FFF) not code-protected
  6280                           ;	Code Protection bit
  6281                           ;	CP2 = OFF, Block 2 (002000-002FFFh) not code-protected
  6282                           ;	Code Protection bit
  6283                           ;	CP3 = OFF, Block 3 (003000-003FFFh) not code-protected
  6284  300008                     	org	3145736
  6285  300008  0F                 	db	15
  6286                           
  6287                           ;Config register CONFIG5H @ 0x300009
  6288                           ;	Boot Block Code Protection bit
  6289                           ;	CPB = OFF, Boot Block (000000-0001FFh) not code-protected
  6290                           ;	Data EEPROM Code Protection bit
  6291                           ;	CPD = OFF, Data EEPROM not code-protected
  6292  300009                     	org	3145737
  6293  300009  C0                 	db	192
  6294                           
  6295                           ;Config register CONFIG6L @ 0x30000A
  6296                           ;	Write Protection bit
  6297                           ;	WRT0 = OFF, Block 0 (000200-000FFFh) not write-protected
  6298                           ;	Write Protection bit
  6299                           ;	WRT1 = OFF, Block 1 (001000-001FFF) not write-protected
  6300                           ;	Write Protection bit
  6301                           ;	WRT2 = OFF, Block 2 (002000-002FFFh) not write-protected
  6302                           ;	Write Protection bit
  6303                           ;	WRT3 = OFF, Block 3 (003000-003FFFh) not write-protected
  6304  30000A                     	org	3145738
  6305  30000A  0F                 	db	15
  6306                           
  6307                           ;Config register CONFIG6H @ 0x30000B
  6308                           ;	Configuration Register Write Protection bit
  6309                           ;	WRTC = OFF, Configuration registers (300000-3000FFh) not write-protected
  6310                           ;	Boot Block Write Protection bit
  6311                           ;	WRTB = OFF, Boot Block (000000-0001FFh) not write-protected
  6312                           ;	Data EEPROM Write Protection bit
  6313                           ;	WRTD = OFF, Data EEPROM not write-protected
  6314  30000B                     	org	3145739
  6315  30000B  E0                 	db	224
  6316                           
  6317                           ;Config register CONFIG7L @ 0x30000C
  6318                           ;	Table Read Protection bit
  6319                           ;	EBTR0 = OFF, Block 0 (000200-000FFFh) not protected from table reads executed in other
      +                           blocks
  6320                           ;	Table Read Protection bit
  6321                           ;	EBTR1 = OFF, Block 1 (001000-001FFF) not protected from table reads executed in other 
      +                          blocks
  6322                           ;	Table Read Protection bit
  6323                           ;	EBTR2 = OFF, Block 2 (002000-002FFFh) not protected from table reads executed in other
      +                           blocks
  6324                           ;	Table Read Protection bit
  6325                           ;	EBTR3 = OFF, Block 3 (003000-003FFFh) not protected from table reads executed in other
      +                           blocks
  6326  30000C                     	org	3145740
  6327  30000C  0F                 	db	15
  6328                           
  6329                           ;Config register CONFIG7H @ 0x30000D
  6330                           ;	Boot Block Table Read Protection bit
  6331                           ;	EBTRB = OFF, Boot Block (000000-0001FFh) not protected from table reads executed in ot
      +                          her blocks
  6332  30000D                     	org	3145741
  6333  30000D  40                 	db	64
  6334                           tosu	equ	0xFFF
  6335                           tosh	equ	0xFFE
  6336                           tosl	equ	0xFFD
  6337                           stkptr	equ	0xFFC
  6338                           pclatu	equ	0xFFB
  6339                           pclath	equ	0xFFA
  6340                           pcl	equ	0xFF9
  6341                           tblptru	equ	0xFF8
  6342                           tblptrh	equ	0xFF7
  6343                           tblptrl	equ	0xFF6
  6344                           tablat	equ	0xFF5
  6345                           prodh	equ	0xFF4
  6346                           prodl	equ	0xFF3
  6347                           indf0	equ	0xFEF
  6348                           postinc0	equ	0xFEE
  6349                           postdec0	equ	0xFED
  6350                           preinc0	equ	0xFEC
  6351                           plusw0	equ	0xFEB
  6352                           fsr0h	equ	0xFEA
  6353                           fsr0l	equ	0xFE9
  6354                           wreg	equ	0xFE8
  6355                           indf1	equ	0xFE7
  6356                           postinc1	equ	0xFE6
  6357                           postdec1	equ	0xFE5
  6358                           preinc1	equ	0xFE4
  6359                           plusw1	equ	0xFE3
  6360                           fsr1h	equ	0xFE2
  6361                           fsr1l	equ	0xFE1
  6362                           bsr	equ	0xFE0
  6363                           indf2	equ	0xFDF
  6364                           postinc2	equ	0xFDE
  6365                           postdec2	equ	0xFDD
  6366                           preinc2	equ	0xFDC
  6367                           plusw2	equ	0xFDB
  6368                           fsr2h	equ	0xFDA
  6369                           fsr2l	equ	0xFD9
  6370                           status	equ	0xFD8

Data Sizes:
    Strings     105
    Constant    0
    Data        0
    BSS         8
    Persistent  0
    Stack       0

Auto Spaces:
    Space          Size  Autos    Used
    COMRAM           94     23      31
    BANK0           160      0       0
    BANK1           256      0       0
    BANK2           256      0       0

Pointer List with Targets:

    acao	PTR unsigned char  size(2) Largest target is 767
		 -> RAM(DATA[767]), NULL(NULL[0]), STR_29(CODE[2]), STR_15(CODE[6]), 
		 -> STR_14(CODE[6]), STR_13(CODE[5]), STR_12(CODE[7]), STR_11(CODE[9]), 
		 -> STR_10(CODE[8]), STR_9(CODE[3]), STR_8(CODE[3]), STR_7(CODE[6]), 
		 -> STR_6(CODE[7]), STR_5(CODE[8]), STR_4(CODE[5]), STR_3(CODE[9]), 
		 -> STR_2(CODE[10]), STR_1(CODE[6]), 

    stringUSART@frase	PTR unsigned char  size(2) Largest target is 5
		 -> STR_16(CODE[5]), 


Critical Paths under _main in COMRAM

    _main->_estrela
    _testarLinha->_moverMotor
    _estrela->_testarDistancia
    _testarDistancia->_moverMotor
    _moverMotor->___wmul

Critical Paths under _ISR in COMRAM

    _ISR->_readUSART

Critical Paths under _main in BANK0

    None.

Critical Paths under _ISR in BANK0

    None.

Critical Paths under _main in BANK1

    None.

Critical Paths under _ISR in BANK1

    None.

Critical Paths under _main in BANK2

    None.

Critical Paths under _ISR in BANK2

    None.

Call Graph Tables:

 ---------------------------------------------------------------------------------
 (Depth) Function   	        Calls       Base Space   Used Autos Params    Refs
 ---------------------------------------------------------------------------------
 (0) _main                                                 8     8      0  107957
                                             15 COMRAM     8     8      0
                            _estrela
                         _moverMotor
                         _pararMotor
                           _picUSART
                              _setBT
                              _setIO
                             _setPWM
                            _setTMR0
                            _setTMR1
                        _stringUSART
                    _testarDistancia
                        _testarLinha
 ---------------------------------------------------------------------------------
 (1) _testarLinha                                          4     4      0   21535
                                             11 COMRAM     2     2      0
                         _moverMotor
                         _pararMotor
 ---------------------------------------------------------------------------------
 (1) _stringUSART                                          6     4      2     166
                                              1 COMRAM     6     4      2
                           _testBuff
 ---------------------------------------------------------------------------------
 (1) _setTMR1                                              0     0      0       0
 ---------------------------------------------------------------------------------
 (1) _setTMR0                                              0     0      0       0
 ---------------------------------------------------------------------------------
 (1) _setPWM                                               0     0      0       0
 ---------------------------------------------------------------------------------
 (1) _setIO                                                0     0      0       0
 ---------------------------------------------------------------------------------
 (1) _setBT                                                0     0      0       0
 ---------------------------------------------------------------------------------
 (1) _picUSART                                             1     1      0      15
                                              1 COMRAM     1     1      0
                           _testBuff
 ---------------------------------------------------------------------------------
 (2) _testBuff                                             0     0      0       0
 ---------------------------------------------------------------------------------
 (1) _estrela                                              2     2      0   43026
                                             13 COMRAM     2     2      0
                         _moverMotor
                         _pararMotor
                    _testarDistancia
 ---------------------------------------------------------------------------------
 (1) _testarDistancia                                      4     4      0   21712
                                             11 COMRAM     2     2      0
                         _moverMotor
                         _pararMotor
 ---------------------------------------------------------------------------------
 (2) _pararMotor                                           0     0      0       0
 ---------------------------------------------------------------------------------
 (2) _moverMotor                                           4     1      3   21314
                                              7 COMRAM     4     1      3
                             ___wmul
 ---------------------------------------------------------------------------------
 (3) ___wmul                                               6     2      4     311
                                              1 COMRAM     6     2      4
 ---------------------------------------------------------------------------------
 Estimated maximum stack depth 3
 ---------------------------------------------------------------------------------
 (Depth) Function   	        Calls       Base Space   Used Autos Params    Refs
 ---------------------------------------------------------------------------------
 (5) _ISR                                                  0     0      0      15
                          _readUSART
                       i2_pararMotor
 ---------------------------------------------------------------------------------
 (6) i2_pararMotor                                         0     0      0       0
 ---------------------------------------------------------------------------------
 (6) _readUSART                                            1     1      0      15
                                              0 COMRAM     1     1      0
 ---------------------------------------------------------------------------------
 Estimated maximum stack depth 6
 ---------------------------------------------------------------------------------

 Call Graph Graphs:

 _main (ROOT)
   _estrela
     _moverMotor
       ___wmul
     _pararMotor
     _testarDistancia
       _moverMotor
       _pararMotor
   _moverMotor
   _pararMotor
   _picUSART
     _testBuff
   _setBT
   _setIO
   _setPWM
   _setTMR0
   _setTMR1
   _stringUSART
     _testBuff
   _testarDistancia
   _testarLinha
     _moverMotor
     _pararMotor

 _ISR (ROOT)
   _readUSART
   i2_pararMotor

 Address spaces:
Name               Size   Autos  Total    Cost      Usage
BIGRAM             2FF      0       0      10        0.0%
EEDATA             100      0       0       0        0.0%
BITBANK2           100      0       0       8        0.0%
BANK2              100      0       0       9        0.0%
BITBANK1           100      0       0       6        0.0%
BANK1              100      0       0       7        0.0%
BITBANK0            A0      0       0       4        0.0%
BANK0               A0      0       0       5        0.0%
BITCOMRAM           5E      0       0       0        0.0%
COMRAM              5E     17      1F       1       33.0%
BITSFR               0      0       0     200        0.0%
SFR                  0      0       0     200        0.0%
STACK                0      0       0       2        0.0%
NULL                 0      0       0       0        0.0%
ABS                  0      0      1F       3        0.0%
DATA                 0      0      1F      11        0.0%
CODE                 0      0       0       0        0.0%


Microchip Technology PIC18 Macro Assembler V2.32 build 20210201212658 
Symbol Table                                                                                   Thu Nov 18 22:06:44 2021

                              u70 2416                                u71 2412  
             ___wmul@multiplicand 0004                               l131 23CE  
                             l140 2416                               l300 10B6  
                             l134 23E2                               l302 1124  
                             l230 04AE                               l320 1492  
                             l312 12C0                               l304 1192  
                             l240 06D4                               l232 051C  
                             l137 2408                               l161 232C  
                             l146 23F6                               l410 1FE2  
                             l322 1500                               l314 1348  
                             l306 1200                               l242 0742  
                             l234 058A                               l403 1EFE  
                             l155 22F8                               l164 2420  
                             l332 16C6                               l324 156E  
                             l316 13B6                               l260 0A42  
                             l252 08FA                               l244 07B0  
                             l236 05F8                               l165 2424  
                             l413 2076                               l229 0440  
                             l406 1F44                               l326 15DC  
                             l318 1424                               l270 0C68  
                             l262 0AB0                               l246 081E  
                             l238 0666                               l255 092E  
                             l168 23FC                               l408 1F9E  
                             l280 0DD0                               l272 0CD6  
                             l264 0B1E                               l169 2406  
                             l409 2076                               l442 21BC  
                             l290 0E76                               l266 0B8C  
                             l258 09D4                               l435 209C  
                             l292 0EFE                               l268 0BFA  
                             l437 20E0                               l382 2374  
                             l438 21BC                               l294 0F6C  
                             l286 16D0                               l391 1CD4  
                             l439 2124                               l296 0FDA  
                             l457 2352                               l393 1D42  
                             l385 1B8A                               l298 1048  
                             l379 2298                               l395 1DB0  
                             l387 1BF8                               l397 1E1E  
                             l389 1C66                               l399 1E8C  
                             _ISR 0008                               _PSA 007EAB  
                             _ini 0018                               wreg 000FE8  
                            ?_ISR 0001                              l2200 21C0  
                            l1136 2354                              l1320 22FA  
                            l3000 18BC                              l2210 2206  
                            l2202 21DC                              l1322 230E  
                            l3010 1958                              l3002 18E0  
                            l2220 224E                              l2212 2216  
                            l2204 21EE                              l2300 1DCC  
                            l1172 2408                              l1324 2418  
                            l3020 19BA                              l3012 1972  
                            l3004 18FA                              l2230 2288  
                            l2222 2250                              l2214 2228  
                            l2206 21F0                              l2310 1E3A  
                            l2302 1DDA                              l1270 23B6  
                            l1326 23F8                              l3030 1A18  
                            l3022 19D0                              l3014 1976  
                            l3006 190C                              l2232 228C  
                            l2224 2262                              l2216 2230  
                            l2208 2202                              l2320 1EA8  
                            l2312 1E48                              l2304 1DE8  
                            l2240 1B38                              l2400 217E  
                            l1280 23D6                              l1272 23B8  
                            l3040 1A5E                              l3032 1A2E  
                            l3024 19D4                              l3008 191E  
                            l3016 197E                              l2226 2266  
                            l2218 223C                              l2322 1EB6  
                            l2314 1E56                              l2306 1DF6  
                            l2250 1BA6                              l2242 1B46  
                            l2234 1B14                              l2402 2194  
                            l1290 23E0                              l1282 23D8  
                            l1274 23BC                              l2330 229A  
                            l3050 1A9C                              l3042 1A64  
                            l3034 1A32                              l3018 1996  
                            l3026 19DC                              l2410 0378  
                            l2228 2276                              l2324 1EC4  
                            l2316 1E64                              l2308 1E2C  
                            l2260 1C14                              l2252 1BB4  
                            l2244 1B54                              l2236 1B1C  
                            l2404 21A6                              l1292 23E6  
                            l1284 23DA                              l1276 23D0  
                            l2340 22F0                              l2332 22A6  
                            l3060 1AE2                              l3052 1AB2  
                            l3044 1A72                              l3028 19F4  
                            l3036 1A3A                              l2500 0682  
                            l2420 0386                              l2412 037C  
                            l2326 1ED2                              l2318 1E9A  
                            l2270 1C82                              l2262 1C22  
                            l2254 1BC2                              l2246 1B62  
                            l2238 1B2A                              l1294 23EA  
                            l1286 23DC                              l1278 23D4  
                            l2342 22F4                              l2334 22C0  
                            l2350 1F1C                              l3062 1AF0  
                            l3054 1AB8                              l3046 1A88  
                            l3038 1A48                              l2510 06F0  
                            l2502 0690                              l2430 03C2  
                            l2422 0388                              l2414 0380  
                            l2328 1EFA                              l2280 1CF0  
                            l2272 1C90                              l2264 1C30  
                            l2256 1BD0                              l2248 1B98  
                            l1296 23EE                              l1288 23DE  
                            l2336 22C4                              l2360 1FBA  
                            l2352 1F52                              l2344 1F00  
                            l3064 1B06                              l3056 1AC6  
                            l3048 1A8E                              l2600 0A50  
                            l2520 075E                              l2512 06FE  
                            l2504 069E                              l2440 0412  
                            l2432 03DA                              l2424 039A  
                            l2416 0382                              l2408 036C  
                            l2194 232E                              l2290 1D5E  
                            l2282 1CFE                              l2274 1C9E  
                            l2266 1C3E                              l2258 1C06  
                            l1298 23F2                              l2338 22C8  
                            l2370 2038                              l2354 1F60  
                            l2346 1F00                              l3058 1ADC  
                            l2610 0ABE                              l2602 0A5E  
                            l2530 07CC                              l2522 076C  
                            l2514 070C                              l2506 06AC  
                            l2450 045C                              l2442 0416  
                            l2434 03DE                              l2426 03A6  
                            l2418 0384                              l2196 234A  
                            l2292 1D6C                              l2284 1D0C  
                            l2276 1CAC                              l2268 1C74  
                            l2380 2086                              l2372 203C  
                            l2364 1FF0                              l2356 1F84  
                            l2348 1F0E                              l2700 0E2A  
                            l2620 0B2C                              l2612 0ACC  
                            l2604 0A6C                              l2540 083A  
                            l2532 07DA                              l2524 077A  
                            l2516 071A                              l2508 06E2  
                            l2460 04CA                              l2452 046A  
                            l2444 042E                              l2436 03F6  
                            l2428 03BE                              l2294 1D7A  
                            l2286 1D1A                              l2278 1CE2  
                            l2390 20FC                              l2382 2094  
                            l2374 204E                              l2366 1FFE  
                            l2358 1FAC                              l2710 0E6E  
                            l2702 0E3C                              l2630 0B9A  
                            l2622 0B3A                              l2614 0ADA  
                            l2606 0A7A                              l2542 0848  
                            l2534 07E8                              l2526 0788  
                            l2518 0750                              l2470 0538  
                            l2462 04D8                              l2550 08B0  
                            l2454 0478                              l2446 0430  
                            l2438 03FA                              l2296 1D88  
                            l2288 1D50                              l2392 2132  
                            l2384 20AA                              l2376 2060  
                            l2368 2022                              l2800 120E  
                            l2720 0E9E                              l2712 0E84  
                            l2704 0E4E                              l2640 0C08  
                            l2632 0BA8                              l2624 0B48  
                            l2616 0AE8                              l2608 0A88  
                            l2560 08E2                              l2552 08BE  
                            l2544 0856                              l2536 07F6  
                            l2528 07BE                              l2480 05A6  
                            l2472 0546                              l2464 04E6  
                            l2456 0486                              l2448 044E  
                            l2298 1DBE                              l2394 2140  
                            l2386 20B8                              l2378 2078  
                            l2802 121C                              l2810 126E  
                            l2730 0F0C                              l2722 0EAC  
                            l2714 0E86                              l2706 0E68  
                            l2650 0C76                              l2642 0C16  
                            l2634 0BB6                              l2626 0B56  
                            l2618 0AF6                              l2570 093C  
                            l2554 08C0                              l2546 0864  
                            l2538 082C                              l2490 0614  
                            l2482 05B4                              l2474 0554  
                            l2466 04F4                              l2458 04BC  
                            l2562 08EA                              l2396 2164  
                            l2388 20EE                              l2900 15F8  
                            l2820 12CE                              l2804 122A  
                            l2740 0F7A                              l2732 0F1A  
                            l2812 1292                              l2724 0EBA  
                            l2716 0E8E                              l2708 0E6A  
                            l2660 0CE4                              l2652 0C84  
                            l2644 0C24                              l2636 0BC4  
                            l2628 0B64                              l2580 0974  
                            l2572 093E                              l2556 08C8  
                            l2548 088C                              l2492 0622  
                            l2484 05C2                              l2476 0562  
                            l2468 052A                              l2564 08FC  
                            l2398 217A                              l2902 1606  
                            l2830 12F6                              l2822 12D0  
                            l2910 166E                              l2814 12A2  
                            l2806 1238                              l2750 0FE8  
                            l2742 0F88                              l2734 0F28  
                            l2726 0EC8                              l2718 0E90  
                            l2662 0CF2                              l2670 0D44  
                            l2654 0C92                              l2646 0C32  
                            l2638 0BD2                              l2590 09E2  
                            l2582 0982                              l2574 0946  
                            l2566 0914                              l2558 08CA  
                            l2494 0630                              l2486 05D0  
                            l2478 0598                              l2920 16B4  
                            l2912 167E                              l2904 1614  
                            l2840 1364                              l2832 1304  
                            l2824 12D8                              l2816 12A6  
                            l2808 1246                              l2760 1056  
                            l2752 0FF6                              l2744 0F96  
                            l2736 0F36                              l2728 0ED6  
                            l2680 0D98                              l2672 0D5E  
                            l2664 0D00                              l2656 0CA0  
                            l2648 0C40                              l2592 09F0  
                            l2584 0990                              l2576 094A  
                            l2568 0916                              l2496 063E  
                            l2488 0606                              l2930 16F2  
                            l2914 1682                              l2906 1622  
                            l2850 13D2                              l2842 1372  
                            l2834 1312                              l2826 12DA  
                            l2818 12AA                              l2770 10C4  
                            l2762 1064                              l2754 1004  
                            l2746 0FA4                              l2738 0F44  
                            l2922 16B6                              l2690 0DEA  
                            l2674 0D86                              l2666 0D0E  
                            l2658 0CAE                              l2594 09FE  
                            l2682 0DA0                              l2586 099E  
                            l2578 0966                              l2498 0674  
                            l2940 173A                              l2932 170A  
                            l2924 16C8                              l2916 1694  
                            l2908 164A                              l2860 1440  
                            l2852 13E0                              l2844 1380  
                            l2836 1320                              l2828 12E8  
                            l2780 1132                              l2772 10D2  
                            l2764 1072                              l2756 1012  
                            l2748 0FB2                              l2692 0DEE  
                            l2684 0DB8                              l2668 0D1C  
                            l2596 0A0C                              l2588 09AC  
                            l2676 0D8E                              l2950 177E  
                            l2942 1746                              l2934 1712  
                            l2926 16E8                              l2918 16AC  
                            l2870 14AE                              l2862 144E  
                            l2854 13EE                              l2846 138E  
                            l2838 1356                              l2790 11A0  
                            l2782 1140                              l2774 10E0  
                            l2766 1080                              l2758 1020  
                            l2694 0E06                              l2678 0D96  
                            l2598 0A1A                              l2686 0DC0  
                            l2960 17C4                              l2952 1780  
                            l2936 171E                              l2928 16F0  
                            l2880 151C                              l2872 14BC  
                            l2864 145C                              l2856 13FC  
                            l2848 13C4                              l2792 11AE  
                            l2784 114E                              l2776 10EE  
                            l2768 108E                              l2696 0E0A  
                            l2688 0DD2                              l2970 1804  
                            l2962 17CC                              l2954 1798  
                            l2938 1736                              l2946 175E  
                            l2890 158A                              l2882 152A  
                            l2874 14CA                              l2866 146A  
                            l2858 1432                              l2794 11BC  
                            l2786 115C                              l2778 10FC  
                            l2698 0E22                              l2980 182C  
                            l2972 180C                              l2964 17D4  
                            l2956 179C                              l2948 1776  
                            l2892 1598                              l2884 1538  
                            l2876 14D8                              l2868 14A0  
                            l2796 11CA                              l2788 116A  
                            l2990 187C                              l2982 1838  
                            l2974 180E                              l2958 17AC  
                            l2894 15A6                              l2886 1546  
                            l2878 150E                              l2798 11D8  
                            l2992 1884                              l2984 184C  
                            l2976 1810                              l2968 17EC  
                            l2896 15B4                              l2888 157C  
                            l2994 189C                              l2986 1864  
                            l2978 1828                              l2898 15EA  
                            l2988 186C                              l2996 18A0  
                            l2998 18B8                              STR_1 033B  
                            STR_2 0301                              STR_3 0314  
                            STR_4 0358                              STR_5 031D  
                            STR_6 0334                              STR_7 0341  
                            STR_8 0362                              STR_9 0365  
                            _RD16 007E6F                              _T0CS 007EAD  
                            u4000 046A                              u4001 0466  
                            u4010 0478                              u4011 0474  
                            u3300 1B2A                              u4100 0546  
                            u4020 0486                              u3301 1B26  
                            u4101 0542                              u4021 0482  
                            u3310 1B38                              u4110 0554  
                            u4030 04BC                              u3311 1B34  
                            u4111 0550                              u4031 04B8  
                            u3240 21EE                              u3400 1C06  
                            u3320 1B46                              u5000 0DB8  
                            u4200 0622                              u4120 0562  
                            u4040 04CA                              u3241 21EA  
                            u3401 1C02                              u3321 1B42  
                            u5001 0DB4                              u4201 061E  
                            u4121 055E                              u4041 04C6  
                            u3250 2202                              u3410 1C14  
                            u3330 1B54                              u5010 0DD0  
                            u4210 0630                              u4130 0598  
                            u4050 04D8                              u3251 21FE  
                            u3411 1C10                              u3331 1B50  
                            u5011 0DCC                              u4211 062C  
                            u4131 0594                              u4051 04D4  
                            u3260 2228                              u3500 1CE2  
                            u3420 1C22                              u3340 1B62  
                            u5100 0ED6                              u5020 0DEA  
                            u4300 06FE                              u4220 063E  
                            u4140 05A6                              u4060 04E6  
                            u3261 2224                              u3501 1CDE  
                            u3421 1C1E                              u3341 1B5E  
                            u5101 0ED2                              u5021 0DE6  
                            u4301 06FA                              u4221 063A  
                            u4141 05A2                              u4061 04E2  
                            u3270 224E                              u3510 1CF0  
                            u3430 1C30                              u3350 1B98  
                            u5110 0F0C                              u5030 0E06  
                            u4310 070C                              u4230 0674  
                            u4150 05B4                              u4070 04F4  
                            u3271 224A                              u3511 1CEC  
                            u3431 1C2C                              u3351 1B94  
                            u5111 0F08                              u5031 0E02  
                            u4311 0708                              u4231 0670  
                            u4151 05B0                              u4071 04F0  
                            u3280 2262                              u3600 1DBE  
                            u3520 1CFE                              u3440 1C3E  
                            u3360 1BA6                              u6000 1776  
                            u5200 0FB2                              u5120 0F1A  
                            u5040 0E22                              u4400 07DA  
                            u4320 071A                              u4240 0682  
                            u4160 05C2                              u4080 052A  
                            u3281 225E                              u3601 1DBA  
                            u3521 1CFA                              u3441 1C3A  
                            u3361 1BA2                              u6001 1772  
                            u5201 0FAE                              u5121 0F16  
                            u5041 0E1E                              u4401 07D6  
                            u4321 0716                              u4241 067E  
                            u4161 05BE                              u4081 0526  
                            u3290 2288                              u3610 1DCC  
                            u3530 1D0C                              u3450 1C74  
                            u3370 1BB4                              u6010 1798  
                            u5210 0FE8                              u5130 0F28  
                            u5050 0E84                              u4410 07E8  
                            u4330 0750                              u4250 0690  
                            u4170 05D0                              u4090 0538  
                            u3291 2284                              u3611 1DC8  
                            u3531 1D08                              u3451 1C70  
                            u3371 1BB0                              u6011 1794  
                            u5211 0FE4                              u5131 0F24  
                            u5051 0E80                              u4411 07E4  
                            u4331 074C                              u4251 068C  
                            u4171 05CC                              u4091 0534  
                            u3700 1E9A                              u3620 1DDA  
                            u3540 1D1A                              u3460 1C82  
                            u3380 1BC2                              u6100 19F4  
                            u6020 17C4                              u5300 108E  
                            u5220 0FF6                              u5140 0F36  
                            u5060 0E9E                              u4500 08FA  
                            u4420 07F6                              u4340 075E  
                            u4260 069E                              u4180 0606  
                            u3701 1E96                              u3621 1DD6  
                            u3541 1D16                              u3461 1C7E  
                            u3381 1BBE                              u6101 19F0  
                            u6021 17C0                              u5301 108A  
                            u5221 0FF2                              u5141 0F32  
                            u5061 0E9A                              u4501 08F6  
                            u4421 07F2                              u4341 075A  
                            u4261 069A                              u4181 0602  
                            u3710 1EA8                              u3630 1DE8  
                            u3550 1D50                              u3470 1C90  
                            u3390 1BD0                              u6110 1A48  
                            u6030 17EC                              u5310 10C4  
                            u5230 1004                              u5150 0F44  
                            u5070 0EAC                              u4510 0914  
                            u4430 082C                              u4350 076C  
                            u4270 06AC                              u4190 0614  
                            u3711 1EA4                              u3631 1DE4  
                            u3551 1D4C                              u3471 1C8C  
                            u3391 1BCC                              u6111 1A44  
                            u6031 17E8                              u5311 10C0  
                            u5231 1000                              u5151 0F40  
                            u5071 0EA8                              u4511 0910  
                            u4431 0828                              u4351 0768  
                            u4271 06A8                              u4191 0610  
                            u3720 1EB6                              u3640 1DF6  
                            u3560 1D5E                              u3480 1C9E  
                            u3800 1FAC                              u6120 1A72  
                            u6040 1804                              u5400 116A  
                            u5320 10D2                              u5240 1012  
                            u5160 0F7A                              u5080 0EBA  
                            u4600 09F0                              u4520 093C  
                            u4440 083A                              u4360 077A  
                            u4280 06E2                              u3721 1EB2  
                            u3641 1DF2                              u3561 1D5A  
                            u3481 1C9A                              u3801 1FA8  
                            u6121 1A6E                              u6041 1800  
                            u5401 1166                              u5321 10CE  
                            u5241 100E                              u5161 0F76  
                            u5081 0EB6                              u4601 09EC  
                            u4521 0938                              u4441 0836  
                            u4361 0776                              u4281 06DE  
                            u3730 1EC4                              u3650 1E2C  
                            u3570 1D6C                              u3490 1CAC  
                            u3810 1FBA                              u6130 1A9C  
                            u6050 1828                              u5410 11A0  
                            u5330 10E0                              u5250 1020  
                            u5170 0F88                              u5090 0EC8  
                            u4610 09FE                              u4530 0966  
                            u4450 0848                              u4370 0788  
                            u4290 06F0                              u3731 1EC0  
                            u3651 1E28                              u3571 1D68  
                            u3491 1CA8                              u3811 1FB6  
                            u6131 1A98                              u6051 1824  
                            u5411 119C                              u5331 10DC  
                            u5251 101C                              u5171 0F84  
                            u5091 0EC4                              u4611 09FA  
                            u4531 0962                              u4451 0844  
                            u4371 0784                              u4291 06EC  
                            u3740 1ED2                              u3660 1E3A  
                            u3580 1D7A                              u3900 2132  
                            u3820 1FF0                              u6140 1AC6  
                            u6060 1864                              u5500 1246  
                            u5420 11AE                              u5340 10EE  
                            u5260 1056                              u5180 0F96  
                            u4700 0ACC                              u4620 0A0C  
                            u4540 0974                              u4460 0856  
                            u4380 07BE                              u3741 1ECE  
                            u3661 1E36                              u3581 1D76  
                            u3901 212E                              u3821 1FEC  
                            u6141 1AC2                              u6061 1860  
                            u5501 1242                              u5421 11AA  
                            u5341 10EA                              u5261 1052  
                            u5181 0F92                              u4701 0AC8  
                            u4621 0A08                              u4541 0970  
                            u4461 0852                              u4381 07BA  
                            u3670 1E48                              u3590 1D88  
                            u3910 2140                              u3750 22F0  
                            u3830 1FFE                              u6150 1AF0  
                            u6070 189C                              u5510 12A2  
                            u5430 11BC                              u5350 10FC  
                            u5270 1064                              u5190 0FA4  
                            u4710 0ADA                              u4630 0A1A  
                            u4550 0982                              u4470 0864  
                            u4390 07CC                              u3671 1E44  
                            u3591 1D84                              u3911 213C  
                            u3751 22EC                              u3831 1FFA  
                            u6151 1AEC                              u6207 1928  
                            u6071 1898                              u5511 129E  
                            u5431 11B8                              u5351 10F8  
                            u5271 1060                              u5191 0FA0  
                            u4711 0AD6                              u4631 0A16  
                            u4551 097E                              u4471 0860  
                            u4391 07C8                              u3680 1E56  
                            u3840 2086                              u3760 1F0E  
                            u6080 18B8                              u5600 1372  
                            u5520 12CE                              u5440 11CA  
                            u5360 1132                              u5280 1072  
                            u4800 0BA8                              u4720 0AE8  
                            u4640 0A50                              u4560 0990  
                            u4480 08BE                              u3920 039A  
                            u3681 1E52                              u3841 2082  
                            u3761 1F0A                              u6217 1962  
                            u6081 18B4                              u5601 136E  
                            u5521 12CA                              u5441 11C6  
                            u5361 112E                              u5281 106E  
                            u4801 0BA4                              u4721 0AE4  
                            u4641 0A4C                              u4561 098C  
                            u4481 08BA                              u3921 0396  
                            u3690 1E64                              u3850 2094  
                            u3770 1F1C                              u6090 1996  
                            u5610 1380                              u5530 12E8  
                            u5450 11D8                              u5370 1140  
                            u5290 1080                              u4810 0BB6  
                            u4730 0AF6                              u4650 0A5E  
                            u4570 099E                              u4490 08E2  
                            u3930 03BE                              u3691 1E60  
                            u3851 2090                              u6307 202C  
                            u3771 1F18                              u6227 19C4  
                            u6091 1992                              u5611 137C  
                            u5531 12E4                              u5451 11D4  
                            u5371 113C                              u5291 107C  
                            u4811 0BB2                              u4731 0AF2  
                            u4651 0A5A                              u4571 099A  
                            u4491 08DE                              u3931 03BA  
                            u3860 20AA                              u3780 1F52  
                            u5700 144E                              u5620 138E  
                            u5540 12F6                              u5460 120E  
                            u5380 114E                              u4900 0C84  
                            u4820 0BC4                              u4740 0B2C  
                            u4660 0A6C                              u4580 09AC  
                            u3940 03DA                              u3861 20A6  
                            u6317 2042                              u3781 1F4E  
                            u6237 1A22                              u5701 144A  
                            u5621 138A                              u5541 12F2  
                            u5461 120A                              u5381 114A  
                            u4901 0C80                              u4821 0BC0  
                            u4741 0B28                              u4661 0A68  
                            u4581 09A8                              u3941 03D6  
                            u3870 20B8                              u3790 1F60  
                            u5710 145C                              u5630 13C4  
                            u5550 1304                              u5470 121C  
                            u5390 115C                              u4910 0C92  
                            u4830 0BD2                              u4750 0B3A  
                            u4670 0A7A                              u4590 09E2  
                            u3950 03F6                              u6327 216E  
                            u3871 20B4                              u3791 1F5C  
                            u6247 1A52                              u5711 1458  
                            u5631 13C0                              u5551 1300  
                            u5471 1218                              u5391 1158  
                            u6167 0E58                              u4911 0C8E  
                            u4831 0BCE                              u4751 0B36  
                            u4671 0A76                              u4591 09DE  
                            u3951 03F2                              u3880 20EE  
                            u5800 152A                              u5720 146A  
                            u5640 13D2                              u5560 1312  
                            u5480 122A                              u4920 0CA0  
                            u4840 0C08                              u4760 0B48  
                            u4680 0A88                              u3960 0412  
                            u6337 2188                              u3881 20EA  
                            u6257 1A7C                              u5801 1526  
                            u5721 1466                              u5641 13CE  
                            u5561 130E                              u6177 12B0  
                            u5481 1226                              u4921 0C9C  
                            u4841 0C04                              u4761 0B44  
                            u4681 0A84                              u3961 040E  
                            u3890 20FC                              u5810 1538  
                            u5730 14A0                              u5650 13E0  
                            u5570 1320                              u5490 1238  
                            u4930 0CAE                              u4850 0C16  
                            u4770 0B56                              u4690 0ABE  
                            u3970 042E                              u3891 20F8  
                            u6267 1AA6                              u6187 1688  
                            u5811 1534                              u5731 149C  
                            u5651 13DC                              u5571 131C  
                            u5491 1234                              u4931 0CAA  
                            u4851 0C12                              u4771 0B52  
                            u4691 0ABA                              u3971 042A  
                            u5900 1606                              u5820 1546  
                            u5740 14AE                              u5660 13EE  
                            u5580 1356                              u4940 0CE4  
                            u4860 0C24                              u4780 0B64  
                            u3980 044E                              u6277 1AD0  
                            u6197 18EA                              u5901 1602  
                            u5821 1542                              u5741 14AA  
                            u5661 13EA                              u5581 1352  
                            u4941 0CE0                              u4861 0C20  
                            u4781 0B60                              u3981 044A  
                            u5910 1614                              u5830 157C  
                            u5750 14BC                              u5670 13FC  
                            u5590 1364                              u4950 0CF2  
                            u4870 0C32                              u4790 0B9A  
                            u3990 045C                              u6287 1AFA  
                            u5911 1610                              u5831 1578  
                            u5751 14B8                              u5671 13F8  
                            u5591 1360                              u4951 0CEE  
                            u4871 0C2E                              u4791 0B96  
                            u3991 0458                              u5920 1622  
                            u5840 158A                              u5760 14CA  
                            u5680 1432                              u4960 0D00  
                            u4880 0C40                              u6297 1F8E  
                            u5921 161E                              u5841 1586  
                            u5761 14C6                              u5681 142E  
                            u4961 0CFC                              u4881 0C3C  
                            u5930 167E                              u5850 1598  
                            u5770 14D8                              u5690 1440  
                            u4970 0D0E                              u4890 0C76  
                            u5931 167A                              u5851 1594  
                            u5771 14D4                              u5691 143C  
                            u4971 0D0A                              u4891 0C72  
                            u5940 16AC                              u5860 15A6  
                            u5780 150E                              u4980 0D1C  
                            u5941 16A8                              u5861 15A2  
                            u5781 150A                              u4981 0D18  
                            u5950 16C6                              u5870 15B4  
                            u5790 151C                              u4990 0D5E  
                            u5951 16C2                              u5871 15B0  
                            u5791 1518                              u4991 0D5A  
                            u5960 16E8                              u5880 15EA  
                            u5961 16E4                              u5881 15E6  
                            u5970 170A                              u5890 15F8  
                            u5971 1706                              u5891 15F4  
                            u5980 1736                              u5981 1732  
                            u5990 175E                              u5991 175A  
                            _acao 001C                              _lado 001F  
                            _main 036C                              btemp 0020  
                            prodh 000FF4                              prodl 000FF3  
                            start 0276                       _stringUSART 229A  
                    ___param_bank 000000                             ??_ISR 0002  
                           ?_main 0001                      main@cont_tmr 0012  
                    main@cont_zig 0013                             STR_10 0325  
                           STR_11 030B                             STR_20 0347  
                           STR_12 032D                             STR_21 0358  
                           STR_13 035D                             STR_30 030B  
                           STR_22 0347                             STR_14 034D  
                           STR_23 0314                             STR_31 035D  
                           STR_15 0347                             STR_32 032D  
                           STR_24 0347                             STR_40 035D  
                           STR_16 0353                             STR_17 033B  
                           STR_25 031D                             STR_41 0347  
                           STR_33 0347                             STR_42 0341  
                           STR_34 0325                             STR_26 0347  
                           STR_18 0347                             STR_19 0301  
                           STR_43 0362                             STR_35 032D  
                           STR_27 0334                             STR_44 0365  
                           STR_28 0347                             STR_36 035D  
                           STR_37 0347                             STR_29 0368  
                           STR_38 034D                             STR_39 032D  
                           _PDC0H 000F78                             _T0PS0 007EA8  
                           _PDC1H 000F76                             _DTCON 000F6D  
                           _PDC2H 000F74                             _PDC0L 000F79  
                           _PDC1L 000F77                             _PDC3H 000F72  
                           _PDC2L 000F75                             _PDC3L 000F73  
                           _T1RUN 007E6E                             i2l208 0272  
                           i2l149 242C                             i2l187 0036  
                           i2l382 2396                             _RCREG 000FAE  
                           _TMR0H 000FD7                             _TMR1H 000FCF  
                           _TMR0L 000FD6                             _TMR1L 000FCE  
                           _SPBRG 000FAF                             _PORTB 000F81  
                           _PORTD 000F83                             _PTMRH 000F7C  
                           _PTMRL 000F7D                             _TRISA 000F92  
                           _TRISB 000F93                             _TRISC 000F94  
                           _TRISD 000F95                             _TRISE 000F96  
                           _TXREG 000FAD                             _setBT 23D0  
                           _setIO 23B6                   __end_of_estrela 21BE  
                 __end_of_setTMR0 2426                   __end_of_setTMR1 2408  
                           tablat 000FF5                             ttemp5 0021  
                           ttemp6 0024                             ttemp7 0028  
                           status 000FD8                             wtemp8 0021  
                 __initialization 2398                      __end_of_main 1B14  
                          ??_main 0010                     __activetblptr 000001  
                          ?_setBT 0001             __size_ofi2_pararMotor 0022  
                          ?_setIO 0001                            _ANSEL0 000FB8  
                          _ANSEL1 000FB9                            i2l1300 2426  
                          i2l1302 242A                            i2l1410 003A  
                          _T1SYNC 007E6A                            i2l1420 0086  
                          i2l1412 004E                            i2l1404 000A  
                          i2l1430 00C6                            i2l1422 008E  
                          i2l1414 0056                            i2l1406 0018  
                          i2l1440 0112                            i2l1432 00DA  
                          i2l1424 00A2                            i2l1416 006A  
                          i2l1408 0028                            i2l1450 0152  
                          i2l1442 011A                            i2l1434 00E2  
                          i2l1426 00AA                            i2l1418 0072  
                          i2l1460 019E                            i2l1452 0166  
                          i2l1444 012E                            i2l1436 00F6  
                          i2l1428 00BE                            i2l1470 01F4  
                          i2l1462 01A6                            i2l1454 016E  
                          i2l1446 0136                            i2l1438 00FE  
                          i2l1392 2376                            i2l1480 024A  
                          i2l1472 01FC                            i2l1464 01BA  
                          i2l1456 0182                            i2l1448 014A  
                          i2l1482 0252                            i2l1474 0210  
                          i2l1466 01C2                            i2l1458 018A  
                          i2l1484 0266                            i2l1476 022E  
                          i2l1468 01D6                            i2l1486 026A  
                          i2l1478 0236                            _PTCON0 000F7F  
                          _PTCON1 000F7E                            _TMR0IF 007F92  
                          _TMR1IF 007CF0                            _TMR1CS 007E69  
                          _TMR0ON 007EAF                            _TMR1ON 007E68  
                          _PTPERH 000F7A                            _PTPERL 000F7B  
                          ___wmul 232E                  __end_of_picUSART 23F8  
                          _setPWM 22FA                            clear_0 239E  
                          isa$std 000001                  stringUSART@frase 0002  
                    i2_pararMotor 2376          __size_of_testarDistancia 03EC  
                       ??_estrela 000E                         ??_setTMR0 0002  
                       ??_setTMR1 0002                  __end_of_testBuff 2418  
                    __mediumconst 0000                            tblptrh 000FF7  
                          tblptrl 000FF6                            tblptru 000FF8  
                    ?_testarLinha 0001                        __accesstop 0060  
         __end_of__initialization 23A4                     ___rparam_used 000001  
                  __pcstackCOMRAM 0001                     __end_of_setBT 23E4  
                   __end_of_setIO 23D0                           ??_setBT 0002  
                         ??_setIO 0002                __size_of_readUSART 0008  
                    readUSART@ler 0001                      ?_stringUSART 0002  
                         ?___wmul 0002                           _T016BIT 007EAE  
                         ?_setPWM 0001                           _T1CKPS0 007E6C  
                         _T1OSCEN 007E6B                           _OVDCOND 000F6B  
                         _OVDCONS 000F6A                           i2u70_40 0018  
                         i2u70_41 0014                           i2u71_40 0028  
                         i2u71_41 0024                           i2u80_40 0112  
                         i2u72_40 0036                           i2u80_41 010E  
                         i2u72_41 0032                           i2u81_40 012E  
                         i2u73_40 004E                           i2u81_41 012A  
                         i2u73_41 004A                           i2u90_40 022E  
                         i2u82_40 014A                           i2u74_40 006A  
                         i2u90_41 022A                           i2u82_41 0146  
                         i2u74_41 0066                           i2u91_40 024A  
                         i2u83_40 0166                           i2u75_40 0086  
                         i2u91_41 0246                           i2u83_41 0162  
                         i2u75_41 0082                           i2u92_40 0266  
                         i2u84_40 0182                           i2u76_40 00A2  
                         i2u92_41 0262                           i2u84_41 017E  
                         i2u76_41 009E                           i2u85_40 019E  
                         i2u77_40 00BE                           i2u85_41 019A  
                         i2u77_41 00BA                           i2u86_40 01BA  
                         i2u78_40 00DA                           i2u86_41 01B6  
                         i2u78_41 00D6                           i2u87_40 01D6  
                         i2u79_40 00F6                           i2u87_41 01D2  
                         i2u79_41 00F2                           i2u88_40 01F4  
                         i2u88_41 01F0                           i2u89_40 0210  
                         i2u89_41 020C                           _PWMCON0 000F6F  
                         _PWMCON1 000F6E                 ??_testarDistancia 000C  
                       ?_picUSART 0001                  main@cont_tmr_702 0017  
                    stringUSART@i 0006                           __Hparam 0000  
                         __Lparam 0000                         ?_testBuff 0001  
                 __size_of___wmul 0026                      __psmallconst 0300  
                         __pcinit 2398                           __ramtop 0300  
                 __size_of_setPWM 0034                           __ptext0 036C  
                         __ptext1 1F00                           __ptext2 229A  
                         __ptext3 23F8                           __ptext4 2418  
                         __ptext5 22FA                           __ptext6 23B6  
                         __ptext7 23D0                           __ptext8 23E4  
                         __ptext9 2408                 __end_of_readUSART 242E  
                      _pararMotor 2354                      __size_of_ISR 026E  
                         _estrela 2078                           _setTMR0 2418  
                         _setTMR1 23F8                           _sentido 001E  
                         main@aux 0016              end_of_initialization 23A4  
                      ??_picUSART 0002              __size_of_testarLinha 0178  
                      _moverMotor 21BE                        ??_testBuff 0002  
                       _RCSTAbits 000FAB                           postinc0 000FEE  
                  moverMotor@lado 000B                         _PORTAbits 000F80  
                       _PORTBbits 000F81                         _PORTCbits 000F82  
                       _PORTDbits 000F83                        _velocidade 001A  
                       _TXSTAbits 000FAC              __size_of_stringUSART 0060  
                  __end_of___wmul 2354                       ?_pararMotor 0001  
                  __end_of_setPWM 232E               start_initialization 2398  
                     __end_of_ISR 0276                       ?_moverMotor 0008  
                        ??___wmul 0006                          ??_setPWM 0002  
                 _testarDistancia 1B14                       __pbssCOMRAM 0018  
               __size_of_picUSART 0014               __size_of_pararMotor 0022  
testarDistancia@velTestParaFrente 000C                         __pintcode 0008  
               __size_of_testBuff 0010                       __smallconst 0300  
                        ?_estrela 0001                          ?_setTMR0 0001  
                        ?_setTMR1 0001                         _readUSART 2426  
             __size_of_moverMotor 00DC                    __size_of_setBT 0014  
                  __size_of_setIO 001A                    ___wmul@product 0006  
                        _PIE1bits 000F9D                          _PIR1bits 000F9E  
         __end_of_testarDistancia 1F00                 ___wmul@multiplier 0002  
                   ?i2_pararMotor 0001                        ?_readUSART 0001  
                   ??_testarLinha 000C                          __Hrparam 0000  
                        __Lrparam 0000                    picUSART@status 0002  
                    __Lsmallconst 0300                    ??i2_pararMotor 0001  
                    ??_pararMotor 0002                  __size_of_estrela 0146  
                __size_of_setTMR0 000E                  __size_of_setTMR1 0010  
                        __ptext10 2078                          __ptext11 1B14  
                        __ptext12 2354                          __ptext13 21BE  
                        __ptext14 232E                          __ptext16 2376  
                        __ptext17 2426                          _picUSART 23E4  
                   __size_of_main 17A8               __end_of_testarLinha 2078  
                   ??_stringUSART 0004                __end_of_pararMotor 2376  
               moverMotor@sentido 0008                      ??_moverMotor 000B  
                        _testBuff 2408                          isa$xinst 000000  
                        int$flags 0020                  ?_testarDistancia 0001  
                        main@cont 0014                        _INTCONbits 000FF2  
                     ??_readUSART 0001                __end_of_moverMotor 229A  
                        intlevel2 0000              moverMotor@velocidade 0009  
             __end_of_stringUSART 22FA                       _testarLinha 1F00  
            __end_ofi2_pararMotor 2398  
