

Microchip MPLAB XC8 Assembler V2.32 build 20210201212658 
                                                                                               Sat Nov 20 23:23:01 2021

Microchip MPLAB XC8 C Compiler v2.32 (Free license) build 20210201212658 Og1 
     1                           	processor	18F4431
     2                           	fnconf	rparam,??,?,0
     3                           	pagewidth 120
     4                           	opt	flic
     5                           	psect	idataCOMRAM,global,class=CODE,delta=1,noexec
     6                           	psect	smallconst,global,reloc=2,class=SMALLCONST,delta=1,noexec
     7                           	psect	cinit,global,reloc=2,class=CODE,delta=1
     8                           	psect	bssCOMRAM,global,class=COMRAM,space=1,delta=1,lowdata,noexec
     9                           	psect	dataCOMRAM,global,class=COMRAM,space=1,delta=1,lowdata,noexec
    10                           	psect	cstackCOMRAM,global,class=COMRAM,space=1,delta=1,lowdata,noexec
    11                           	psect	text0,global,reloc=2,class=CODE,delta=1
    12                           	psect	text1,global,reloc=2,class=CODE,delta=1
    13                           	psect	text2,global,reloc=2,class=CODE,delta=1
    14                           	psect	text3,global,reloc=2,class=CODE,delta=1
    15                           	psect	text4,global,reloc=2,class=CODE,delta=1
    16                           	psect	text5,global,reloc=2,class=CODE,delta=1
    17                           	psect	text6,global,reloc=2,class=CODE,delta=1
    18                           	psect	text7,global,reloc=2,class=CODE,delta=1
    19                           	psect	text8,global,reloc=2,class=CODE,delta=1
    20                           	psect	text9,global,reloc=2,class=CODE,delta=1
    21                           	psect	text10,global,reloc=2,class=CODE,delta=1
    22                           	psect	text11,global,reloc=2,class=CODE,delta=1
    23                           	psect	text12,global,reloc=2,class=CODE,delta=1
    24                           	psect	text13,global,reloc=2,class=CODE,delta=1
    25                           	psect	text14,global,reloc=2,class=CODE,delta=1,group=1
    26                           	psect	text15,global,reloc=2,class=CODE,delta=1
    27                           	psect	intcode,global,reloc=2,class=CODE,delta=1
    28                           	psect	text17,global,reloc=2,class=CODE,delta=1
    29                           	psect	text18,global,reloc=2,class=CODE,delta=1
    30                           	psect	intsave_regs,global,class=BIGRAM,space=1,delta=1,noexec
    31                           	psect	rparam,global,class=COMRAM,space=1,delta=1,noexec
    32                           	psect	temp,global,ovrld,common,class=COMRAM,space=1,delta=1
    33                           	psect	idloc,global,abs,ovrld,class=IDLOC,space=5,delta=1,noexec
    34                           	psect	config,global,abs,ovrld,class=CONFIG,space=4,delta=1,noexec
    35  0000                     
    36                           ; Version 2.32
    37                           ; Generated 02/02/2021 GMT
    38                           ; 
    39                           ; Copyright © 2021, Microchip Technology Inc. and its subsidiaries ("Microchip")
    40                           ; All rights reserved.
    41                           ; 
    42                           ; This software is developed by Microchip Technology Inc. and its subsidiaries ("Microch
      +                          ip").
    43                           ; 
    44                           ; Redistribution and use in source and binary forms, with or without modification, are
    45                           ; permitted provided that the following conditions are met:
    46                           ; 
    47                           ;     1. Redistributions of source code must retain the above copyright notice, this lis
      +                          t of
    48                           ;        conditions and the following disclaimer.
    49                           ; 
    50                           ;     2. Redistributions in binary form must reproduce the above copyright notice, this 
      +                          list
    51                           ;        of conditions and the following disclaimer in the documentation and/or other
    52                           ;        materials provided with the distribution. Publication is not required when
    53                           ;        this file is used in an embedded application.
    54                           ; 
    55                           ;     3. Microchip's name may not be used to endorse or promote products derived from th
      +                          is
    56                           ;        software without specific prior written permission.
    57                           ; 
    58                           ; THIS SOFTWARE IS PROVIDED BY MICROCHIP "AS IS" AND ANY EXPRESS OR IMPLIED WARRANTIES,
    59                           ; INCLUDING, BUT NOT LIMITED TO, THE IMPLIED WARRANTIES OF MERCHANTABILITY AND FITNESS F
      +                          OR
    60                           ; PURPOSE ARE DISCLAIMED.  IN NO EVENT SHALL MICROCHIP BE LIABLE FOR ANY DIRECT, INDIREC
      +                          T,
    61                           ; INCIDENTAL, SPECIAL, EXEMPLARY, OR CONSEQUENTIAL DAMAGES (INCLUDING BUT NOT LIMITED TO
    62                           ; PROCUREMENT OF SUBSTITUTE GOODS OR SERVICES; LOSS OF USE, DATA OR PROFITS; OR BUSINESS
    63                           ; INTERRUPTION) HOWSOEVER CAUSED AND ON ANY THEORY OF LIABILITY, WHETHER IN CONTRACT, ST
      +                          RICT
    64                           ; LIABILITY, OR TORT (INCLUDING NEGLIGENCE OR OTHERWISE) ARISING IN ANY WAY OUT OF THE U
      +                          SE OF
    65                           ; THIS SOFTWARE, EVEN IF ADVISED OF THE POSSIBILITY OF SUCH DAMAGE.
    66                           ; 
    67                           ; 
    68                           ; Code-generator required, PIC18F4431 Definitions
    69                           ; 
    70                           ; SFR Addresses
    71  0000                     
    72                           	psect	idataCOMRAM
    73  001A5C                     __pidataCOMRAM:
    74                           	callstack 0
    75                           
    76                           ;initializer for _flag
    77  001A5C  0001               	dw	1
    78  0000                     _PDC3H	set	3954
    79  0000                     _PDC3L	set	3955
    80  0000                     _PDC0H	set	3960
    81  0000                     _PDC0L	set	3961
    82  0000                     _PDC2H	set	3956
    83  0000                     _PDC2L	set	3957
    84  0000                     _PDC1H	set	3958
    85  0000                     _PDC1L	set	3959
    86  0000                     _PORTBbits	set	3969
    87  0000                     _TMR1H	set	4047
    88  0000                     _TMR1L	set	4046
    89  0000                     _PORTAbits	set	3968
    90  0000                     _PORTCbits	set	3970
    91  0000                     _TMR0H	set	4055
    92  0000                     _TMR0L	set	4054
    93  0000                     _PORTDbits	set	3971
    94  0000                     _INTCONbits	set	4082
    95  0000                     _PORTD	set	3971
    96  0000                     _PORTB	set	3969
    97  0000                     _PTMRH	set	3964
    98  0000                     _PTMRL	set	3965
    99  0000                     _PTPERH	set	3962
   100  0000                     _PTPERL	set	3963
   101  0000                     _OVDCONS	set	3946
   102  0000                     _OVDCOND	set	3947
   103  0000                     _DTCON	set	3949
   104  0000                     _PWMCON1	set	3950
   105  0000                     _PWMCON0	set	3951
   106  0000                     _PTCON1	set	3966
   107  0000                     _PTCON0	set	3967
   108  0000                     _RCREG	set	4014
   109  0000                     _TXREG	set	4013
   110  0000                     _PIE1bits	set	3997
   111  0000                     _PIR1bits	set	3998
   112  0000                     _RCSTAbits	set	4011
   113  0000                     _TXSTAbits	set	4012
   114  0000                     _SPBRG	set	4015
   115  0000                     _ANSEL1	set	4025
   116  0000                     _ANSEL0	set	4024
   117  0000                     _TRISE	set	3990
   118  0000                     _TRISD	set	3989
   119  0000                     _TRISC	set	3988
   120  0000                     _TRISB	set	3987
   121  0000                     _TRISA	set	3986
   122  0000                     _TMR1IF	set	31984
   123  0000                     _TMR1ON	set	32360
   124  0000                     _TMR1CS	set	32361
   125  0000                     _T1SYNC	set	32362
   126  0000                     _T1OSCEN	set	32363
   127  0000                     _T1CKPS0	set	32364
   128  0000                     _T1RUN	set	32366
   129  0000                     _RD16	set	32367
   130  0000                     _TMR0IF	set	32658
   131  0000                     _T0PS0	set	32424
   132  0000                     _PSA	set	32427
   133  0000                     _T0CS	set	32429
   134  0000                     _T016BIT	set	32430
   135  0000                     _TMR0ON	set	32431
   136                           
   137                           	psect	smallconst
   138  000300                     __psmallconst:
   139                           	callstack 0
   140  000300  00                 	db	0
   141  000301                     STR_2:
   142  000301  64                 	db	100	;'d'
   143  000302  69                 	db	105	;'i'
   144  000303  73                 	db	115	;'s'
   145  000304  74                 	db	116	;'t'
   146  000305  61                 	db	97	;'a'
   147  000306  6E                 	db	110	;'n'
   148  000307  63                 	db	99	;'c'
   149  000308  69                 	db	105	;'i'
   150  000309  61                 	db	97	;'a'
   151  00030A  00                 	db	0
   152  00030B                     STR_5:
   153  00030B  66                 	db	102	;'f'
   154  00030C  45                 	db	69	;'E'
   155  00030D  73                 	db	115	;'s'
   156  00030E  74                 	db	116	;'t'
   157  00030F  72                 	db	114	;'r'
   158  000310  65                 	db	101	;'e'
   159  000311  6C                 	db	108	;'l'
   160  000312  61                 	db	97	;'a'
   161  000313  00                 	db	0
   162  000314                     STR_3:
   163  000314  74                 	db	116	;'t'
   164  000315  6F                 	db	111	;'o'
   165  000316  71                 	db	113	;'q'
   166  000317  75                 	db	117	;'u'
   167  000318  69                 	db	105	;'i'
   168  000319  6E                 	db	110	;'n'
   169  00031A  68                 	db	104	;'h'
   170  00031B  6F                 	db	111	;'o'
   171  00031C  00                 	db	0
   172  00031D                     STR_6:
   173  00031D  65                 	db	101	;'e'
   174  00031E  73                 	db	115	;'s'
   175  00031F  74                 	db	116	;'t'
   176  000320  72                 	db	114	;'r'
   177  000321  65                 	db	101	;'e'
   178  000322  6C                 	db	108	;'l'
   179  000323  61                 	db	97	;'a'
   180  000324  00                 	db	0
   181  000325                     STR_8:
   182  000325  43                 	db	67	;'C'
   183  000326  6F                 	db	111	;'o'
   184  000327  6D                 	db	109	;'m'
   185  000328  65                 	db	101	;'e'
   186  000329  63                 	db	99	;'c'
   187  00032A  6F                 	db	111	;'o'
   188  00032B  75                 	db	117	;'u'
   189  00032C  00                 	db	0
   190  00032D                     STR_1:
   191  00032D  6C                 	db	108	;'l'
   192  00032E  69                 	db	105	;'i'
   193  00032F  6E                 	db	110	;'n'
   194  000330  68                 	db	104	;'h'
   195  000331  61                 	db	97	;'a'
   196  000332  00                 	db	0
   197  000333                     STR_7:
   198  000333  70                 	db	112	;'p'
   199  000334  61                 	db	97	;'a'
   200  000335  72                 	db	114	;'r'
   201  000336  61                 	db	97	;'a'
   202  000337  72                 	db	114	;'r'
   203  000338  00                 	db	0
   204  000339                     STR_4:
   205  000339  61                 	db	97	;'a'
   206  00033A  72                 	db	114	;'r'
   207  00033B  63                 	db	99	;'c'
   208  00033C  6F                 	db	111	;'o'
   209  00033D  00                 	db	0
   210  00033E  00                 	db	0	; dummy byte at the end
   211  0000                     
   212                           ; #config settings
   213                           
   214                           	psect	cinit
   215  001910                     __pcinit:
   216                           	callstack 0
   217  001910                     start_initialization:
   218                           	callstack 0
   219  001910                     __initialization:
   220                           	callstack 0
   221                           
   222                           ; Initialize objects allocated to COMRAM (2 bytes)
   223                           ; load TBLPTR registers with __pidataCOMRAM
   224  001910  0E5C               	movlw	low __pidataCOMRAM
   225  001912  6EF6               	movwf	tblptrl,c
   226  001914  0E1A               	movlw	high __pidataCOMRAM
   227  001916  6EF7               	movwf	tblptrh,c
   228  001918  0E00               	movlw	low (__pidataCOMRAM shr (0+16))
   229  00191A  6EF8               	movwf	tblptru,c
   230  00191C  0009               	tblrd		*+	;fetch initializer
   231  00191E  CFF5 F01E          	movff	tablat,__pdataCOMRAM
   232  001922  0009               	tblrd		*+	;fetch initializer
   233  001924  CFF5 F01F          	movff	tablat,__pdataCOMRAM+1
   234                           
   235                           ; Clear objects allocated to COMRAM (8 bytes)
   236  001928  EE00  F016         	lfsr	0,__pbssCOMRAM
   237  00192C  0E08               	movlw	8
   238  00192E                     clear_0:
   239  00192E  6AEE               	clrf	postinc0,c
   240  001930  06E8               	decf	wreg,f,c
   241  001932  E1FD               	bnz	clear_0
   242  001934                     end_of_initialization:
   243                           	callstack 0
   244  001934                     __end_of__initialization:
   245                           	callstack 0
   246  001934  9020               	bcf	int$flags,0,c	;clear compiler interrupt flag (level 1)
   247  001936  9220               	bcf	int$flags,1,c	;clear compiler interrupt flag (level 2)
   248  001938  0E00               	movlw	low (__Lsmallconst shr (0+16))
   249  00193A  6EF8               	movwf	tblptru,c
   250  00193C  0E03               	movlw	high __Lsmallconst
   251  00193E  6EF7               	movwf	tblptrh,c
   252  001940  0100               	movlb	0
   253  001942  EFA0  F001         	goto	_main	;jump to C main() function
   254                           
   255                           	psect	bssCOMRAM
   256  000016                     __pbssCOMRAM:
   257                           	callstack 0
   258  000016                     _ini:
   259                           	callstack 0
   260  000016                     	ds	2
   261  000018                     _velocidade:
   262                           	callstack 0
   263  000018                     	ds	2
   264  00001A                     _acao:
   265                           	callstack 0
   266  00001A                     	ds	2
   267  00001C                     _sentido:
   268                           	callstack 0
   269  00001C                     	ds	1
   270  00001D                     _lado:
   271                           	callstack 0
   272  00001D                     	ds	1
   273                           
   274                           	psect	dataCOMRAM
   275  00001E                     __pdataCOMRAM:
   276                           	callstack 0
   277  00001E                     _flag:
   278                           	callstack 0
   279  00001E                     	ds	2
   280                           
   281                           	psect	cstackCOMRAM
   282  000001                     __pcstackCOMRAM:
   283                           	callstack 0
   284  000001                     readUSART@ler:
   285                           	callstack 0
   286                           
   287                           ; 1 bytes @ 0x0
   288  000001                     	ds	1
   289  000002                     ?___wmul:
   290                           	callstack 0
   291  000002                     picUSART@status:
   292                           	callstack 0
   293  000002                     stringUSART@frase:
   294                           	callstack 0
   295  000002                     ___wmul@multiplier:
   296                           	callstack 0
   297                           
   298                           ; 2 bytes @ 0x1
   299  000002                     	ds	2
   300  000004                     ??_stringUSART:
   301  000004                     ___wmul@multiplicand:
   302                           	callstack 0
   303                           
   304                           ; 2 bytes @ 0x3
   305  000004                     	ds	2
   306  000006                     stringUSART@i:
   307                           	callstack 0
   308  000006                     ___wmul@product:
   309                           	callstack 0
   310                           
   311                           ; 2 bytes @ 0x5
   312  000006                     	ds	2
   313  000008                     moverMotor@sentido:
   314                           	callstack 0
   315                           
   316                           ; 1 bytes @ 0x7
   317  000008                     	ds	1
   318  000009                     moverMotor@velocidade:
   319                           	callstack 0
   320                           
   321                           ; 2 bytes @ 0x8
   322  000009                     	ds	2
   323  00000B                     moverMotor@lado:
   324                           	callstack 0
   325                           
   326                           ; 1 bytes @ 0xA
   327  00000B                     	ds	1
   328  00000C                     ??_testarLinha:
   329  00000C                     ??_linha:
   330  00000C                     testarDistancia@velTestParaFrente:
   331                           	callstack 0
   332                           
   333                           ; 2 bytes @ 0xB
   334  00000C                     	ds	2
   335  00000E                     ??_estrela:
   336                           
   337                           ; 1 bytes @ 0xD
   338  00000E                     	ds	2
   339  000010                     ??_main:
   340                           
   341                           ; 1 bytes @ 0xF
   342  000010                     	ds	2
   343  000012                     main@cont_tmr:
   344                           	callstack 0
   345                           
   346                           ; 1 bytes @ 0x11
   347  000012                     	ds	1
   348  000013                     main@cont:
   349                           	callstack 0
   350                           
   351                           ; 2 bytes @ 0x12
   352  000013                     	ds	2
   353  000015                     main@aux:
   354                           	callstack 0
   355                           
   356                           ; 1 bytes @ 0x14
   357  000015                     	ds	1
   358                           
   359 ;;
   360 ;;Main: autosize = 0, tempsize = 2, incstack = 0, save=0
   361 ;;
   362 ;; *************** function _main *****************
   363 ;; Defined at:
   364 ;;		line 88 in file "hachiko_0.c"
   365 ;; Parameters:    Size  Location     Type
   366 ;;		None
   367 ;; Auto vars:     Size  Location     Type
   368 ;;  cont            2   18[COMRAM] int 
   369 ;;  aux             1   20[COMRAM] unsigned char 
   370 ;;  cont_tmr        1   17[COMRAM] unsigned char 
   371 ;; Return value:  Size  Location     Type
   372 ;;                  1    wreg      void 
   373 ;; Registers used:
   374 ;;		wreg, status,2, status,0, tblptrl, tblptrh, tblptru, prodl, prodh, cstack
   375 ;; Tracked objects:
   376 ;;		On entry : 0/0
   377 ;;		On exit  : 0/0
   378 ;;		Unchanged: 0/0
   379 ;; Data sizes:     COMRAM   BANK0   BANK1   BANK2
   380 ;;      Params:         0       0       0       0
   381 ;;      Locals:         4       0       0       0
   382 ;;      Temps:          2       0       0       0
   383 ;;      Totals:         6       0       0       0
   384 ;;Total ram usage:        6 bytes
   385 ;; Hardware stack levels required when called: 6
   386 ;; This function calls:
   387 ;;		_estrela
   388 ;;		_linha
   389 ;;		_moverMotor
   390 ;;		_pararMotor
   391 ;;		_picUSART
   392 ;;		_setBT
   393 ;;		_setIO
   394 ;;		_setPWM
   395 ;;		_setTMR0
   396 ;;		_setTMR1
   397 ;;		_stringUSART
   398 ;;		_testarDistancia
   399 ;;		_testarLinha
   400 ;; This function is called by:
   401 ;;		Startup code after reset
   402 ;; This function uses a non-reentrant model
   403 ;;
   404                           
   405                           	psect	text0
   406  000340                     __ptext0:
   407                           	callstack 0
   408  000340                     _main:
   409                           	callstack 25
   410  000340                     
   411                           ;hachiko_0.c: 90:     setIO();
   412  000340  ECF2  F00C         	call	_setIO	;wreg free
   413                           
   414                           ;hachiko_0.c: 91:     setBT();
   415  000344  ECFF  F00C         	call	_setBT	;wreg free
   416                           
   417                           ;hachiko_0.c: 92:     setPWM();
   418  000348  ECA3  F00C         	call	_setPWM	;wreg free
   419  00034C                     
   420                           ;hachiko_0.c: 93:     setTMR0();
   421  00034C  EC23  F00D         	call	_setTMR0	;wreg free
   422  000350                     
   423                           ;hachiko_0.c: 94:     setTMR1();
   424  000350  EC13  F00D         	call	_setTMR1	;wreg free
   425  000354                     
   426                           ;hachiko_0.c: 96:     INTCONbits.GIE = 1;
   427  000354  8EF2               	bsf	242,7,c	;volatile
   428  000356                     
   429                           ;hachiko_0.c: 97:     INTCONbits.PEIE = 1;
   430  000356  8CF2               	bsf	242,6,c	;volatile
   431  000358                     
   432                           ;hachiko_0.c: 99:     PORTDbits.RD0 = 0;
   433  000358  9083               	bcf	131,0,c	;volatile
   434  00035A                     
   435                           ;hachiko_0.c: 100:     PORTDbits.RD1 = 1;
   436  00035A  8283               	bsf	131,1,c	;volatile
   437  00035C                     l2034:
   438                           
   439                           ;hachiko_0.c: 102:     while(ini == 0){
   440  00035C  5016               	movf	_ini^0,w,c
   441  00035E  1017               	iorwf	(_ini+1)^0,w,c
   442  000360  B4D8               	btfsc	status,2,c
   443  000362  EFB5  F001         	goto	u2851
   444  000366  EFB7  F001         	goto	u2850
   445  00036A                     u2851:
   446  00036A  EFAE  F001         	goto	l2034
   447  00036E                     u2850:
   448  00036E                     
   449                           ;hachiko_0.c: 105:     stringUSART("Comecou");
   450  00036E  0E25               	movlw	low STR_8
   451  000370  6E02               	movwf	stringUSART@frase^0,c
   452  000372  0E03               	movlw	high STR_8
   453  000374  6E03               	movwf	(stringUSART@frase+1)^0,c
   454  000376  EC58  F00C         	call	_stringUSART	;wreg free
   455  00037A                     
   456                           ;hachiko_0.c: 107:     _delay((unsigned long)((5000)*(20000000/4000.0)));
   457  00037A  0E7F               	movlw	127
   458  00037C  6E11               	movwf	(??_main+1)^0,c
   459  00037E  0ED4               	movlw	212
   460  000380  6E10               	movwf	??_main^0,c
   461  000382  0E32               	movlw	50
   462  000384                     u4097:
   463  000384  2EE8               	decfsz	wreg,f,c
   464  000386  D7FE               	bra	u4097
   465  000388  2E10               	decfsz	??_main^0,f,c
   466  00038A  D7FC               	bra	u4097
   467  00038C  2E11               	decfsz	(??_main+1)^0,f,c
   468  00038E  D7FA               	bra	u4097
   469  000390                     l2040:
   470                           
   471                           ;hachiko_0.c: 110:         if(acao == "linha"){
   472  000390  0E2D               	movlw	low STR_1
   473  000392  181A               	xorwf	_acao^0,w,c
   474  000394  E107               	bnz	u2861
   475  000396  0E03               	movlw	high STR_1
   476  000398  181B               	xorwf	(_acao+1)^0,w,c
   477  00039A  A4D8               	btfss	status,2,c
   478  00039C  EFD2  F001         	goto	u2861
   479  0003A0  EFD4  F001         	goto	u2860
   480  0003A4                     u2861:
   481  0003A4  EFE4  F001         	goto	l2048
   482  0003A8                     u2860:
   483  0003A8                     l2042:
   484                           
   485                           ;hachiko_0.c: 112:                 testarLinha();
   486  0003A8  ECD4  F009         	call	_testarLinha	;wreg free
   487  0003AC                     
   488                           ;hachiko_0.c: 114:                 if(acao == "parar"){
   489  0003AC  0E33               	movlw	low STR_7
   490  0003AE  181A               	xorwf	_acao^0,w,c
   491  0003B0  E107               	bnz	u2871
   492  0003B2  0E03               	movlw	high STR_7
   493  0003B4  181B               	xorwf	(_acao+1)^0,w,c
   494  0003B6  A4D8               	btfss	status,2,c
   495  0003B8  EFE0  F001         	goto	u2871
   496  0003BC  EFE2  F001         	goto	u2870
   497  0003C0                     u2871:
   498  0003C0  EFD4  F001         	goto	l2042
   499  0003C4                     u2870:
   500  0003C4                     
   501                           ;hachiko_0.c: 115:                     pararMotor();
   502  0003C4  ECD0  F00C         	call	_pararMotor	;wreg free
   503  0003C8                     l2048:
   504                           
   505                           ;hachiko_0.c: 121:         if(acao == "distancia"){
   506  0003C8  0E01               	movlw	low STR_2
   507  0003CA  181A               	xorwf	_acao^0,w,c
   508  0003CC  E107               	bnz	u2881
   509  0003CE  0E03               	movlw	high STR_2
   510  0003D0  181B               	xorwf	(_acao+1)^0,w,c
   511  0003D2  A4D8               	btfss	status,2,c
   512  0003D4  EFEE  F001         	goto	u2881
   513  0003D8  EFF0  F001         	goto	u2880
   514  0003DC                     u2881:
   515  0003DC  EF00  F002         	goto	l2056
   516  0003E0                     u2880:
   517  0003E0                     l2050:
   518                           
   519                           ;hachiko_0.c: 123:                 testarDistancia();
   520  0003E0  ECCE  F007         	call	_testarDistancia	;wreg free
   521  0003E4                     
   522                           ;hachiko_0.c: 125:                 if(acao == "parar"){
   523  0003E4  0E33               	movlw	low STR_7
   524  0003E6  181A               	xorwf	_acao^0,w,c
   525  0003E8  E107               	bnz	u2891
   526  0003EA  0E03               	movlw	high STR_7
   527  0003EC  181B               	xorwf	(_acao+1)^0,w,c
   528  0003EE  A4D8               	btfss	status,2,c
   529  0003F0  EFFC  F001         	goto	u2891
   530  0003F4  EFFE  F001         	goto	u2890
   531  0003F8                     u2891:
   532  0003F8  EFF0  F001         	goto	l2050
   533  0003FC                     u2890:
   534  0003FC                     
   535                           ;hachiko_0.c: 126:                     pararMotor();
   536  0003FC  ECD0  F00C         	call	_pararMotor	;wreg free
   537  000400                     l2056:
   538                           
   539                           ;hachiko_0.c: 132:         if(acao == "arco"){
   540  000400  0E39               	movlw	low STR_4
   541  000402  181A               	xorwf	_acao^0,w,c
   542  000404  E107               	bnz	u2901
   543  000406  0E03               	movlw	high STR_4
   544  000408  181B               	xorwf	(_acao+1)^0,w,c
   545  00040A  A4D8               	btfss	status,2,c
   546  00040C  EF0A  F002         	goto	u2901
   547  000410  EF0C  F002         	goto	u2900
   548  000414                     u2901:
   549  000414  EF85  F004         	goto	l2182
   550  000418                     u2900:
   551  000418                     
   552                           ;hachiko_0.c: 133:             TMR0ON = 1;
   553  000418  8ED5               	bsf	4053,7,c	;volatile
   554  00041A                     
   555                           ;hachiko_0.c: 134:             TMR0L = 0x78;
   556  00041A  0E78               	movlw	120
   557  00041C  6ED6               	movwf	214,c	;volatile
   558                           
   559                           ;hachiko_0.c: 135:             TMR0H = 0xF8;
   560  00041E  0EF8               	movlw	248
   561  000420  6ED7               	movwf	215,c	;volatile
   562                           
   563                           ;hachiko_0.c: 136:             char cont_tmr = 0x00;
   564  000422  0E00               	movlw	0
   565  000424  6E12               	movwf	main@cont_tmr^0,c
   566                           
   567                           ;hachiko_0.c: 137:             while(cont_tmr < 0x64){
   568  000426  EF7C  F004         	goto	l2180
   569  00042A                     l221:
   570                           
   571                           ;hachiko_0.c: 139:                 if(!PORTCbits.RC4 || !PORTCbits.RC3) {
   572  00042A  A882               	btfss	130,4,c	;volatile
   573  00042C  EF1A  F002         	goto	u2911
   574  000430  EF1C  F002         	goto	u2910
   575  000434                     u2911:
   576  000434  EF23  F002         	goto	l2064
   577  000438                     u2910:
   578  000438  B682               	btfsc	130,3,c	;volatile
   579  00043A  EF21  F002         	goto	u2921
   580  00043E  EF23  F002         	goto	u2920
   581  000442                     u2921:
   582  000442  EF27  F002         	goto	l222
   583  000446                     u2920:
   584  000446                     l2064:
   585                           
   586                           ;hachiko_0.c: 140:                     linha();
   587  000446  EC47  F00B         	call	_linha	;wreg free
   588                           
   589                           ;hachiko_0.c: 141:                 } else {
   590  00044A  EF5F  F004         	goto	l2168
   591  00044E                     l222:
   592                           
   593                           ;hachiko_0.c: 143:                 if(PORTAbits.RA1 && PORTAbits.RA4 && PORTCbits.RC0 &&
      +                           PORTAbits.RA3 && PORTAbits.RA2){
   594  00044E  A280               	btfss	128,1,c	;volatile
   595  000450  EF2C  F002         	goto	u2931
   596  000454  EF2E  F002         	goto	u2930
   597  000458                     u2931:
   598  000458  EF5E  F002         	goto	l226
   599  00045C                     u2930:
   600  00045C  A880               	btfss	128,4,c	;volatile
   601  00045E  EF33  F002         	goto	u2941
   602  000462  EF35  F002         	goto	u2940
   603  000466                     u2941:
   604  000466  EF5E  F002         	goto	l226
   605  00046A                     u2940:
   606  00046A  A082               	btfss	130,0,c	;volatile
   607  00046C  EF3A  F002         	goto	u2951
   608  000470  EF3C  F002         	goto	u2950
   609  000474                     u2951:
   610  000474  EF5E  F002         	goto	l226
   611  000478                     u2950:
   612  000478  A680               	btfss	128,3,c	;volatile
   613  00047A  EF41  F002         	goto	u2961
   614  00047E  EF43  F002         	goto	u2960
   615  000482                     u2961:
   616  000482  EF5E  F002         	goto	l226
   617  000486                     u2960:
   618  000486  A480               	btfss	128,2,c	;volatile
   619  000488  EF48  F002         	goto	u2971
   620  00048C  EF4A  F002         	goto	u2970
   621  000490                     u2971:
   622  000490  EF5E  F002         	goto	l226
   623  000494                     u2970:
   624  000494                     
   625                           ;hachiko_0.c: 144:                     moverMotor('d','f',70);
   626  000494  0E66               	movlw	102
   627  000496  6E08               	movwf	moverMotor@sentido^0,c
   628  000498  0E00               	movlw	0
   629  00049A  6E0A               	movwf	(moverMotor@velocidade+1)^0,c
   630  00049C  0E46               	movlw	70
   631  00049E  6E09               	movwf	moverMotor@velocidade^0,c
   632  0004A0  0E64               	movlw	100
   633  0004A2  ECEA  F00B         	call	_moverMotor
   634                           
   635                           ;hachiko_0.c: 145:                     moverMotor('e','f',80);
   636  0004A6  0E66               	movlw	102
   637  0004A8  6E08               	movwf	moverMotor@sentido^0,c
   638  0004AA  0E00               	movlw	0
   639  0004AC  6E0A               	movwf	(moverMotor@velocidade+1)^0,c
   640  0004AE  0E50               	movlw	80
   641  0004B0  6E09               	movwf	moverMotor@velocidade^0,c
   642  0004B2  0E65               	movlw	101
   643  0004B4  ECEA  F00B         	call	_moverMotor
   644                           
   645                           ;hachiko_0.c: 146:                 }
   646  0004B8  EF5F  F004         	goto	l2168
   647  0004BC                     l226:
   648  0004BC  B280               	btfsc	128,1,c	;volatile
   649  0004BE  EF63  F002         	goto	u2981
   650  0004C2  EF65  F002         	goto	u2980
   651  0004C6                     u2981:
   652  0004C6  EF95  F002         	goto	l228
   653  0004CA                     u2980:
   654  0004CA  A880               	btfss	128,4,c	;volatile
   655  0004CC  EF6A  F002         	goto	u2991
   656  0004D0  EF6C  F002         	goto	u2990
   657  0004D4                     u2991:
   658  0004D4  EF95  F002         	goto	l228
   659  0004D8                     u2990:
   660  0004D8  A082               	btfss	130,0,c	;volatile
   661  0004DA  EF71  F002         	goto	u3001
   662  0004DE  EF73  F002         	goto	u3000
   663  0004E2                     u3001:
   664  0004E2  EF95  F002         	goto	l228
   665  0004E6                     u3000:
   666  0004E6  A680               	btfss	128,3,c	;volatile
   667  0004E8  EF78  F002         	goto	u3011
   668  0004EC  EF7A  F002         	goto	u3010
   669  0004F0                     u3011:
   670  0004F0  EF95  F002         	goto	l228
   671  0004F4                     u3010:
   672  0004F4  A480               	btfss	128,2,c	;volatile
   673  0004F6  EF7F  F002         	goto	u3021
   674  0004FA  EF81  F002         	goto	u3020
   675  0004FE                     u3021:
   676  0004FE  EF95  F002         	goto	l228
   677  000502                     u3020:
   678  000502                     
   679                           ;hachiko_0.c: 148:                     moverMotor('e','t',70);
   680  000502  0E74               	movlw	116
   681  000504  6E08               	movwf	moverMotor@sentido^0,c
   682  000506  0E00               	movlw	0
   683  000508  6E0A               	movwf	(moverMotor@velocidade+1)^0,c
   684  00050A  0E46               	movlw	70
   685  00050C  6E09               	movwf	moverMotor@velocidade^0,c
   686  00050E  0E65               	movlw	101
   687  000510  ECEA  F00B         	call	_moverMotor
   688                           
   689                           ;hachiko_0.c: 149:                     moverMotor('d','f',70);
   690  000514  0E66               	movlw	102
   691  000516  6E08               	movwf	moverMotor@sentido^0,c
   692  000518  0E00               	movlw	0
   693  00051A  6E0A               	movwf	(moverMotor@velocidade+1)^0,c
   694  00051C  0E46               	movlw	70
   695  00051E  6E09               	movwf	moverMotor@velocidade^0,c
   696  000520  0E64               	movlw	100
   697  000522  ECEA  F00B         	call	_moverMotor
   698                           
   699                           ;hachiko_0.c: 150:                 }
   700  000526  EF5F  F004         	goto	l2168
   701  00052A                     l228:
   702  00052A  A280               	btfss	128,1,c	;volatile
   703  00052C  EF9A  F002         	goto	u3031
   704  000530  EF9C  F002         	goto	u3030
   705  000534                     u3031:
   706  000534  EFCC  F002         	goto	l230
   707  000538                     u3030:
   708  000538  A880               	btfss	128,4,c	;volatile
   709  00053A  EFA1  F002         	goto	u3041
   710  00053E  EFA3  F002         	goto	u3040
   711  000542                     u3041:
   712  000542  EFCC  F002         	goto	l230
   713  000546                     u3040:
   714  000546  B082               	btfsc	130,0,c	;volatile
   715  000548  EFA8  F002         	goto	u3051
   716  00054C  EFAA  F002         	goto	u3050
   717  000550                     u3051:
   718  000550  EFCC  F002         	goto	l230
   719  000554                     u3050:
   720  000554  A680               	btfss	128,3,c	;volatile
   721  000556  EFAF  F002         	goto	u3061
   722  00055A  EFB1  F002         	goto	u3060
   723  00055E                     u3061:
   724  00055E  EFCC  F002         	goto	l230
   725  000562                     u3060:
   726  000562  A480               	btfss	128,2,c	;volatile
   727  000564  EFB6  F002         	goto	u3071
   728  000568  EFB8  F002         	goto	u3070
   729  00056C                     u3071:
   730  00056C  EFCC  F002         	goto	l230
   731  000570                     u3070:
   732  000570                     
   733                           ;hachiko_0.c: 152:                     moverMotor('e','f',70);
   734  000570  0E66               	movlw	102
   735  000572  6E08               	movwf	moverMotor@sentido^0,c
   736  000574  0E00               	movlw	0
   737  000576  6E0A               	movwf	(moverMotor@velocidade+1)^0,c
   738  000578  0E46               	movlw	70
   739  00057A  6E09               	movwf	moverMotor@velocidade^0,c
   740  00057C  0E65               	movlw	101
   741  00057E  ECEA  F00B         	call	_moverMotor
   742                           
   743                           ;hachiko_0.c: 153:                     moverMotor('d','f',70);
   744  000582  0E66               	movlw	102
   745  000584  6E08               	movwf	moverMotor@sentido^0,c
   746  000586  0E00               	movlw	0
   747  000588  6E0A               	movwf	(moverMotor@velocidade+1)^0,c
   748  00058A  0E46               	movlw	70
   749  00058C  6E09               	movwf	moverMotor@velocidade^0,c
   750  00058E  0E64               	movlw	100
   751  000590  ECEA  F00B         	call	_moverMotor
   752                           
   753                           ;hachiko_0.c: 155:                 }
   754  000594  EF5F  F004         	goto	l2168
   755  000598                     l230:
   756  000598  A280               	btfss	128,1,c	;volatile
   757  00059A  EFD1  F002         	goto	u3081
   758  00059E  EFD3  F002         	goto	u3080
   759  0005A2                     u3081:
   760  0005A2  EF03  F003         	goto	l232
   761  0005A6                     u3080:
   762  0005A6  B880               	btfsc	128,4,c	;volatile
   763  0005A8  EFD8  F002         	goto	u3091
   764  0005AC  EFDA  F002         	goto	u3090
   765  0005B0                     u3091:
   766  0005B0  EF03  F003         	goto	l232
   767  0005B4                     u3090:
   768  0005B4  A082               	btfss	130,0,c	;volatile
   769  0005B6  EFDF  F002         	goto	u3101
   770  0005BA  EFE1  F002         	goto	u3100
   771  0005BE                     u3101:
   772  0005BE  EF03  F003         	goto	l232
   773  0005C2                     u3100:
   774  0005C2  B680               	btfsc	128,3,c	;volatile
   775  0005C4  EFE6  F002         	goto	u3111
   776  0005C8  EFE8  F002         	goto	u3110
   777  0005CC                     u3111:
   778  0005CC  EF03  F003         	goto	l232
   779  0005D0                     u3110:
   780  0005D0  A480               	btfss	128,2,c	;volatile
   781  0005D2  EFED  F002         	goto	u3121
   782  0005D6  EFEF  F002         	goto	u3120
   783  0005DA                     u3121:
   784  0005DA  EF03  F003         	goto	l232
   785  0005DE                     u3120:
   786  0005DE                     
   787                           ;hachiko_0.c: 157:                     moverMotor('e','f',70);
   788  0005DE  0E66               	movlw	102
   789  0005E0  6E08               	movwf	moverMotor@sentido^0,c
   790  0005E2  0E00               	movlw	0
   791  0005E4  6E0A               	movwf	(moverMotor@velocidade+1)^0,c
   792  0005E6  0E46               	movlw	70
   793  0005E8  6E09               	movwf	moverMotor@velocidade^0,c
   794  0005EA  0E65               	movlw	101
   795  0005EC  ECEA  F00B         	call	_moverMotor
   796                           
   797                           ;hachiko_0.c: 158:                     moverMotor('d','f',70);
   798  0005F0  0E66               	movlw	102
   799  0005F2  6E08               	movwf	moverMotor@sentido^0,c
   800  0005F4  0E00               	movlw	0
   801  0005F6  6E0A               	movwf	(moverMotor@velocidade+1)^0,c
   802  0005F8  0E46               	movlw	70
   803  0005FA  6E09               	movwf	moverMotor@velocidade^0,c
   804  0005FC  0E64               	movlw	100
   805  0005FE  ECEA  F00B         	call	_moverMotor
   806                           
   807                           ;hachiko_0.c: 160:                 }
   808  000602  EF5F  F004         	goto	l2168
   809  000606                     l232:
   810  000606  A280               	btfss	128,1,c	;volatile
   811  000608  EF08  F003         	goto	u3131
   812  00060C  EF0A  F003         	goto	u3130
   813  000610                     u3131:
   814  000610  EF3A  F003         	goto	l234
   815  000614                     u3130:
   816  000614  A880               	btfss	128,4,c	;volatile
   817  000616  EF0F  F003         	goto	u3141
   818  00061A  EF11  F003         	goto	u3140
   819  00061E                     u3141:
   820  00061E  EF3A  F003         	goto	l234
   821  000622                     u3140:
   822  000622  A082               	btfss	130,0,c	;volatile
   823  000624  EF16  F003         	goto	u3151
   824  000628  EF18  F003         	goto	u3150
   825  00062C                     u3151:
   826  00062C  EF3A  F003         	goto	l234
   827  000630                     u3150:
   828  000630  B680               	btfsc	128,3,c	;volatile
   829  000632  EF1D  F003         	goto	u3161
   830  000636  EF1F  F003         	goto	u3160
   831  00063A                     u3161:
   832  00063A  EF3A  F003         	goto	l234
   833  00063E                     u3160:
   834  00063E  A480               	btfss	128,2,c	;volatile
   835  000640  EF24  F003         	goto	u3171
   836  000644  EF26  F003         	goto	u3170
   837  000648                     u3171:
   838  000648  EF3A  F003         	goto	l234
   839  00064C                     u3170:
   840  00064C                     
   841                           ;hachiko_0.c: 162:                     moverMotor('e','f',70);
   842  00064C  0E66               	movlw	102
   843  00064E  6E08               	movwf	moverMotor@sentido^0,c
   844  000650  0E00               	movlw	0
   845  000652  6E0A               	movwf	(moverMotor@velocidade+1)^0,c
   846  000654  0E46               	movlw	70
   847  000656  6E09               	movwf	moverMotor@velocidade^0,c
   848  000658  0E65               	movlw	101
   849  00065A  ECEA  F00B         	call	_moverMotor
   850                           
   851                           ;hachiko_0.c: 163:                     moverMotor('d','t',70);
   852  00065E  0E74               	movlw	116
   853  000660  6E08               	movwf	moverMotor@sentido^0,c
   854  000662  0E00               	movlw	0
   855  000664  6E0A               	movwf	(moverMotor@velocidade+1)^0,c
   856  000666  0E46               	movlw	70
   857  000668  6E09               	movwf	moverMotor@velocidade^0,c
   858  00066A  0E64               	movlw	100
   859  00066C  ECEA  F00B         	call	_moverMotor
   860                           
   861                           ;hachiko_0.c: 164:                 }
   862  000670  EF5F  F004         	goto	l2168
   863  000674                     l234:
   864  000674  A280               	btfss	128,1,c	;volatile
   865  000676  EF3F  F003         	goto	u3181
   866  00067A  EF41  F003         	goto	u3180
   867  00067E                     u3181:
   868  00067E  EF71  F003         	goto	l236
   869  000682                     u3180:
   870  000682  A880               	btfss	128,4,c	;volatile
   871  000684  EF46  F003         	goto	u3191
   872  000688  EF48  F003         	goto	u3190
   873  00068C                     u3191:
   874  00068C  EF71  F003         	goto	l236
   875  000690                     u3190:
   876  000690  B082               	btfsc	130,0,c	;volatile
   877  000692  EF4D  F003         	goto	u3201
   878  000696  EF4F  F003         	goto	u3200
   879  00069A                     u3201:
   880  00069A  EF71  F003         	goto	l236
   881  00069E                     u3200:
   882  00069E  B680               	btfsc	128,3,c	;volatile
   883  0006A0  EF54  F003         	goto	u3211
   884  0006A4  EF56  F003         	goto	u3210
   885  0006A8                     u3211:
   886  0006A8  EF71  F003         	goto	l236
   887  0006AC                     u3210:
   888  0006AC  A480               	btfss	128,2,c	;volatile
   889  0006AE  EF5B  F003         	goto	u3221
   890  0006B2  EF5D  F003         	goto	u3220
   891  0006B6                     u3221:
   892  0006B6  EF71  F003         	goto	l236
   893  0006BA                     u3220:
   894  0006BA                     
   895                           ;hachiko_0.c: 166:                     moverMotor('e','f',70);
   896  0006BA  0E66               	movlw	102
   897  0006BC  6E08               	movwf	moverMotor@sentido^0,c
   898  0006BE  0E00               	movlw	0
   899  0006C0  6E0A               	movwf	(moverMotor@velocidade+1)^0,c
   900  0006C2  0E46               	movlw	70
   901  0006C4  6E09               	movwf	moverMotor@velocidade^0,c
   902  0006C6  0E65               	movlw	101
   903  0006C8  ECEA  F00B         	call	_moverMotor
   904                           
   905                           ;hachiko_0.c: 167:                     moverMotor('d','t',70);
   906  0006CC  0E74               	movlw	116
   907  0006CE  6E08               	movwf	moverMotor@sentido^0,c
   908  0006D0  0E00               	movlw	0
   909  0006D2  6E0A               	movwf	(moverMotor@velocidade+1)^0,c
   910  0006D4  0E46               	movlw	70
   911  0006D6  6E09               	movwf	moverMotor@velocidade^0,c
   912  0006D8  0E64               	movlw	100
   913  0006DA  ECEA  F00B         	call	_moverMotor
   914                           
   915                           ;hachiko_0.c: 168:                 }
   916  0006DE  EF5F  F004         	goto	l2168
   917  0006E2                     l236:
   918  0006E2  A280               	btfss	128,1,c	;volatile
   919  0006E4  EF76  F003         	goto	u3231
   920  0006E8  EF78  F003         	goto	u3230
   921  0006EC                     u3231:
   922  0006EC  EFA8  F003         	goto	l238
   923  0006F0                     u3230:
   924  0006F0  B880               	btfsc	128,4,c	;volatile
   925  0006F2  EF7D  F003         	goto	u3241
   926  0006F6  EF7F  F003         	goto	u3240
   927  0006FA                     u3241:
   928  0006FA  EFA8  F003         	goto	l238
   929  0006FE                     u3240:
   930  0006FE  A082               	btfss	130,0,c	;volatile
   931  000700  EF84  F003         	goto	u3251
   932  000704  EF86  F003         	goto	u3250
   933  000708                     u3251:
   934  000708  EFA8  F003         	goto	l238
   935  00070C                     u3250:
   936  00070C  A680               	btfss	128,3,c	;volatile
   937  00070E  EF8B  F003         	goto	u3261
   938  000712  EF8D  F003         	goto	u3260
   939  000716                     u3261:
   940  000716  EFA8  F003         	goto	l238
   941  00071A                     u3260:
   942  00071A  A480               	btfss	128,2,c	;volatile
   943  00071C  EF92  F003         	goto	u3271
   944  000720  EF94  F003         	goto	u3270
   945  000724                     u3271:
   946  000724  EFA8  F003         	goto	l238
   947  000728                     u3270:
   948  000728                     
   949                           ;hachiko_0.c: 170:                     moverMotor('e','t',70);
   950  000728  0E74               	movlw	116
   951  00072A  6E08               	movwf	moverMotor@sentido^0,c
   952  00072C  0E00               	movlw	0
   953  00072E  6E0A               	movwf	(moverMotor@velocidade+1)^0,c
   954  000730  0E46               	movlw	70
   955  000732  6E09               	movwf	moverMotor@velocidade^0,c
   956  000734  0E65               	movlw	101
   957  000736  ECEA  F00B         	call	_moverMotor
   958                           
   959                           ;hachiko_0.c: 171:                     moverMotor('d','f',70);
   960  00073A  0E66               	movlw	102
   961  00073C  6E08               	movwf	moverMotor@sentido^0,c
   962  00073E  0E00               	movlw	0
   963  000740  6E0A               	movwf	(moverMotor@velocidade+1)^0,c
   964  000742  0E46               	movlw	70
   965  000744  6E09               	movwf	moverMotor@velocidade^0,c
   966  000746  0E64               	movlw	100
   967  000748  ECEA  F00B         	call	_moverMotor
   968                           
   969                           ;hachiko_0.c: 172:                 }
   970  00074C  EF5F  F004         	goto	l2168
   971  000750                     l238:
   972  000750  A280               	btfss	128,1,c	;volatile
   973  000752  EFAD  F003         	goto	u3281
   974  000756  EFAF  F003         	goto	u3280
   975  00075A                     u3281:
   976  00075A  EFDF  F003         	goto	l240
   977  00075E                     u3280:
   978  00075E  B880               	btfsc	128,4,c	;volatile
   979  000760  EFB4  F003         	goto	u3291
   980  000764  EFB6  F003         	goto	u3290
   981  000768                     u3291:
   982  000768  EFDF  F003         	goto	l240
   983  00076C                     u3290:
   984  00076C  B082               	btfsc	130,0,c	;volatile
   985  00076E  EFBB  F003         	goto	u3301
   986  000772  EFBD  F003         	goto	u3300
   987  000776                     u3301:
   988  000776  EFDF  F003         	goto	l240
   989  00077A                     u3300:
   990  00077A  A680               	btfss	128,3,c	;volatile
   991  00077C  EFC2  F003         	goto	u3311
   992  000780  EFC4  F003         	goto	u3310
   993  000784                     u3311:
   994  000784  EFDF  F003         	goto	l240
   995  000788                     u3310:
   996  000788  A480               	btfss	128,2,c	;volatile
   997  00078A  EFC9  F003         	goto	u3321
   998  00078E  EFCB  F003         	goto	u3320
   999  000792                     u3321:
  1000  000792  EFDF  F003         	goto	l240
  1001  000796                     u3320:
  1002  000796                     
  1003                           ;hachiko_0.c: 174:                     moverMotor('e','t',70);
  1004  000796  0E74               	movlw	116
  1005  000798  6E08               	movwf	moverMotor@sentido^0,c
  1006  00079A  0E00               	movlw	0
  1007  00079C  6E0A               	movwf	(moverMotor@velocidade+1)^0,c
  1008  00079E  0E46               	movlw	70
  1009  0007A0  6E09               	movwf	moverMotor@velocidade^0,c
  1010  0007A2  0E65               	movlw	101
  1011  0007A4  ECEA  F00B         	call	_moverMotor
  1012                           
  1013                           ;hachiko_0.c: 175:                     moverMotor('d','f',70);
  1014  0007A8  0E66               	movlw	102
  1015  0007AA  6E08               	movwf	moverMotor@sentido^0,c
  1016  0007AC  0E00               	movlw	0
  1017  0007AE  6E0A               	movwf	(moverMotor@velocidade+1)^0,c
  1018  0007B0  0E46               	movlw	70
  1019  0007B2  6E09               	movwf	moverMotor@velocidade^0,c
  1020  0007B4  0E64               	movlw	100
  1021  0007B6  ECEA  F00B         	call	_moverMotor
  1022                           
  1023                           ;hachiko_0.c: 176:                 }
  1024  0007BA  EF5F  F004         	goto	l2168
  1025  0007BE                     l240:
  1026  0007BE  A280               	btfss	128,1,c	;volatile
  1027  0007C0  EFE4  F003         	goto	u3331
  1028  0007C4  EFE6  F003         	goto	u3330
  1029  0007C8                     u3331:
  1030  0007C8  EF16  F004         	goto	l242
  1031  0007CC                     u3330:
  1032  0007CC  A880               	btfss	128,4,c	;volatile
  1033  0007CE  EFEB  F003         	goto	u3341
  1034  0007D2  EFED  F003         	goto	u3340
  1035  0007D6                     u3341:
  1036  0007D6  EF16  F004         	goto	l242
  1037  0007DA                     u3340:
  1038  0007DA  A082               	btfss	130,0,c	;volatile
  1039  0007DC  EFF2  F003         	goto	u3351
  1040  0007E0  EFF4  F003         	goto	u3350
  1041  0007E4                     u3351:
  1042  0007E4  EF16  F004         	goto	l242
  1043  0007E8                     u3350:
  1044  0007E8  A680               	btfss	128,3,c	;volatile
  1045  0007EA  EFF9  F003         	goto	u3361
  1046  0007EE  EFFB  F003         	goto	u3360
  1047  0007F2                     u3361:
  1048  0007F2  EF16  F004         	goto	l242
  1049  0007F6                     u3360:
  1050  0007F6  B480               	btfsc	128,2,c	;volatile
  1051  0007F8  EF00  F004         	goto	u3371
  1052  0007FC  EF02  F004         	goto	u3370
  1053  000800                     u3371:
  1054  000800  EF16  F004         	goto	l242
  1055  000804                     u3370:
  1056  000804                     
  1057                           ;hachiko_0.c: 178:                     moverMotor('e','f',70);
  1058  000804  0E66               	movlw	102
  1059  000806  6E08               	movwf	moverMotor@sentido^0,c
  1060  000808  0E00               	movlw	0
  1061  00080A  6E0A               	movwf	(moverMotor@velocidade+1)^0,c
  1062  00080C  0E46               	movlw	70
  1063  00080E  6E09               	movwf	moverMotor@velocidade^0,c
  1064  000810  0E65               	movlw	101
  1065  000812  ECEA  F00B         	call	_moverMotor
  1066                           
  1067                           ;hachiko_0.c: 179:                     moverMotor('d','t',70);
  1068  000816  0E74               	movlw	116
  1069  000818  6E08               	movwf	moverMotor@sentido^0,c
  1070  00081A  0E00               	movlw	0
  1071  00081C  6E0A               	movwf	(moverMotor@velocidade+1)^0,c
  1072  00081E  0E46               	movlw	70
  1073  000820  6E09               	movwf	moverMotor@velocidade^0,c
  1074  000822  0E64               	movlw	100
  1075  000824  ECEA  F00B         	call	_moverMotor
  1076                           
  1077                           ;hachiko_0.c: 180:                 }
  1078  000828  EF5F  F004         	goto	l2168
  1079  00082C                     l242:
  1080  00082C  A280               	btfss	128,1,c	;volatile
  1081  00082E  EF1B  F004         	goto	u3381
  1082  000832  EF1D  F004         	goto	u3380
  1083  000836                     u3381:
  1084  000836  EF4D  F004         	goto	l2166
  1085  00083A                     u3380:
  1086  00083A  B880               	btfsc	128,4,c	;volatile
  1087  00083C  EF22  F004         	goto	u3391
  1088  000840  EF24  F004         	goto	u3390
  1089  000844                     u3391:
  1090  000844  EF4D  F004         	goto	l2166
  1091  000848                     u3390:
  1092  000848  B082               	btfsc	130,0,c	;volatile
  1093  00084A  EF29  F004         	goto	u3401
  1094  00084E  EF2B  F004         	goto	u3400
  1095  000852                     u3401:
  1096  000852  EF4D  F004         	goto	l2166
  1097  000856                     u3400:
  1098  000856  B680               	btfsc	128,3,c	;volatile
  1099  000858  EF30  F004         	goto	u3411
  1100  00085C  EF32  F004         	goto	u3410
  1101  000860                     u3411:
  1102  000860  EF4D  F004         	goto	l2166
  1103  000864                     u3410:
  1104  000864  A480               	btfss	128,2,c	;volatile
  1105  000866  EF37  F004         	goto	u3421
  1106  00086A  EF39  F004         	goto	u3420
  1107  00086E                     u3421:
  1108  00086E  EF4D  F004         	goto	l2166
  1109  000872                     u3420:
  1110  000872                     
  1111                           ;hachiko_0.c: 182:                     moverMotor('d','f',100);
  1112  000872  0E66               	movlw	102
  1113  000874  6E08               	movwf	moverMotor@sentido^0,c
  1114  000876  0E00               	movlw	0
  1115  000878  6E0A               	movwf	(moverMotor@velocidade+1)^0,c
  1116  00087A  0E64               	movlw	100
  1117  00087C  6E09               	movwf	moverMotor@velocidade^0,c
  1118  00087E  0E64               	movlw	100
  1119  000880  ECEA  F00B         	call	_moverMotor
  1120                           
  1121                           ;hachiko_0.c: 183:                     moverMotor('e','f',100);
  1122  000884  0E66               	movlw	102
  1123  000886  6E08               	movwf	moverMotor@sentido^0,c
  1124  000888  0E00               	movlw	0
  1125  00088A  6E0A               	movwf	(moverMotor@velocidade+1)^0,c
  1126  00088C  0E64               	movlw	100
  1127  00088E  6E09               	movwf	moverMotor@velocidade^0,c
  1128  000890  0E65               	movlw	101
  1129  000892  ECEA  F00B         	call	_moverMotor
  1130                           
  1131                           ;hachiko_0.c: 184:                 }
  1132  000896  EF5F  F004         	goto	l2168
  1133  00089A                     l2166:
  1134                           
  1135                           ;hachiko_0.c: 186:                     moverMotor('d','f',100);
  1136  00089A  0E66               	movlw	102
  1137  00089C  6E08               	movwf	moverMotor@sentido^0,c
  1138  00089E  0E00               	movlw	0
  1139  0008A0  6E0A               	movwf	(moverMotor@velocidade+1)^0,c
  1140  0008A2  0E64               	movlw	100
  1141  0008A4  6E09               	movwf	moverMotor@velocidade^0,c
  1142  0008A6  0E64               	movlw	100
  1143  0008A8  ECEA  F00B         	call	_moverMotor
  1144                           
  1145                           ;hachiko_0.c: 187:                     moverMotor('e','f',100);
  1146  0008AC  0E66               	movlw	102
  1147  0008AE  6E08               	movwf	moverMotor@sentido^0,c
  1148  0008B0  0E00               	movlw	0
  1149  0008B2  6E0A               	movwf	(moverMotor@velocidade+1)^0,c
  1150  0008B4  0E64               	movlw	100
  1151  0008B6  6E09               	movwf	moverMotor@velocidade^0,c
  1152  0008B8  0E65               	movlw	101
  1153  0008BA  ECEA  F00B         	call	_moverMotor
  1154  0008BE                     l2168:
  1155                           
  1156                           ;hachiko_0.c: 191:                 if(TMR0IF){
  1157  0008BE  A4F2               	btfss	4082,2,c	;volatile
  1158  0008C0  EF64  F004         	goto	u3431
  1159  0008C4  EF66  F004         	goto	u3430
  1160  0008C8                     u3431:
  1161  0008C8  EF6C  F004         	goto	l2176
  1162  0008CC                     u3430:
  1163  0008CC                     
  1164                           ;hachiko_0.c: 192:                     TMR0IF = 0;
  1165  0008CC  94F2               	bcf	4082,2,c	;volatile
  1166  0008CE                     
  1167                           ;hachiko_0.c: 193:                     TMR0L = 0x78;
  1168  0008CE  0E78               	movlw	120
  1169  0008D0  6ED6               	movwf	214,c	;volatile
  1170                           
  1171                           ;hachiko_0.c: 194:                     TMR0H = 0xF8;
  1172  0008D2  0EF8               	movlw	248
  1173  0008D4  6ED7               	movwf	215,c	;volatile
  1174  0008D6                     
  1175                           ;hachiko_0.c: 195:                     cont_tmr++;
  1176  0008D6  2A12               	incf	main@cont_tmr^0,f,c
  1177  0008D8                     l2176:
  1178                           
  1179                           ;hachiko_0.c: 198:                 if(acao == "parar"){
  1180  0008D8  0E33               	movlw	low STR_7
  1181  0008DA  181A               	xorwf	_acao^0,w,c
  1182  0008DC  E107               	bnz	u3441
  1183  0008DE  0E03               	movlw	high STR_7
  1184  0008E0  181B               	xorwf	(_acao+1)^0,w,c
  1185  0008E2  A4D8               	btfss	status,2,c
  1186  0008E4  EF76  F004         	goto	u3441
  1187  0008E8  EF78  F004         	goto	u3440
  1188  0008EC                     u3441:
  1189  0008EC  EF7C  F004         	goto	l2180
  1190  0008F0                     u3440:
  1191  0008F0                     
  1192                           ;hachiko_0.c: 199:                     pararMotor();
  1193  0008F0  ECD0  F00C         	call	_pararMotor	;wreg free
  1194                           
  1195                           ;hachiko_0.c: 200:                     break;
  1196  0008F4  EF84  F004         	goto	l248
  1197  0008F8                     l2180:
  1198                           
  1199                           ;hachiko_0.c: 137:             while(cont_tmr < 0x64){
  1200  0008F8  0E63               	movlw	99
  1201  0008FA  6412               	cpfsgt	main@cont_tmr^0,c
  1202  0008FC  EF82  F004         	goto	u3451
  1203  000900  EF84  F004         	goto	u3450
  1204  000904                     u3451:
  1205  000904  EF15  F002         	goto	l221
  1206  000908                     u3450:
  1207  000908                     l248:
  1208                           
  1209                           ;hachiko_0.c: 203:             TMR0ON = 0;
  1210  000908  9ED5               	bcf	4053,7,c	;volatile
  1211  00090A                     l2182:
  1212                           
  1213                           ;hachiko_0.c: 206:         if(acao == "toquinho"){
  1214  00090A  0E14               	movlw	low STR_3
  1215  00090C  181A               	xorwf	_acao^0,w,c
  1216  00090E  E107               	bnz	u3461
  1217  000910  0E03               	movlw	high STR_3
  1218  000912  181B               	xorwf	(_acao+1)^0,w,c
  1219  000914  A4D8               	btfss	status,2,c
  1220  000916  EF8F  F004         	goto	u3461
  1221  00091A  EF91  F004         	goto	u3460
  1222  00091E                     u3461:
  1223  00091E  EF02  F007         	goto	l2312
  1224  000922                     u3460:
  1225  000922                     
  1226                           ;hachiko_0.c: 207:             TMR1ON = 1;
  1227  000922  80CD               	bsf	4045,0,c	;volatile
  1228  000924                     
  1229                           ;hachiko_0.c: 208:             TMR1L = 0xDE;
  1230  000924  0EDE               	movlw	222
  1231  000926  6ECE               	movwf	206,c	;volatile
  1232                           
  1233                           ;hachiko_0.c: 209:             TMR1H = 0x0B;
  1234  000928  0E0B               	movlw	11
  1235  00092A  6ECF               	movwf	207,c	;volatile
  1236                           
  1237                           ;hachiko_0.c: 210:             char aux = 0x00;
  1238  00092C  0E00               	movlw	0
  1239  00092E  6E15               	movwf	main@aux^0,c
  1240                           
  1241                           ;hachiko_0.c: 211:             int cont = 0;
  1242  000930  0E00               	movlw	0
  1243  000932  6E14               	movwf	(main@cont+1)^0,c
  1244  000934  0E00               	movlw	0
  1245  000936  6E13               	movwf	main@cont^0,c
  1246                           
  1247                           ;hachiko_0.c: 212:             while(aux < 0x0A){
  1248  000938  EFF9  F006         	goto	l2310
  1249  00093C                     l251:
  1250                           
  1251                           ;hachiko_0.c: 214:                 if(TMR1IF){
  1252  00093C  A09E               	btfss	3998,0,c	;volatile
  1253  00093E  EFA3  F004         	goto	u3471
  1254  000942  EFA5  F004         	goto	u3470
  1255  000946                     u3471:
  1256  000946  EFAC  F004         	goto	l2194
  1257  00094A                     u3470:
  1258  00094A                     
  1259                           ;hachiko_0.c: 215:                     TMR1IF = 0;
  1260  00094A  909E               	bcf	3998,0,c	;volatile
  1261  00094C                     
  1262                           ;hachiko_0.c: 216:                     TMR1L = 0xDE;
  1263  00094C  0EDE               	movlw	222
  1264  00094E  6ECE               	movwf	206,c	;volatile
  1265                           
  1266                           ;hachiko_0.c: 217:                     TMR1H = 0x0B;
  1267  000950  0E0B               	movlw	11
  1268  000952  6ECF               	movwf	207,c	;volatile
  1269  000954                     
  1270                           ;hachiko_0.c: 218:                     cont++;
  1271  000954  4A13               	infsnz	main@cont^0,f,c
  1272  000956  2A14               	incf	(main@cont+1)^0,f,c
  1273  000958                     l2194:
  1274                           
  1275                           ;hachiko_0.c: 221:                 if(!PORTCbits.RC4 || !PORTCbits.RC3) {
  1276  000958  A882               	btfss	130,4,c	;volatile
  1277  00095A  EFB1  F004         	goto	u3481
  1278  00095E  EFB3  F004         	goto	u3480
  1279  000962                     u3481:
  1280  000962  EFBA  F004         	goto	l2198
  1281  000966                     u3480:
  1282  000966  B682               	btfsc	130,3,c	;volatile
  1283  000968  EFB8  F004         	goto	u3491
  1284  00096C  EFBA  F004         	goto	u3490
  1285  000970                     u3491:
  1286  000970  EFBE  F004         	goto	l2200
  1287  000974                     u3490:
  1288  000974                     l2198:
  1289                           
  1290                           ;hachiko_0.c: 222:                     linha();
  1291  000974  EC47  F00B         	call	_linha	;wreg free
  1292                           
  1293                           ;hachiko_0.c: 223:                 } else {
  1294  000978  EFE9  F006         	goto	l2306
  1295  00097C                     l2200:
  1296                           
  1297                           ;hachiko_0.c: 224:                 if(cont < 10){
  1298  00097C  BE14               	btfsc	(main@cont+1)^0,7,c
  1299  00097E  EFCC  F004         	goto	u3500
  1300  000982  5014               	movf	(main@cont+1)^0,w,c
  1301  000984  E107               	bnz	u3501
  1302  000986  0E0A               	movlw	10
  1303  000988  5C13               	subwf	main@cont^0,w,c
  1304  00098A  B0D8               	btfsc	status,0,c
  1305  00098C  EFCA  F004         	goto	u3501
  1306  000990  EFCC  F004         	goto	u3500
  1307  000994                     u3501:
  1308  000994  EFE0  F006         	goto	l2300
  1309  000998                     u3500:
  1310  000998                     
  1311                           ;hachiko_0.c: 225:                     if(!PORTAbits.RA1 && PORTAbits.RA4 && PORTCbits.R
      +                          C0 && PORTAbits.RA3 && PORTAbits.RA2){
  1312  000998  B280               	btfsc	128,1,c	;volatile
  1313  00099A  EFD1  F004         	goto	u3511
  1314  00099E  EFD3  F004         	goto	u3510
  1315  0009A2                     u3511:
  1316  0009A2  EF03  F005         	goto	l258
  1317  0009A6                     u3510:
  1318  0009A6  A880               	btfss	128,4,c	;volatile
  1319  0009A8  EFD8  F004         	goto	u3521
  1320  0009AC  EFDA  F004         	goto	u3520
  1321  0009B0                     u3521:
  1322  0009B0  EF03  F005         	goto	l258
  1323  0009B4                     u3520:
  1324  0009B4  A082               	btfss	130,0,c	;volatile
  1325  0009B6  EFDF  F004         	goto	u3531
  1326  0009BA  EFE1  F004         	goto	u3530
  1327  0009BE                     u3531:
  1328  0009BE  EF03  F005         	goto	l258
  1329  0009C2                     u3530:
  1330  0009C2  A680               	btfss	128,3,c	;volatile
  1331  0009C4  EFE6  F004         	goto	u3541
  1332  0009C8  EFE8  F004         	goto	u3540
  1333  0009CC                     u3541:
  1334  0009CC  EF03  F005         	goto	l258
  1335  0009D0                     u3540:
  1336  0009D0  A480               	btfss	128,2,c	;volatile
  1337  0009D2  EFED  F004         	goto	u3551
  1338  0009D6  EFEF  F004         	goto	u3550
  1339  0009DA                     u3551:
  1340  0009DA  EF03  F005         	goto	l258
  1341  0009DE                     u3550:
  1342  0009DE                     
  1343                           ;hachiko_0.c: 226:                         moverMotor('e','t',80);
  1344  0009DE  0E74               	movlw	116
  1345  0009E0  6E08               	movwf	moverMotor@sentido^0,c
  1346  0009E2  0E00               	movlw	0
  1347  0009E4  6E0A               	movwf	(moverMotor@velocidade+1)^0,c
  1348  0009E6  0E50               	movlw	80
  1349  0009E8  6E09               	movwf	moverMotor@velocidade^0,c
  1350  0009EA  0E65               	movlw	101
  1351  0009EC  ECEA  F00B         	call	_moverMotor
  1352                           
  1353                           ;hachiko_0.c: 227:                         moverMotor('d','f',80);
  1354  0009F0  0E66               	movlw	102
  1355  0009F2  6E08               	movwf	moverMotor@sentido^0,c
  1356  0009F4  0E00               	movlw	0
  1357  0009F6  6E0A               	movwf	(moverMotor@velocidade+1)^0,c
  1358  0009F8  0E50               	movlw	80
  1359  0009FA  6E09               	movwf	moverMotor@velocidade^0,c
  1360  0009FC  0E64               	movlw	100
  1361  0009FE  ECEA  F00B         	call	_moverMotor
  1362                           
  1363                           ;hachiko_0.c: 228:                     }
  1364  000A02  EFE9  F006         	goto	l2306
  1365  000A06                     l258:
  1366  000A06  A280               	btfss	128,1,c	;volatile
  1367  000A08  EF08  F005         	goto	u3561
  1368  000A0C  EF0A  F005         	goto	u3560
  1369  000A10                     u3561:
  1370  000A10  EF3A  F005         	goto	l260
  1371  000A14                     u3560:
  1372  000A14  A880               	btfss	128,4,c	;volatile
  1373  000A16  EF0F  F005         	goto	u3571
  1374  000A1A  EF11  F005         	goto	u3570
  1375  000A1E                     u3571:
  1376  000A1E  EF3A  F005         	goto	l260
  1377  000A22                     u3570:
  1378  000A22  B082               	btfsc	130,0,c	;volatile
  1379  000A24  EF16  F005         	goto	u3581
  1380  000A28  EF18  F005         	goto	u3580
  1381  000A2C                     u3581:
  1382  000A2C  EF3A  F005         	goto	l260
  1383  000A30                     u3580:
  1384  000A30  A680               	btfss	128,3,c	;volatile
  1385  000A32  EF1D  F005         	goto	u3591
  1386  000A36  EF1F  F005         	goto	u3590
  1387  000A3A                     u3591:
  1388  000A3A  EF3A  F005         	goto	l260
  1389  000A3E                     u3590:
  1390  000A3E  A480               	btfss	128,2,c	;volatile
  1391  000A40  EF24  F005         	goto	u3601
  1392  000A44  EF26  F005         	goto	u3600
  1393  000A48                     u3601:
  1394  000A48  EF3A  F005         	goto	l260
  1395  000A4C                     u3600:
  1396  000A4C                     
  1397                           ;hachiko_0.c: 230:                         moverMotor('e','f',100);
  1398  000A4C  0E66               	movlw	102
  1399  000A4E  6E08               	movwf	moverMotor@sentido^0,c
  1400  000A50  0E00               	movlw	0
  1401  000A52  6E0A               	movwf	(moverMotor@velocidade+1)^0,c
  1402  000A54  0E64               	movlw	100
  1403  000A56  6E09               	movwf	moverMotor@velocidade^0,c
  1404  000A58  0E65               	movlw	101
  1405  000A5A  ECEA  F00B         	call	_moverMotor
  1406                           
  1407                           ;hachiko_0.c: 231:                         moverMotor('d','f',100);
  1408  000A5E  0E66               	movlw	102
  1409  000A60  6E08               	movwf	moverMotor@sentido^0,c
  1410  000A62  0E00               	movlw	0
  1411  000A64  6E0A               	movwf	(moverMotor@velocidade+1)^0,c
  1412  000A66  0E64               	movlw	100
  1413  000A68  6E09               	movwf	moverMotor@velocidade^0,c
  1414  000A6A  0E64               	movlw	100
  1415  000A6C  ECEA  F00B         	call	_moverMotor
  1416                           
  1417                           ;hachiko_0.c: 233:                     }
  1418  000A70  EFE9  F006         	goto	l2306
  1419  000A74                     l260:
  1420  000A74  A280               	btfss	128,1,c	;volatile
  1421  000A76  EF3F  F005         	goto	u3611
  1422  000A7A  EF41  F005         	goto	u3610
  1423  000A7E                     u3611:
  1424  000A7E  EF71  F005         	goto	l262
  1425  000A82                     u3610:
  1426  000A82  B880               	btfsc	128,4,c	;volatile
  1427  000A84  EF46  F005         	goto	u3621
  1428  000A88  EF48  F005         	goto	u3620
  1429  000A8C                     u3621:
  1430  000A8C  EF71  F005         	goto	l262
  1431  000A90                     u3620:
  1432  000A90  A082               	btfss	130,0,c	;volatile
  1433  000A92  EF4D  F005         	goto	u3631
  1434  000A96  EF4F  F005         	goto	u3630
  1435  000A9A                     u3631:
  1436  000A9A  EF71  F005         	goto	l262
  1437  000A9E                     u3630:
  1438  000A9E  B680               	btfsc	128,3,c	;volatile
  1439  000AA0  EF54  F005         	goto	u3641
  1440  000AA4  EF56  F005         	goto	u3640
  1441  000AA8                     u3641:
  1442  000AA8  EF71  F005         	goto	l262
  1443  000AAC                     u3640:
  1444  000AAC  A480               	btfss	128,2,c	;volatile
  1445  000AAE  EF5B  F005         	goto	u3651
  1446  000AB2  EF5D  F005         	goto	u3650
  1447  000AB6                     u3651:
  1448  000AB6  EF71  F005         	goto	l262
  1449  000ABA                     u3650:
  1450  000ABA                     
  1451                           ;hachiko_0.c: 235:                         moverMotor('e','f',100);
  1452  000ABA  0E66               	movlw	102
  1453  000ABC  6E08               	movwf	moverMotor@sentido^0,c
  1454  000ABE  0E00               	movlw	0
  1455  000AC0  6E0A               	movwf	(moverMotor@velocidade+1)^0,c
  1456  000AC2  0E64               	movlw	100
  1457  000AC4  6E09               	movwf	moverMotor@velocidade^0,c
  1458  000AC6  0E65               	movlw	101
  1459  000AC8  ECEA  F00B         	call	_moverMotor
  1460                           
  1461                           ;hachiko_0.c: 236:                         moverMotor('d','f',100);
  1462  000ACC  0E66               	movlw	102
  1463  000ACE  6E08               	movwf	moverMotor@sentido^0,c
  1464  000AD0  0E00               	movlw	0
  1465  000AD2  6E0A               	movwf	(moverMotor@velocidade+1)^0,c
  1466  000AD4  0E64               	movlw	100
  1467  000AD6  6E09               	movwf	moverMotor@velocidade^0,c
  1468  000AD8  0E64               	movlw	100
  1469  000ADA  ECEA  F00B         	call	_moverMotor
  1470                           
  1471                           ;hachiko_0.c: 238:                     }
  1472  000ADE  EFE9  F006         	goto	l2306
  1473  000AE2                     l262:
  1474  000AE2  A280               	btfss	128,1,c	;volatile
  1475  000AE4  EF76  F005         	goto	u3661
  1476  000AE8  EF78  F005         	goto	u3660
  1477  000AEC                     u3661:
  1478  000AEC  EFA8  F005         	goto	l264
  1479  000AF0                     u3660:
  1480  000AF0  A880               	btfss	128,4,c	;volatile
  1481  000AF2  EF7D  F005         	goto	u3671
  1482  000AF6  EF7F  F005         	goto	u3670
  1483  000AFA                     u3671:
  1484  000AFA  EFA8  F005         	goto	l264
  1485  000AFE                     u3670:
  1486  000AFE  A082               	btfss	130,0,c	;volatile
  1487  000B00  EF84  F005         	goto	u3681
  1488  000B04  EF86  F005         	goto	u3680
  1489  000B08                     u3681:
  1490  000B08  EFA8  F005         	goto	l264
  1491  000B0C                     u3680:
  1492  000B0C  B680               	btfsc	128,3,c	;volatile
  1493  000B0E  EF8B  F005         	goto	u3691
  1494  000B12  EF8D  F005         	goto	u3690
  1495  000B16                     u3691:
  1496  000B16  EFA8  F005         	goto	l264
  1497  000B1A                     u3690:
  1498  000B1A  A480               	btfss	128,2,c	;volatile
  1499  000B1C  EF92  F005         	goto	u3701
  1500  000B20  EF94  F005         	goto	u3700
  1501  000B24                     u3701:
  1502  000B24  EFA8  F005         	goto	l264
  1503  000B28                     u3700:
  1504  000B28                     
  1505                           ;hachiko_0.c: 240:                         moverMotor('e','f',70);
  1506  000B28  0E66               	movlw	102
  1507  000B2A  6E08               	movwf	moverMotor@sentido^0,c
  1508  000B2C  0E00               	movlw	0
  1509  000B2E  6E0A               	movwf	(moverMotor@velocidade+1)^0,c
  1510  000B30  0E46               	movlw	70
  1511  000B32  6E09               	movwf	moverMotor@velocidade^0,c
  1512  000B34  0E65               	movlw	101
  1513  000B36  ECEA  F00B         	call	_moverMotor
  1514                           
  1515                           ;hachiko_0.c: 241:                         moverMotor('d','t',70);
  1516  000B3A  0E74               	movlw	116
  1517  000B3C  6E08               	movwf	moverMotor@sentido^0,c
  1518  000B3E  0E00               	movlw	0
  1519  000B40  6E0A               	movwf	(moverMotor@velocidade+1)^0,c
  1520  000B42  0E46               	movlw	70
  1521  000B44  6E09               	movwf	moverMotor@velocidade^0,c
  1522  000B46  0E64               	movlw	100
  1523  000B48  ECEA  F00B         	call	_moverMotor
  1524                           
  1525                           ;hachiko_0.c: 242:                     }
  1526  000B4C  EFE9  F006         	goto	l2306
  1527  000B50                     l264:
  1528  000B50  A280               	btfss	128,1,c	;volatile
  1529  000B52  EFAD  F005         	goto	u3711
  1530  000B56  EFAF  F005         	goto	u3710
  1531  000B5A                     u3711:
  1532  000B5A  EFDF  F005         	goto	l266
  1533  000B5E                     u3710:
  1534  000B5E  A880               	btfss	128,4,c	;volatile
  1535  000B60  EFB4  F005         	goto	u3721
  1536  000B64  EFB6  F005         	goto	u3720
  1537  000B68                     u3721:
  1538  000B68  EFDF  F005         	goto	l266
  1539  000B6C                     u3720:
  1540  000B6C  B082               	btfsc	130,0,c	;volatile
  1541  000B6E  EFBB  F005         	goto	u3731
  1542  000B72  EFBD  F005         	goto	u3730
  1543  000B76                     u3731:
  1544  000B76  EFDF  F005         	goto	l266
  1545  000B7A                     u3730:
  1546  000B7A  B680               	btfsc	128,3,c	;volatile
  1547  000B7C  EFC2  F005         	goto	u3741
  1548  000B80  EFC4  F005         	goto	u3740
  1549  000B84                     u3741:
  1550  000B84  EFDF  F005         	goto	l266
  1551  000B88                     u3740:
  1552  000B88  A480               	btfss	128,2,c	;volatile
  1553  000B8A  EFC9  F005         	goto	u3751
  1554  000B8E  EFCB  F005         	goto	u3750
  1555  000B92                     u3751:
  1556  000B92  EFDF  F005         	goto	l266
  1557  000B96                     u3750:
  1558  000B96                     
  1559                           ;hachiko_0.c: 244:                         moverMotor('e','f',70);
  1560  000B96  0E66               	movlw	102
  1561  000B98  6E08               	movwf	moverMotor@sentido^0,c
  1562  000B9A  0E00               	movlw	0
  1563  000B9C  6E0A               	movwf	(moverMotor@velocidade+1)^0,c
  1564  000B9E  0E46               	movlw	70
  1565  000BA0  6E09               	movwf	moverMotor@velocidade^0,c
  1566  000BA2  0E65               	movlw	101
  1567  000BA4  ECEA  F00B         	call	_moverMotor
  1568                           
  1569                           ;hachiko_0.c: 245:                         moverMotor('d','t',70);
  1570  000BA8  0E74               	movlw	116
  1571  000BAA  6E08               	movwf	moverMotor@sentido^0,c
  1572  000BAC  0E00               	movlw	0
  1573  000BAE  6E0A               	movwf	(moverMotor@velocidade+1)^0,c
  1574  000BB0  0E46               	movlw	70
  1575  000BB2  6E09               	movwf	moverMotor@velocidade^0,c
  1576  000BB4  0E64               	movlw	100
  1577  000BB6  ECEA  F00B         	call	_moverMotor
  1578                           
  1579                           ;hachiko_0.c: 246:                     }
  1580  000BBA  EFE9  F006         	goto	l2306
  1581  000BBE                     l266:
  1582  000BBE  A280               	btfss	128,1,c	;volatile
  1583  000BC0  EFE4  F005         	goto	u3761
  1584  000BC4  EFE6  F005         	goto	u3760
  1585  000BC8                     u3761:
  1586  000BC8  EF16  F006         	goto	l268
  1587  000BCC                     u3760:
  1588  000BCC  B880               	btfsc	128,4,c	;volatile
  1589  000BCE  EFEB  F005         	goto	u3771
  1590  000BD2  EFED  F005         	goto	u3770
  1591  000BD6                     u3771:
  1592  000BD6  EF16  F006         	goto	l268
  1593  000BDA                     u3770:
  1594  000BDA  A082               	btfss	130,0,c	;volatile
  1595  000BDC  EFF2  F005         	goto	u3781
  1596  000BE0  EFF4  F005         	goto	u3780
  1597  000BE4                     u3781:
  1598  000BE4  EF16  F006         	goto	l268
  1599  000BE8                     u3780:
  1600  000BE8  A680               	btfss	128,3,c	;volatile
  1601  000BEA  EFF9  F005         	goto	u3791
  1602  000BEE  EFFB  F005         	goto	u3790
  1603  000BF2                     u3791:
  1604  000BF2  EF16  F006         	goto	l268
  1605  000BF6                     u3790:
  1606  000BF6  A480               	btfss	128,2,c	;volatile
  1607  000BF8  EF00  F006         	goto	u3801
  1608  000BFC  EF02  F006         	goto	u3800
  1609  000C00                     u3801:
  1610  000C00  EF16  F006         	goto	l268
  1611  000C04                     u3800:
  1612  000C04                     
  1613                           ;hachiko_0.c: 248:                         moverMotor('e','t',70);
  1614  000C04  0E74               	movlw	116
  1615  000C06  6E08               	movwf	moverMotor@sentido^0,c
  1616  000C08  0E00               	movlw	0
  1617  000C0A  6E0A               	movwf	(moverMotor@velocidade+1)^0,c
  1618  000C0C  0E46               	movlw	70
  1619  000C0E  6E09               	movwf	moverMotor@velocidade^0,c
  1620  000C10  0E65               	movlw	101
  1621  000C12  ECEA  F00B         	call	_moverMotor
  1622                           
  1623                           ;hachiko_0.c: 249:                         moverMotor('d','f',70);
  1624  000C16  0E66               	movlw	102
  1625  000C18  6E08               	movwf	moverMotor@sentido^0,c
  1626  000C1A  0E00               	movlw	0
  1627  000C1C  6E0A               	movwf	(moverMotor@velocidade+1)^0,c
  1628  000C1E  0E46               	movlw	70
  1629  000C20  6E09               	movwf	moverMotor@velocidade^0,c
  1630  000C22  0E64               	movlw	100
  1631  000C24  ECEA  F00B         	call	_moverMotor
  1632                           
  1633                           ;hachiko_0.c: 250:                     }
  1634  000C28  EFE9  F006         	goto	l2306
  1635  000C2C                     l268:
  1636  000C2C  A280               	btfss	128,1,c	;volatile
  1637  000C2E  EF1B  F006         	goto	u3811
  1638  000C32  EF1D  F006         	goto	u3810
  1639  000C36                     u3811:
  1640  000C36  EF4D  F006         	goto	l270
  1641  000C3A                     u3810:
  1642  000C3A  B880               	btfsc	128,4,c	;volatile
  1643  000C3C  EF22  F006         	goto	u3821
  1644  000C40  EF24  F006         	goto	u3820
  1645  000C44                     u3821:
  1646  000C44  EF4D  F006         	goto	l270
  1647  000C48                     u3820:
  1648  000C48  B082               	btfsc	130,0,c	;volatile
  1649  000C4A  EF29  F006         	goto	u3831
  1650  000C4E  EF2B  F006         	goto	u3830
  1651  000C52                     u3831:
  1652  000C52  EF4D  F006         	goto	l270
  1653  000C56                     u3830:
  1654  000C56  A680               	btfss	128,3,c	;volatile
  1655  000C58  EF30  F006         	goto	u3841
  1656  000C5C  EF32  F006         	goto	u3840
  1657  000C60                     u3841:
  1658  000C60  EF4D  F006         	goto	l270
  1659  000C64                     u3840:
  1660  000C64  A480               	btfss	128,2,c	;volatile
  1661  000C66  EF37  F006         	goto	u3851
  1662  000C6A  EF39  F006         	goto	u3850
  1663  000C6E                     u3851:
  1664  000C6E  EF4D  F006         	goto	l270
  1665  000C72                     u3850:
  1666  000C72                     
  1667                           ;hachiko_0.c: 252:                         moverMotor('e','t',70);
  1668  000C72  0E74               	movlw	116
  1669  000C74  6E08               	movwf	moverMotor@sentido^0,c
  1670  000C76  0E00               	movlw	0
  1671  000C78  6E0A               	movwf	(moverMotor@velocidade+1)^0,c
  1672  000C7A  0E46               	movlw	70
  1673  000C7C  6E09               	movwf	moverMotor@velocidade^0,c
  1674  000C7E  0E65               	movlw	101
  1675  000C80  ECEA  F00B         	call	_moverMotor
  1676                           
  1677                           ;hachiko_0.c: 253:                         moverMotor('d','f',70);
  1678  000C84  0E66               	movlw	102
  1679  000C86  6E08               	movwf	moverMotor@sentido^0,c
  1680  000C88  0E00               	movlw	0
  1681  000C8A  6E0A               	movwf	(moverMotor@velocidade+1)^0,c
  1682  000C8C  0E46               	movlw	70
  1683  000C8E  6E09               	movwf	moverMotor@velocidade^0,c
  1684  000C90  0E64               	movlw	100
  1685  000C92  ECEA  F00B         	call	_moverMotor
  1686                           
  1687                           ;hachiko_0.c: 254:                     }
  1688  000C96  EFE9  F006         	goto	l2306
  1689  000C9A                     l270:
  1690  000C9A  A280               	btfss	128,1,c	;volatile
  1691  000C9C  EF52  F006         	goto	u3861
  1692  000CA0  EF54  F006         	goto	u3860
  1693  000CA4                     u3861:
  1694  000CA4  EF84  F006         	goto	l272
  1695  000CA8                     u3860:
  1696  000CA8  A880               	btfss	128,4,c	;volatile
  1697  000CAA  EF59  F006         	goto	u3871
  1698  000CAE  EF5B  F006         	goto	u3870
  1699  000CB2                     u3871:
  1700  000CB2  EF84  F006         	goto	l272
  1701  000CB6                     u3870:
  1702  000CB6  A082               	btfss	130,0,c	;volatile
  1703  000CB8  EF60  F006         	goto	u3881
  1704  000CBC  EF62  F006         	goto	u3880
  1705  000CC0                     u3881:
  1706  000CC0  EF84  F006         	goto	l272
  1707  000CC4                     u3880:
  1708  000CC4  A680               	btfss	128,3,c	;volatile
  1709  000CC6  EF67  F006         	goto	u3891
  1710  000CCA  EF69  F006         	goto	u3890
  1711  000CCE                     u3891:
  1712  000CCE  EF84  F006         	goto	l272
  1713  000CD2                     u3890:
  1714  000CD2  B480               	btfsc	128,2,c	;volatile
  1715  000CD4  EF6E  F006         	goto	u3901
  1716  000CD8  EF70  F006         	goto	u3900
  1717  000CDC                     u3901:
  1718  000CDC  EF84  F006         	goto	l272
  1719  000CE0                     u3900:
  1720  000CE0                     
  1721                           ;hachiko_0.c: 256:                         moverMotor('e','f',80);
  1722  000CE0  0E66               	movlw	102
  1723  000CE2  6E08               	movwf	moverMotor@sentido^0,c
  1724  000CE4  0E00               	movlw	0
  1725  000CE6  6E0A               	movwf	(moverMotor@velocidade+1)^0,c
  1726  000CE8  0E50               	movlw	80
  1727  000CEA  6E09               	movwf	moverMotor@velocidade^0,c
  1728  000CEC  0E65               	movlw	101
  1729  000CEE  ECEA  F00B         	call	_moverMotor
  1730                           
  1731                           ;hachiko_0.c: 257:                         moverMotor('d','t',80);
  1732  000CF2  0E74               	movlw	116
  1733  000CF4  6E08               	movwf	moverMotor@sentido^0,c
  1734  000CF6  0E00               	movlw	0
  1735  000CF8  6E0A               	movwf	(moverMotor@velocidade+1)^0,c
  1736  000CFA  0E50               	movlw	80
  1737  000CFC  6E09               	movwf	moverMotor@velocidade^0,c
  1738  000CFE  0E64               	movlw	100
  1739  000D00  ECEA  F00B         	call	_moverMotor
  1740                           
  1741                           ;hachiko_0.c: 258:                     }
  1742  000D04  EFE9  F006         	goto	l2306
  1743  000D08                     l272:
  1744  000D08  A280               	btfss	128,1,c	;volatile
  1745  000D0A  EF89  F006         	goto	u3911
  1746  000D0E  EF8B  F006         	goto	u3910
  1747  000D12                     u3911:
  1748  000D12  EFBB  F006         	goto	l2294
  1749  000D16                     u3910:
  1750  000D16  B880               	btfsc	128,4,c	;volatile
  1751  000D18  EF90  F006         	goto	u3921
  1752  000D1C  EF92  F006         	goto	u3920
  1753  000D20                     u3921:
  1754  000D20  EFBB  F006         	goto	l2294
  1755  000D24                     u3920:
  1756  000D24  B082               	btfsc	130,0,c	;volatile
  1757  000D26  EF97  F006         	goto	u3931
  1758  000D2A  EF99  F006         	goto	u3930
  1759  000D2E                     u3931:
  1760  000D2E  EFBB  F006         	goto	l2294
  1761  000D32                     u3930:
  1762  000D32  B680               	btfsc	128,3,c	;volatile
  1763  000D34  EF9E  F006         	goto	u3941
  1764  000D38  EFA0  F006         	goto	u3940
  1765  000D3C                     u3941:
  1766  000D3C  EFBB  F006         	goto	l2294
  1767  000D40                     u3940:
  1768  000D40  A480               	btfss	128,2,c	;volatile
  1769  000D42  EFA5  F006         	goto	u3951
  1770  000D46  EFA7  F006         	goto	u3950
  1771  000D4A                     u3951:
  1772  000D4A  EFBB  F006         	goto	l2294
  1773  000D4E                     u3950:
  1774  000D4E                     
  1775                           ;hachiko_0.c: 260:                         moverMotor('d','f',100);
  1776  000D4E  0E66               	movlw	102
  1777  000D50  6E08               	movwf	moverMotor@sentido^0,c
  1778  000D52  0E00               	movlw	0
  1779  000D54  6E0A               	movwf	(moverMotor@velocidade+1)^0,c
  1780  000D56  0E64               	movlw	100
  1781  000D58  6E09               	movwf	moverMotor@velocidade^0,c
  1782  000D5A  0E64               	movlw	100
  1783  000D5C  ECEA  F00B         	call	_moverMotor
  1784                           
  1785                           ;hachiko_0.c: 261:                         moverMotor('e','f',100);
  1786  000D60  0E66               	movlw	102
  1787  000D62  6E08               	movwf	moverMotor@sentido^0,c
  1788  000D64  0E00               	movlw	0
  1789  000D66  6E0A               	movwf	(moverMotor@velocidade+1)^0,c
  1790  000D68  0E64               	movlw	100
  1791  000D6A  6E09               	movwf	moverMotor@velocidade^0,c
  1792  000D6C  0E65               	movlw	101
  1793  000D6E  ECEA  F00B         	call	_moverMotor
  1794                           
  1795                           ;hachiko_0.c: 262:                     }
  1796  000D72  EFE9  F006         	goto	l2306
  1797  000D76                     l2294:
  1798                           
  1799                           ;hachiko_0.c: 264:                         if(cont < 1){
  1800  000D76  BE14               	btfsc	(main@cont+1)^0,7,c
  1801  000D78  EFC8  F006         	goto	u3960
  1802  000D7C  5014               	movf	(main@cont+1)^0,w,c
  1803  000D7E  E106               	bnz	u3961
  1804  000D80  0413               	decf	main@cont^0,w,c
  1805  000D82  B0D8               	btfsc	status,0,c
  1806  000D84  EFC6  F006         	goto	u3961
  1807  000D88  EFC8  F006         	goto	u3960
  1808  000D8C                     u3961:
  1809  000D8C  EFDC  F006         	goto	l2298
  1810  000D90                     u3960:
  1811  000D90                     
  1812                           ;hachiko_0.c: 265:                             moverMotor('d','f',60);
  1813  000D90  0E66               	movlw	102
  1814  000D92  6E08               	movwf	moverMotor@sentido^0,c
  1815  000D94  0E00               	movlw	0
  1816  000D96  6E0A               	movwf	(moverMotor@velocidade+1)^0,c
  1817  000D98  0E3C               	movlw	60
  1818  000D9A  6E09               	movwf	moverMotor@velocidade^0,c
  1819  000D9C  0E64               	movlw	100
  1820  000D9E  ECEA  F00B         	call	_moverMotor
  1821                           
  1822                           ;hachiko_0.c: 266:                             moverMotor('e','f',60);
  1823  000DA2  0E66               	movlw	102
  1824  000DA4  6E08               	movwf	moverMotor@sentido^0,c
  1825  000DA6  0E00               	movlw	0
  1826  000DA8  6E0A               	movwf	(moverMotor@velocidade+1)^0,c
  1827  000DAA  0E3C               	movlw	60
  1828  000DAC  6E09               	movwf	moverMotor@velocidade^0,c
  1829  000DAE  0E65               	movlw	101
  1830  000DB0  ECEA  F00B         	call	_moverMotor
  1831                           
  1832                           ;hachiko_0.c: 267:                         }
  1833  000DB4  EFE9  F006         	goto	l2306
  1834  000DB8                     l2298:
  1835                           
  1836                           ;hachiko_0.c: 269:                             pararMotor();
  1837  000DB8  ECD0  F00C         	call	_pararMotor	;wreg free
  1838  000DBC  EFE9  F006         	goto	l2306
  1839  000DC0                     l2300:
  1840                           
  1841                           ;hachiko_0.c: 274:                     cont = 0;
  1842  000DC0  0E00               	movlw	0
  1843  000DC2  6E14               	movwf	(main@cont+1)^0,c
  1844  000DC4  0E00               	movlw	0
  1845  000DC6  6E13               	movwf	main@cont^0,c
  1846  000DC8                     
  1847                           ;hachiko_0.c: 275:                     aux++;
  1848  000DC8  2A15               	incf	main@aux^0,f,c
  1849  000DCA                     
  1850                           ;hachiko_0.c: 276:                     picUSART(aux + 48);
  1851  000DCA  5015               	movf	main@aux^0,w,c
  1852  000DCC  0F30               	addlw	48
  1853  000DCE  EC09  F00D         	call	_picUSART
  1854  000DD2                     l2306:
  1855                           
  1856                           ;hachiko_0.c: 280:                 if(acao == "parar"){
  1857  000DD2  0E33               	movlw	low STR_7
  1858  000DD4  181A               	xorwf	_acao^0,w,c
  1859  000DD6  E107               	bnz	u3971
  1860  000DD8  0E03               	movlw	high STR_7
  1861  000DDA  181B               	xorwf	(_acao+1)^0,w,c
  1862  000DDC  A4D8               	btfss	status,2,c
  1863  000DDE  EFF3  F006         	goto	u3971
  1864  000DE2  EFF5  F006         	goto	u3970
  1865  000DE6                     u3971:
  1866  000DE6  EFF9  F006         	goto	l2310
  1867  000DEA                     u3970:
  1868  000DEA                     
  1869                           ;hachiko_0.c: 281:                     pararMotor();
  1870  000DEA  ECD0  F00C         	call	_pararMotor	;wreg free
  1871                           
  1872                           ;hachiko_0.c: 282:                     break;
  1873  000DEE  EF01  F007         	goto	l280
  1874  000DF2                     l2310:
  1875                           
  1876                           ;hachiko_0.c: 212:             while(aux < 0x0A){
  1877  000DF2  0E09               	movlw	9
  1878  000DF4  6415               	cpfsgt	main@aux^0,c
  1879  000DF6  EFFF  F006         	goto	u3981
  1880  000DFA  EF01  F007         	goto	u3980
  1881  000DFE                     u3981:
  1882  000DFE  EF9E  F004         	goto	l251
  1883  000E02                     u3980:
  1884  000E02                     l280:
  1885                           
  1886                           ;hachiko_0.c: 285:             TMR1ON = 0;
  1887  000E02  90CD               	bcf	4045,0,c	;volatile
  1888  000E04                     l2312:
  1889                           
  1890                           ;hachiko_0.c: 288:         if(acao == "estrela"){
  1891  000E04  0E1D               	movlw	low STR_6
  1892  000E06  181A               	xorwf	_acao^0,w,c
  1893  000E08  E107               	bnz	u3991
  1894  000E0A  0E03               	movlw	high STR_6
  1895  000E0C  181B               	xorwf	(_acao+1)^0,w,c
  1896  000E0E  A4D8               	btfss	status,2,c
  1897  000E10  EF0C  F007         	goto	u3991
  1898  000E14  EF0E  F007         	goto	u3990
  1899  000E18                     u3991:
  1900  000E18  EF1E  F007         	goto	l2320
  1901  000E1C                     u3990:
  1902  000E1C                     l2314:
  1903                           
  1904                           ;hachiko_0.c: 291:                 estrela();
  1905  000E1C  EC9B  F00A         	call	_estrela	;wreg free
  1906  000E20                     
  1907                           ;hachiko_0.c: 293:                 if(acao == "parar"){
  1908  000E20  0E33               	movlw	low STR_7
  1909  000E22  181A               	xorwf	_acao^0,w,c
  1910  000E24  E107               	bnz	u4001
  1911  000E26  0E03               	movlw	high STR_7
  1912  000E28  181B               	xorwf	(_acao+1)^0,w,c
  1913  000E2A  A4D8               	btfss	status,2,c
  1914  000E2C  EF1A  F007         	goto	u4001
  1915  000E30  EF1C  F007         	goto	u4000
  1916  000E34                     u4001:
  1917  000E34  EF0E  F007         	goto	l2314
  1918  000E38                     u4000:
  1919  000E38                     
  1920                           ;hachiko_0.c: 294:                     pararMotor();
  1921  000E38  ECD0  F00C         	call	_pararMotor	;wreg free
  1922  000E3C                     l2320:
  1923                           
  1924                           ;hachiko_0.c: 300:         if(acao == "fEstrela"){
  1925  000E3C  0E0B               	movlw	low STR_5
  1926  000E3E  181A               	xorwf	_acao^0,w,c
  1927  000E40  E107               	bnz	u4011
  1928  000E42  0E03               	movlw	high STR_5
  1929  000E44  181B               	xorwf	(_acao+1)^0,w,c
  1930  000E46  A4D8               	btfss	status,2,c
  1931  000E48  EF28  F007         	goto	u4011
  1932  000E4C  EF2A  F007         	goto	u4010
  1933  000E50                     u4011:
  1934  000E50  EF61  F007         	goto	l286
  1935  000E54                     u4010:
  1936  000E54                     l2322:
  1937                           
  1938                           ;hachiko_0.c: 303:                 if(flag == 1){
  1939  000E54  041E               	decf	_flag^0,w,c
  1940  000E56  101F               	iorwf	(_flag+1)^0,w,c
  1941  000E58  A4D8               	btfss	status,2,c
  1942  000E5A  EF31  F007         	goto	u4021
  1943  000E5E  EF33  F007         	goto	u4020
  1944  000E62                     u4021:
  1945  000E62  EF51  F007         	goto	l2330
  1946  000E66                     u4020:
  1947  000E66                     
  1948                           ;hachiko_0.c: 304:                     moverMotor('d','f',100);
  1949  000E66  0E66               	movlw	102
  1950  000E68  6E08               	movwf	moverMotor@sentido^0,c
  1951  000E6A  0E00               	movlw	0
  1952  000E6C  6E0A               	movwf	(moverMotor@velocidade+1)^0,c
  1953  000E6E  0E64               	movlw	100
  1954  000E70  6E09               	movwf	moverMotor@velocidade^0,c
  1955  000E72  0E64               	movlw	100
  1956  000E74  ECEA  F00B         	call	_moverMotor
  1957                           
  1958                           ;hachiko_0.c: 305:                     moverMotor('e','f',100);
  1959  000E78  0E66               	movlw	102
  1960  000E7A  6E08               	movwf	moverMotor@sentido^0,c
  1961  000E7C  0E00               	movlw	0
  1962  000E7E  6E0A               	movwf	(moverMotor@velocidade+1)^0,c
  1963  000E80  0E64               	movlw	100
  1964  000E82  6E09               	movwf	moverMotor@velocidade^0,c
  1965  000E84  0E65               	movlw	101
  1966  000E86  ECEA  F00B         	call	_moverMotor
  1967  000E8A                     
  1968                           ;hachiko_0.c: 306:                     _delay((unsigned long)((30)*(20000000/4000.0)));
  1969  000E8A  0EC3               	movlw	195
  1970  000E8C  6E10               	movwf	??_main^0,c
  1971  000E8E  0ECD               	movlw	205
  1972  000E90                     u4107:
  1973  000E90  2EE8               	decfsz	wreg,f,c
  1974  000E92  D7FE               	bra	u4107
  1975  000E94  2E10               	decfsz	??_main^0,f,c
  1976  000E96  D7FC               	bra	u4107
  1977  000E98  F000               	nop	
  1978  000E9A                     
  1979                           ;hachiko_0.c: 307:                     flag = 0;
  1980  000E9A  0E00               	movlw	0
  1981  000E9C  6E1F               	movwf	(_flag+1)^0,c
  1982  000E9E  0E00               	movlw	0
  1983  000EA0  6E1E               	movwf	_flag^0,c
  1984  000EA2                     l2330:
  1985                           
  1986                           ;hachiko_0.c: 310:                 estrela();
  1987  000EA2  EC9B  F00A         	call	_estrela	;wreg free
  1988  000EA6                     
  1989                           ;hachiko_0.c: 312:                 if(acao == "parar"){
  1990  000EA6  0E33               	movlw	low STR_7
  1991  000EA8  181A               	xorwf	_acao^0,w,c
  1992  000EAA  E107               	bnz	u4031
  1993  000EAC  0E03               	movlw	high STR_7
  1994  000EAE  181B               	xorwf	(_acao+1)^0,w,c
  1995  000EB0  A4D8               	btfss	status,2,c
  1996  000EB2  EF5D  F007         	goto	u4031
  1997  000EB6  EF5F  F007         	goto	u4030
  1998  000EBA                     u4031:
  1999  000EBA  EF2A  F007         	goto	l2322
  2000  000EBE                     u4030:
  2001  000EBE                     
  2002                           ;hachiko_0.c: 313:                     pararMotor();
  2003  000EBE  ECD0  F00C         	call	_pararMotor	;wreg free
  2004  000EC2                     l286:
  2005                           
  2006                           ;hachiko_0.c: 319:         if(!PORTAbits.RA2){
  2007  000EC2  B480               	btfsc	128,2,c	;volatile
  2008  000EC4  EF66  F007         	goto	u4041
  2009  000EC8  EF68  F007         	goto	u4040
  2010  000ECC                     u4041:
  2011  000ECC  EF76  F007         	goto	l2340
  2012  000ED0                     u4040:
  2013  000ED0                     
  2014                           ;hachiko_0.c: 320:             _delay((unsigned long)((100)*(20000000/4000.0)));
  2015  000ED0  0E03               	movlw	3
  2016  000ED2  6E11               	movwf	(??_main+1)^0,c
  2017  000ED4  0E8A               	movlw	138
  2018  000ED6  6E10               	movwf	??_main^0,c
  2019  000ED8  0E56               	movlw	86
  2020  000EDA                     u4117:
  2021  000EDA  2EE8               	decfsz	wreg,f,c
  2022  000EDC  D7FE               	bra	u4117
  2023  000EDE  2E10               	decfsz	??_main^0,f,c
  2024  000EE0  D7FC               	bra	u4117
  2025  000EE2  2E11               	decfsz	(??_main+1)^0,f,c
  2026  000EE4  D7FA               	bra	u4117
  2027  000EE6                     
  2028                           ;hachiko_0.c: 321:             picUSART('0');
  2029  000EE6  0E30               	movlw	48
  2030  000EE8  EC09  F00D         	call	_picUSART
  2031  000EEC                     l2340:
  2032                           
  2033                           ;hachiko_0.c: 323:         if(!PORTAbits.RA3){
  2034  000EEC  B680               	btfsc	128,3,c	;volatile
  2035  000EEE  EF7B  F007         	goto	u4051
  2036  000EF2  EF7D  F007         	goto	u4050
  2037  000EF6                     u4051:
  2038  000EF6  EF8B  F007         	goto	l2346
  2039  000EFA                     u4050:
  2040  000EFA                     
  2041                           ;hachiko_0.c: 324:             _delay((unsigned long)((100)*(20000000/4000.0)));
  2042  000EFA  0E03               	movlw	3
  2043  000EFC  6E11               	movwf	(??_main+1)^0,c
  2044  000EFE  0E8A               	movlw	138
  2045  000F00  6E10               	movwf	??_main^0,c
  2046  000F02  0E56               	movlw	86
  2047  000F04                     u4127:
  2048  000F04  2EE8               	decfsz	wreg,f,c
  2049  000F06  D7FE               	bra	u4127
  2050  000F08  2E10               	decfsz	??_main^0,f,c
  2051  000F0A  D7FC               	bra	u4127
  2052  000F0C  2E11               	decfsz	(??_main+1)^0,f,c
  2053  000F0E  D7FA               	bra	u4127
  2054  000F10                     
  2055                           ;hachiko_0.c: 325:             picUSART('1');
  2056  000F10  0E31               	movlw	49
  2057  000F12  EC09  F00D         	call	_picUSART
  2058  000F16                     l2346:
  2059                           
  2060                           ;hachiko_0.c: 327:         if(!PORTCbits.RC0){
  2061  000F16  B082               	btfsc	130,0,c	;volatile
  2062  000F18  EF90  F007         	goto	u4061
  2063  000F1C  EF92  F007         	goto	u4060
  2064  000F20                     u4061:
  2065  000F20  EFA0  F007         	goto	l2352
  2066  000F24                     u4060:
  2067  000F24                     
  2068                           ;hachiko_0.c: 328:             _delay((unsigned long)((100)*(20000000/4000.0)));
  2069  000F24  0E03               	movlw	3
  2070  000F26  6E11               	movwf	(??_main+1)^0,c
  2071  000F28  0E8A               	movlw	138
  2072  000F2A  6E10               	movwf	??_main^0,c
  2073  000F2C  0E56               	movlw	86
  2074  000F2E                     u4137:
  2075  000F2E  2EE8               	decfsz	wreg,f,c
  2076  000F30  D7FE               	bra	u4137
  2077  000F32  2E10               	decfsz	??_main^0,f,c
  2078  000F34  D7FC               	bra	u4137
  2079  000F36  2E11               	decfsz	(??_main+1)^0,f,c
  2080  000F38  D7FA               	bra	u4137
  2081  000F3A                     
  2082                           ;hachiko_0.c: 329:             picUSART('2');
  2083  000F3A  0E32               	movlw	50
  2084  000F3C  EC09  F00D         	call	_picUSART
  2085  000F40                     l2352:
  2086                           
  2087                           ;hachiko_0.c: 331:         if(!PORTAbits.RA4){
  2088  000F40  B880               	btfsc	128,4,c	;volatile
  2089  000F42  EFA5  F007         	goto	u4071
  2090  000F46  EFA7  F007         	goto	u4070
  2091  000F4A                     u4071:
  2092  000F4A  EFB5  F007         	goto	l2358
  2093  000F4E                     u4070:
  2094  000F4E                     
  2095                           ;hachiko_0.c: 332:             _delay((unsigned long)((100)*(20000000/4000.0)));
  2096  000F4E  0E03               	movlw	3
  2097  000F50  6E11               	movwf	(??_main+1)^0,c
  2098  000F52  0E8A               	movlw	138
  2099  000F54  6E10               	movwf	??_main^0,c
  2100  000F56  0E56               	movlw	86
  2101  000F58                     u4147:
  2102  000F58  2EE8               	decfsz	wreg,f,c
  2103  000F5A  D7FE               	bra	u4147
  2104  000F5C  2E10               	decfsz	??_main^0,f,c
  2105  000F5E  D7FC               	bra	u4147
  2106  000F60  2E11               	decfsz	(??_main+1)^0,f,c
  2107  000F62  D7FA               	bra	u4147
  2108  000F64                     
  2109                           ;hachiko_0.c: 333:             picUSART('3');
  2110  000F64  0E33               	movlw	51
  2111  000F66  EC09  F00D         	call	_picUSART
  2112  000F6A                     l2358:
  2113                           
  2114                           ;hachiko_0.c: 335:         if(!PORTAbits.RA1){
  2115  000F6A  B280               	btfsc	128,1,c	;volatile
  2116  000F6C  EFBA  F007         	goto	u4081
  2117  000F70  EFBC  F007         	goto	u4080
  2118  000F74                     u4081:
  2119  000F74  EFC8  F001         	goto	l2040
  2120  000F78                     u4080:
  2121  000F78                     
  2122                           ;hachiko_0.c: 336:             _delay((unsigned long)((100)*(20000000/4000.0)));
  2123  000F78  0E03               	movlw	3
  2124  000F7A  6E11               	movwf	(??_main+1)^0,c
  2125  000F7C  0E8A               	movlw	138
  2126  000F7E  6E10               	movwf	??_main^0,c
  2127  000F80  0E56               	movlw	86
  2128  000F82                     u4157:
  2129  000F82  2EE8               	decfsz	wreg,f,c
  2130  000F84  D7FE               	bra	u4157
  2131  000F86  2E10               	decfsz	??_main^0,f,c
  2132  000F88  D7FC               	bra	u4157
  2133  000F8A  2E11               	decfsz	(??_main+1)^0,f,c
  2134  000F8C  D7FA               	bra	u4157
  2135  000F8E                     
  2136                           ;hachiko_0.c: 337:             picUSART('4');
  2137  000F8E  0E34               	movlw	52
  2138  000F90  EC09  F00D         	call	_picUSART
  2139  000F94  EFC8  F001         	goto	l2040
  2140  000F98  EFA9  F000         	goto	start
  2141  000F9C                     __end_of_main:
  2142                           	callstack 0
  2143                           
  2144 ;; *************** function _testarLinha *****************
  2145 ;; Defined at:
  2146 ;;		line 463 in file "hachiko_0.c"
  2147 ;; Parameters:    Size  Location     Type
  2148 ;;		None
  2149 ;; Auto vars:     Size  Location     Type
  2150 ;;  velTest         2    0        int 
  2151 ;; Return value:  Size  Location     Type
  2152 ;;                  1    wreg      void 
  2153 ;; Registers used:
  2154 ;;		wreg, status,2, status,0, prodl, prodh, cstack
  2155 ;; Tracked objects:
  2156 ;;		On entry : 0/0
  2157 ;;		On exit  : 0/0
  2158 ;;		Unchanged: 0/0
  2159 ;; Data sizes:     COMRAM   BANK0   BANK1   BANK2
  2160 ;;      Params:         0       0       0       0
  2161 ;;      Locals:         0       0       0       0
  2162 ;;      Temps:          2       0       0       0
  2163 ;;      Totals:         2       0       0       0
  2164 ;;Total ram usage:        2 bytes
  2165 ;; Hardware stack levels used: 1
  2166 ;; Hardware stack levels required when called: 4
  2167 ;; This function calls:
  2168 ;;		_moverMotor
  2169 ;;		_pararMotor
  2170 ;; This function is called by:
  2171 ;;		_main
  2172 ;; This function uses a non-reentrant model
  2173 ;;
  2174                           
  2175                           	psect	text1
  2176  0013A8                     __ptext1:
  2177                           	callstack 0
  2178  0013A8                     _testarLinha:
  2179                           	callstack 26
  2180  0013A8                     
  2181                           ;hachiko_0.c: 465:     if(PORTCbits.RC3 && PORTCbits.RC4){
  2182  0013A8  A682               	btfss	130,3,c	;volatile
  2183  0013AA  EFD9  F009         	goto	u2631
  2184  0013AE  EFDB  F009         	goto	u2630
  2185  0013B2                     u2631:
  2186  0013B2  EFF6  F009         	goto	l346
  2187  0013B6                     u2630:
  2188  0013B6  A882               	btfss	130,4,c	;volatile
  2189  0013B8  EFE0  F009         	goto	u2641
  2190  0013BC  EFE2  F009         	goto	u2640
  2191  0013C0                     u2641:
  2192  0013C0  EFF6  F009         	goto	l346
  2193  0013C4                     u2640:
  2194  0013C4                     
  2195                           ;hachiko_0.c: 466:         moverMotor('d','f',velTest);
  2196  0013C4  0E66               	movlw	102
  2197  0013C6  6E08               	movwf	moverMotor@sentido^0,c
  2198  0013C8  0E00               	movlw	0
  2199  0013CA  6E0A               	movwf	(moverMotor@velocidade+1)^0,c
  2200  0013CC  0E32               	movlw	50
  2201  0013CE  6E09               	movwf	moverMotor@velocidade^0,c
  2202  0013D0  0E64               	movlw	100
  2203  0013D2  ECEA  F00B         	call	_moverMotor
  2204                           
  2205                           ;hachiko_0.c: 467:         moverMotor('e','f',velTest);
  2206  0013D6  0E66               	movlw	102
  2207  0013D8  6E08               	movwf	moverMotor@sentido^0,c
  2208  0013DA  0E00               	movlw	0
  2209  0013DC  6E0A               	movwf	(moverMotor@velocidade+1)^0,c
  2210  0013DE  0E32               	movlw	50
  2211  0013E0  6E09               	movwf	moverMotor@velocidade^0,c
  2212  0013E2  0E65               	movlw	101
  2213  0013E4  ECEA  F00B         	call	_moverMotor
  2214                           
  2215                           ;hachiko_0.c: 468:     }
  2216  0013E8  EF9A  F00A         	goto	l353
  2217  0013EC                     l346:
  2218  0013EC  A682               	btfss	130,3,c	;volatile
  2219  0013EE  EFFB  F009         	goto	u2651
  2220  0013F2  EFFD  F009         	goto	u2650
  2221  0013F6                     u2651:
  2222  0013F6  EF23  F00A         	goto	l348
  2223  0013FA                     u2650:
  2224  0013FA  B882               	btfsc	130,4,c	;volatile
  2225  0013FC  EF02  F00A         	goto	u2661
  2226  001400  EF04  F00A         	goto	u2660
  2227  001404                     u2661:
  2228  001404  EF23  F00A         	goto	l348
  2229  001408                     u2660:
  2230  001408                     
  2231                           ;hachiko_0.c: 470:         moverMotor('d','f',velTest);
  2232  001408  0E66               	movlw	102
  2233  00140A  6E08               	movwf	moverMotor@sentido^0,c
  2234  00140C  0E00               	movlw	0
  2235  00140E  6E0A               	movwf	(moverMotor@velocidade+1)^0,c
  2236  001410  0E32               	movlw	50
  2237  001412  6E09               	movwf	moverMotor@velocidade^0,c
  2238  001414  0E64               	movlw	100
  2239  001416  ECEA  F00B         	call	_moverMotor
  2240                           
  2241                           ;hachiko_0.c: 471:         moverMotor('e','t',velTest);
  2242  00141A  0E74               	movlw	116
  2243  00141C  6E08               	movwf	moverMotor@sentido^0,c
  2244  00141E  0E00               	movlw	0
  2245  001420  6E0A               	movwf	(moverMotor@velocidade+1)^0,c
  2246  001422  0E32               	movlw	50
  2247  001424  6E09               	movwf	moverMotor@velocidade^0,c
  2248  001426  0E65               	movlw	101
  2249  001428  ECEA  F00B         	call	_moverMotor
  2250  00142C                     l1930:
  2251                           
  2252                           ;hachiko_0.c: 472:         _delay((unsigned long)((300)*(20000000/4000.0)));
  2253  00142C  0E08               	movlw	8
  2254  00142E  6E0D               	movwf	(??_testarLinha+1)^0,c
  2255  001430  0E9D               	movlw	157
  2256  001432  6E0C               	movwf	??_testarLinha^0,c
  2257  001434  0E06               	movlw	6
  2258  001436                     u4167:
  2259  001436  2EE8               	decfsz	wreg,f,c
  2260  001438  D7FE               	bra	u4167
  2261  00143A  2E0C               	decfsz	??_testarLinha^0,f,c
  2262  00143C  D7FC               	bra	u4167
  2263  00143E  2E0D               	decfsz	(??_testarLinha+1)^0,f,c
  2264  001440  D7FA               	bra	u4167
  2265                           
  2266                           ;hachiko_0.c: 473:     }
  2267  001442  EF9A  F00A         	goto	l353
  2268  001446                     l348:
  2269  001446  B682               	btfsc	130,3,c	;volatile
  2270  001448  EF28  F00A         	goto	u2671
  2271  00144C  EF2A  F00A         	goto	u2670
  2272  001450                     u2671:
  2273  001450  EF45  F00A         	goto	l350
  2274  001454                     u2670:
  2275  001454  A882               	btfss	130,4,c	;volatile
  2276  001456  EF2F  F00A         	goto	u2681
  2277  00145A  EF31  F00A         	goto	u2680
  2278  00145E                     u2681:
  2279  00145E  EF45  F00A         	goto	l350
  2280  001462                     u2680:
  2281  001462                     
  2282                           ;hachiko_0.c: 475:         moverMotor('d','t',velTest);
  2283  001462  0E74               	movlw	116
  2284  001464  6E08               	movwf	moverMotor@sentido^0,c
  2285  001466  0E00               	movlw	0
  2286  001468  6E0A               	movwf	(moverMotor@velocidade+1)^0,c
  2287  00146A  0E32               	movlw	50
  2288  00146C  6E09               	movwf	moverMotor@velocidade^0,c
  2289  00146E  0E64               	movlw	100
  2290  001470  ECEA  F00B         	call	_moverMotor
  2291                           
  2292                           ;hachiko_0.c: 476:         moverMotor('e','f',velTest);
  2293  001474  0E66               	movlw	102
  2294  001476  6E08               	movwf	moverMotor@sentido^0,c
  2295  001478  0E00               	movlw	0
  2296  00147A  6E0A               	movwf	(moverMotor@velocidade+1)^0,c
  2297  00147C  0E32               	movlw	50
  2298  00147E  6E09               	movwf	moverMotor@velocidade^0,c
  2299  001480  0E65               	movlw	101
  2300  001482  ECEA  F00B         	call	_moverMotor
  2301  001486  EF16  F00A         	goto	l1930
  2302  00148A                     l350:
  2303  00148A  B682               	btfsc	130,3,c	;volatile
  2304  00148C  EF4A  F00A         	goto	u2691
  2305  001490  EF4C  F00A         	goto	u2690
  2306  001494                     u2691:
  2307  001494  EF9A  F00A         	goto	l349
  2308  001498                     u2690:
  2309  001498  B882               	btfsc	130,4,c	;volatile
  2310  00149A  EF51  F00A         	goto	u2701
  2311  00149E  EF53  F00A         	goto	u2700
  2312  0014A2                     u2701:
  2313  0014A2  EF9A  F00A         	goto	l349
  2314  0014A6                     u2700:
  2315  0014A6                     
  2316                           ;hachiko_0.c: 480:         moverMotor('d','t',velTest);
  2317  0014A6  0E74               	movlw	116
  2318  0014A8  6E08               	movwf	moverMotor@sentido^0,c
  2319  0014AA  0E00               	movlw	0
  2320  0014AC  6E0A               	movwf	(moverMotor@velocidade+1)^0,c
  2321  0014AE  0E32               	movlw	50
  2322  0014B0  6E09               	movwf	moverMotor@velocidade^0,c
  2323  0014B2  0E64               	movlw	100
  2324  0014B4  ECEA  F00B         	call	_moverMotor
  2325                           
  2326                           ;hachiko_0.c: 481:         moverMotor('e','t',velTest);
  2327  0014B8  0E74               	movlw	116
  2328  0014BA  6E08               	movwf	moverMotor@sentido^0,c
  2329  0014BC  0E00               	movlw	0
  2330  0014BE  6E0A               	movwf	(moverMotor@velocidade+1)^0,c
  2331  0014C0  0E32               	movlw	50
  2332  0014C2  6E09               	movwf	moverMotor@velocidade^0,c
  2333  0014C4  0E65               	movlw	101
  2334  0014C6  ECEA  F00B         	call	_moverMotor
  2335  0014CA                     
  2336                           ;hachiko_0.c: 482:         _delay((unsigned long)((100)*(20000000/4000.0)));
  2337  0014CA  0E03               	movlw	3
  2338  0014CC  6E0D               	movwf	(??_testarLinha+1)^0,c
  2339  0014CE  0E8A               	movlw	138
  2340  0014D0  6E0C               	movwf	??_testarLinha^0,c
  2341  0014D2  0E56               	movlw	86
  2342  0014D4                     u4177:
  2343  0014D4  2EE8               	decfsz	wreg,f,c
  2344  0014D6  D7FE               	bra	u4177
  2345  0014D8  2E0C               	decfsz	??_testarLinha^0,f,c
  2346  0014DA  D7FC               	bra	u4177
  2347  0014DC  2E0D               	decfsz	(??_testarLinha+1)^0,f,c
  2348  0014DE  D7FA               	bra	u4177
  2349  0014E0                     
  2350                           ;hachiko_0.c: 483:         pararMotor();
  2351  0014E0  ECD0  F00C         	call	_pararMotor	;wreg free
  2352  0014E4                     
  2353                           ;hachiko_0.c: 484:         _delay((unsigned long)((10)*(20000000/4000.0)));
  2354  0014E4  0E41               	movlw	65
  2355  0014E6  6E0C               	movwf	??_testarLinha^0,c
  2356  0014E8  0EEE               	movlw	238
  2357  0014EA                     u4187:
  2358  0014EA  2EE8               	decfsz	wreg,f,c
  2359  0014EC  D7FE               	bra	u4187
  2360  0014EE  2E0C               	decfsz	??_testarLinha^0,f,c
  2361  0014F0  D7FC               	bra	u4187
  2362  0014F2  F000 F000          	nop2	
  2363  0014F6                     
  2364                           ;hachiko_0.c: 485:         moverMotor('d','f',velTest);
  2365  0014F6  0E66               	movlw	102
  2366  0014F8  6E08               	movwf	moverMotor@sentido^0,c
  2367  0014FA  0E00               	movlw	0
  2368  0014FC  6E0A               	movwf	(moverMotor@velocidade+1)^0,c
  2369  0014FE  0E32               	movlw	50
  2370  001500  6E09               	movwf	moverMotor@velocidade^0,c
  2371  001502  0E64               	movlw	100
  2372  001504  ECEA  F00B         	call	_moverMotor
  2373  001508                     
  2374                           ;hachiko_0.c: 486:         moverMotor('e','t',velTest);
  2375  001508  0E74               	movlw	116
  2376  00150A  6E08               	movwf	moverMotor@sentido^0,c
  2377  00150C  0E00               	movlw	0
  2378  00150E  6E0A               	movwf	(moverMotor@velocidade+1)^0,c
  2379  001510  0E32               	movlw	50
  2380  001512  6E09               	movwf	moverMotor@velocidade^0,c
  2381  001514  0E65               	movlw	101
  2382  001516  ECEA  F00B         	call	_moverMotor
  2383  00151A                     
  2384                           ;hachiko_0.c: 487:         _delay((unsigned long)((100)*(20000000/4000.0)));
  2385  00151A  0E03               	movlw	3
  2386  00151C  6E0D               	movwf	(??_testarLinha+1)^0,c
  2387  00151E  0E8A               	movlw	138
  2388  001520  6E0C               	movwf	??_testarLinha^0,c
  2389  001522  0E56               	movlw	86
  2390  001524                     u4197:
  2391  001524  2EE8               	decfsz	wreg,f,c
  2392  001526  D7FE               	bra	u4197
  2393  001528  2E0C               	decfsz	??_testarLinha^0,f,c
  2394  00152A  D7FC               	bra	u4197
  2395  00152C  2E0D               	decfsz	(??_testarLinha+1)^0,f,c
  2396  00152E  D7FA               	bra	u4197
  2397  001530  EF9A  F00A         	goto	l353
  2398  001534                     l349:
  2399  001534                     l353:
  2400  001534  0012               	return		;funcret
  2401  001536                     __end_of_testarLinha:
  2402                           	callstack 0
  2403                           
  2404 ;; *************** function _stringUSART *****************
  2405 ;; Defined at:
  2406 ;;		line 48 in file "./bt.h"
  2407 ;; Parameters:    Size  Location     Type
  2408 ;;  frase           2    1[COMRAM] PTR unsigned char 
  2409 ;;		 -> STR_8(8), 
  2410 ;; Auto vars:     Size  Location     Type
  2411 ;;  i               2    5[COMRAM] int 
  2412 ;; Return value:  Size  Location     Type
  2413 ;;                  1    wreg      void 
  2414 ;; Registers used:
  2415 ;;		wreg, status,2, status,0, tblptrl, tblptrh, tblptru, cstack
  2416 ;; Tracked objects:
  2417 ;;		On entry : 0/0
  2418 ;;		On exit  : 0/0
  2419 ;;		Unchanged: 0/0
  2420 ;; Data sizes:     COMRAM   BANK0   BANK1   BANK2
  2421 ;;      Params:         2       0       0       0
  2422 ;;      Locals:         2       0       0       0
  2423 ;;      Temps:          2       0       0       0
  2424 ;;      Totals:         6       0       0       0
  2425 ;;Total ram usage:        6 bytes
  2426 ;; Hardware stack levels used: 1
  2427 ;; Hardware stack levels required when called: 3
  2428 ;; This function calls:
  2429 ;;		_testBuff
  2430 ;; This function is called by:
  2431 ;;		_main
  2432 ;; This function uses a non-reentrant model
  2433 ;;
  2434                           
  2435                           	psect	text2
  2436  0018B0                     __ptext2:
  2437                           	callstack 0
  2438  0018B0                     _stringUSART:
  2439                           	callstack 27
  2440  0018B0                     
  2441                           ;./bt.h: 49:     int i = 0;
  2442  0018B0  0E00               	movlw	0
  2443  0018B2  6E07               	movwf	(stringUSART@i+1)^0,c
  2444  0018B4  0E00               	movlw	0
  2445  0018B6  6E06               	movwf	stringUSART@i^0,c
  2446                           
  2447                           ;./bt.h: 50:     while(frase[i] != '\0'){
  2448  0018B8  EF6F  F00C         	goto	l1912
  2449  0018BC                     l1906:
  2450                           
  2451                           ;./bt.h: 51:         TXREG = frase[i];
  2452  0018BC  5006               	movf	stringUSART@i^0,w,c
  2453  0018BE  2402               	addwf	stringUSART@frase^0,w,c
  2454  0018C0  6E04               	movwf	??_stringUSART^0,c
  2455  0018C2  5007               	movf	(stringUSART@i+1)^0,w,c
  2456  0018C4  2003               	addwfc	(stringUSART@frase+1)^0,w,c
  2457  0018C6  6E05               	movwf	(??_stringUSART+1)^0,c
  2458  0018C8  C004  FFF6         	movff	??_stringUSART,tblptrl
  2459  0018CC  C005  FFF7         	movff	??_stringUSART+1,tblptrh
  2460  0018D0                     	if	0	;tblptru may be non-zero
  2461  0018D0                     	endif
  2462  0018D0                     	if	0	;tblptru may be non-zero
  2463  0018D0                     	endif
  2464  0018D0  0008               	tblrd		*
  2465  0018D2  CFF5 FFAD          	movff	tablat,4013	;volatile
  2466  0018D6                     
  2467                           ;./bt.h: 52:         testBuff();
  2468  0018D6  EC1B  F00D         	call	_testBuff	;wreg free
  2469  0018DA                     
  2470                           ;./bt.h: 53:         i++;
  2471  0018DA  4A06               	infsnz	stringUSART@i^0,f,c
  2472  0018DC  2A07               	incf	(stringUSART@i+1)^0,f,c
  2473  0018DE                     l1912:
  2474                           
  2475                           ;./bt.h: 50:     while(frase[i] != '\0'){
  2476  0018DE  5006               	movf	stringUSART@i^0,w,c
  2477  0018E0  2402               	addwf	stringUSART@frase^0,w,c
  2478  0018E2  6E04               	movwf	??_stringUSART^0,c
  2479  0018E4  5007               	movf	(stringUSART@i+1)^0,w,c
  2480  0018E6  2003               	addwfc	(stringUSART@frase+1)^0,w,c
  2481  0018E8  6E05               	movwf	(??_stringUSART+1)^0,c
  2482  0018EA  C004  FFF6         	movff	??_stringUSART,tblptrl
  2483  0018EE  C005  FFF7         	movff	??_stringUSART+1,tblptrh
  2484  0018F2                     	if	0	;tblptru may be non-zero
  2485  0018F2                     	endif
  2486  0018F2                     	if	0	;tblptru may be non-zero
  2487  0018F2                     	endif
  2488  0018F2  0008               	tblrd		*
  2489  0018F4  50F5               	movf	tablat,w,c
  2490  0018F6  0900               	iorlw	0
  2491  0018F8  A4D8               	btfss	status,2,c
  2492  0018FA  EF81  F00C         	goto	u2621
  2493  0018FE  EF83  F00C         	goto	u2620
  2494  001902                     u2621:
  2495  001902  EF5E  F00C         	goto	l1906
  2496  001906                     u2620:
  2497  001906                     
  2498                           ;./bt.h: 55:     TXREG = 0x0D;
  2499  001906  0E0D               	movlw	13
  2500  001908  6EAD               	movwf	173,c	;volatile
  2501  00190A                     
  2502                           ;./bt.h: 56:     testBuff();
  2503  00190A  EC1B  F00D         	call	_testBuff	;wreg free
  2504  00190E  0012               	return		;funcret
  2505  001910                     __end_of_stringUSART:
  2506                           	callstack 0
  2507                           
  2508 ;; *************** function _setTMR1 *****************
  2509 ;; Defined at:
  2510 ;;		line 21 in file "./timer.h"
  2511 ;; Parameters:    Size  Location     Type
  2512 ;;		None
  2513 ;; Auto vars:     Size  Location     Type
  2514 ;;		None
  2515 ;; Return value:  Size  Location     Type
  2516 ;;                  1    wreg      void 
  2517 ;; Registers used:
  2518 ;;		None
  2519 ;; Tracked objects:
  2520 ;;		On entry : 0/0
  2521 ;;		On exit  : 0/0
  2522 ;;		Unchanged: 0/0
  2523 ;; Data sizes:     COMRAM   BANK0   BANK1   BANK2
  2524 ;;      Params:         0       0       0       0
  2525 ;;      Locals:         0       0       0       0
  2526 ;;      Temps:          0       0       0       0
  2527 ;;      Totals:         0       0       0       0
  2528 ;;Total ram usage:        0 bytes
  2529 ;; Hardware stack levels used: 1
  2530 ;; Hardware stack levels required when called: 2
  2531 ;; This function calls:
  2532 ;;		Nothing
  2533 ;; This function is called by:
  2534 ;;		_main
  2535 ;; This function uses a non-reentrant model
  2536 ;;
  2537                           
  2538                           	psect	text3
  2539  001A26                     __ptext3:
  2540                           	callstack 0
  2541  001A26                     _setTMR1:
  2542                           	callstack 28
  2543  001A26                     
  2544                           ;./timer.h: 33:     RD16 = 1;
  2545  001A26  8ECD               	bsf	4045,7,c	;volatile
  2546                           
  2547                           ;./timer.h: 34:     T1RUN = 0;
  2548  001A28  9CCD               	bcf	4045,6,c	;volatile
  2549  001A2A  88CD               	bsf	4045,4,c	;volatile
  2550                           
  2551                           ;./timer.h: 38:     T1OSCEN = 0;
  2552  001A2C  96CD               	bcf	4045,3,c	;volatile
  2553                           
  2554                           ;./timer.h: 39:     T1SYNC = 0;
  2555  001A2E  94CD               	bcf	4045,2,c	;volatile
  2556                           
  2557                           ;./timer.h: 40:     TMR1CS = 0;
  2558  001A30  92CD               	bcf	4045,1,c	;volatile
  2559                           
  2560                           ;./timer.h: 41:     TMR1ON = 0;
  2561  001A32  90CD               	bcf	4045,0,c	;volatile
  2562  001A34  0012               	return		;funcret
  2563  001A36                     __end_of_setTMR1:
  2564                           	callstack 0
  2565                           
  2566 ;; *************** function _setTMR0 *****************
  2567 ;; Defined at:
  2568 ;;		line 12 in file "./timer.h"
  2569 ;; Parameters:    Size  Location     Type
  2570 ;;		None
  2571 ;; Auto vars:     Size  Location     Type
  2572 ;;		None
  2573 ;; Return value:  Size  Location     Type
  2574 ;;                  1    wreg      void 
  2575 ;; Registers used:
  2576 ;;		None
  2577 ;; Tracked objects:
  2578 ;;		On entry : 0/0
  2579 ;;		On exit  : 0/0
  2580 ;;		Unchanged: 0/0
  2581 ;; Data sizes:     COMRAM   BANK0   BANK1   BANK2
  2582 ;;      Params:         0       0       0       0
  2583 ;;      Locals:         0       0       0       0
  2584 ;;      Temps:          0       0       0       0
  2585 ;;      Totals:         0       0       0       0
  2586 ;;Total ram usage:        0 bytes
  2587 ;; Hardware stack levels used: 1
  2588 ;; Hardware stack levels required when called: 2
  2589 ;; This function calls:
  2590 ;;		Nothing
  2591 ;; This function is called by:
  2592 ;;		_main
  2593 ;; This function uses a non-reentrant model
  2594 ;;
  2595                           
  2596                           	psect	text4
  2597  001A46                     __ptext4:
  2598                           	callstack 0
  2599  001A46                     _setTMR0:
  2600                           	callstack 28
  2601  001A46                     
  2602                           ;./timer.h: 14:     TMR0ON = 0;
  2603  001A46  9ED5               	bcf	4053,7,c	;volatile
  2604                           
  2605                           ;./timer.h: 15:     T016BIT = 0;
  2606  001A48  9CD5               	bcf	4053,6,c	;volatile
  2607                           
  2608                           ;./timer.h: 16:     T0CS = 0;
  2609  001A4A  9AD5               	bcf	4053,5,c	;volatile
  2610                           
  2611                           ;./timer.h: 17:     PSA = 0;
  2612  001A4C  96D5               	bcf	4053,3,c	;volatile
  2613  001A4E  80D5               	bsf	4053,0,c	;volatile
  2614                           
  2615                           ;./timer.h: 19:     TMR0IF = 0;
  2616  001A50  94F2               	bcf	4082,2,c	;volatile
  2617  001A52  0012               	return		;funcret
  2618  001A54                     __end_of_setTMR0:
  2619                           	callstack 0
  2620                           
  2621 ;; *************** function _setPWM *****************
  2622 ;; Defined at:
  2623 ;;		line 1 in file "./pwm.h"
  2624 ;; Parameters:    Size  Location     Type
  2625 ;;		None
  2626 ;; Auto vars:     Size  Location     Type
  2627 ;;		None
  2628 ;; Return value:  Size  Location     Type
  2629 ;;                  1    wreg      void 
  2630 ;; Registers used:
  2631 ;;		wreg, status,2
  2632 ;; Tracked objects:
  2633 ;;		On entry : 0/0
  2634 ;;		On exit  : 0/0
  2635 ;;		Unchanged: 0/0
  2636 ;; Data sizes:     COMRAM   BANK0   BANK1   BANK2
  2637 ;;      Params:         0       0       0       0
  2638 ;;      Locals:         0       0       0       0
  2639 ;;      Temps:          0       0       0       0
  2640 ;;      Totals:         0       0       0       0
  2641 ;;Total ram usage:        0 bytes
  2642 ;; Hardware stack levels used: 1
  2643 ;; Hardware stack levels required when called: 2
  2644 ;; This function calls:
  2645 ;;		Nothing
  2646 ;; This function is called by:
  2647 ;;		_main
  2648 ;; This function uses a non-reentrant model
  2649 ;;
  2650                           
  2651                           	psect	text5
  2652  001946                     __ptext5:
  2653                           	callstack 0
  2654  001946                     _setPWM:
  2655                           	callstack 28
  2656  001946                     
  2657                           ;./pwm.h: 3:     PTCON0 = 0b00000000;
  2658  001946  0E00               	movlw	0
  2659  001948  6E7F               	movwf	127,c	;volatile
  2660                           
  2661                           ;./pwm.h: 4:     PTCON1 = 0b10000000;
  2662  00194A  0E80               	movlw	128
  2663  00194C  6E7E               	movwf	126,c	;volatile
  2664                           
  2665                           ;./pwm.h: 5:     PWMCON0 = 0b01011111;
  2666  00194E  0E5F               	movlw	95
  2667  001950  6E6F               	movwf	111,c	;volatile
  2668                           
  2669                           ;./pwm.h: 6:     PWMCON1 = 0b00000001;
  2670  001952  0E01               	movlw	1
  2671  001954  6E6E               	movwf	110,c	;volatile
  2672                           
  2673                           ;./pwm.h: 7:     DTCON = 0b00010000;
  2674  001956  0E10               	movlw	16
  2675  001958  6E6D               	movwf	109,c	;volatile
  2676  00195A                     
  2677                           ;./pwm.h: 8:     OVDCOND = 0b11111111;
  2678  00195A  686B               	setf	107,c	;volatile
  2679                           
  2680                           ;./pwm.h: 9:     OVDCONS = 0b00000000;
  2681  00195C  0E00               	movlw	0
  2682  00195E  6E6A               	movwf	106,c	;volatile
  2683                           
  2684                           ;./pwm.h: 10:     PTPERL = 0b10010110;
  2685  001960  0E96               	movlw	150
  2686  001962  6E7B               	movwf	123,c	;volatile
  2687                           
  2688                           ;./pwm.h: 11:     PTPERH = 0b00000000;
  2689  001964  0E00               	movlw	0
  2690  001966  6E7A               	movwf	122,c	;volatile
  2691                           
  2692                           ;./pwm.h: 12:     PTMRL = 0x00;
  2693  001968  0E00               	movlw	0
  2694  00196A  6E7D               	movwf	125,c	;volatile
  2695                           
  2696                           ;./pwm.h: 13:     PTMRH = 0x00;
  2697  00196C  0E00               	movlw	0
  2698  00196E  6E7C               	movwf	124,c	;volatile
  2699                           
  2700                           ;./pwm.h: 14:     PORTB = 0;
  2701  001970  0E00               	movlw	0
  2702  001972  6E81               	movwf	129,c	;volatile
  2703                           
  2704                           ;./pwm.h: 15:     PORTD = 0;
  2705  001974  0E00               	movlw	0
  2706  001976  6E83               	movwf	131,c	;volatile
  2707  001978  0012               	return		;funcret
  2708  00197A                     __end_of_setPWM:
  2709                           	callstack 0
  2710                           
  2711 ;; *************** function _setIO *****************
  2712 ;; Defined at:
  2713 ;;		line 63 in file "./config.h"
  2714 ;; Parameters:    Size  Location     Type
  2715 ;;		None
  2716 ;; Auto vars:     Size  Location     Type
  2717 ;;		None
  2718 ;; Return value:  Size  Location     Type
  2719 ;;                  1    wreg      void 
  2720 ;; Registers used:
  2721 ;;		wreg, status,2
  2722 ;; Tracked objects:
  2723 ;;		On entry : 0/0
  2724 ;;		On exit  : 0/0
  2725 ;;		Unchanged: 0/0
  2726 ;; Data sizes:     COMRAM   BANK0   BANK1   BANK2
  2727 ;;      Params:         0       0       0       0
  2728 ;;      Locals:         0       0       0       0
  2729 ;;      Temps:          0       0       0       0
  2730 ;;      Totals:         0       0       0       0
  2731 ;;Total ram usage:        0 bytes
  2732 ;; Hardware stack levels used: 1
  2733 ;; Hardware stack levels required when called: 2
  2734 ;; This function calls:
  2735 ;;		Nothing
  2736 ;; This function is called by:
  2737 ;;		_main
  2738 ;; This function uses a non-reentrant model
  2739 ;;
  2740                           
  2741                           	psect	text6
  2742  0019E4                     __ptext6:
  2743                           	callstack 0
  2744  0019E4                     _setIO:
  2745                           	callstack 28
  2746  0019E4  6892               	setf	146,c	;volatile
  2747  0019E6  0E00               	movlw	0
  2748  0019E8  6E93               	movwf	147,c	;volatile
  2749  0019EA  6894               	setf	148,c	;volatile
  2750  0019EC  0E00               	movlw	0
  2751  0019EE  6E95               	movwf	149,c	;volatile
  2752  0019F0  0E07               	movlw	7
  2753  0019F2  6E96               	movwf	150,c	;volatile
  2754  0019F4  0E80               	movlw	128
  2755  0019F6  6EB8               	movwf	184,c	;volatile
  2756  0019F8  0E01               	movlw	1
  2757  0019FA  6EB9               	movwf	185,c	;volatile
  2758  0019FC  0012               	return		;funcret
  2759  0019FE                     __end_of_setIO:
  2760                           	callstack 0
  2761                           
  2762 ;; *************** function _setBT *****************
  2763 ;; Defined at:
  2764 ;;		line 1 in file "./bt.h"
  2765 ;; Parameters:    Size  Location     Type
  2766 ;;		None
  2767 ;; Auto vars:     Size  Location     Type
  2768 ;;		None
  2769 ;; Return value:  Size  Location     Type
  2770 ;;                  1    wreg      void 
  2771 ;; Registers used:
  2772 ;;		wreg, status,2
  2773 ;; Tracked objects:
  2774 ;;		On entry : 0/0
  2775 ;;		On exit  : 0/0
  2776 ;;		Unchanged: 0/0
  2777 ;; Data sizes:     COMRAM   BANK0   BANK1   BANK2
  2778 ;;      Params:         0       0       0       0
  2779 ;;      Locals:         0       0       0       0
  2780 ;;      Temps:          0       0       0       0
  2781 ;;      Totals:         0       0       0       0
  2782 ;;Total ram usage:        0 bytes
  2783 ;; Hardware stack levels used: 1
  2784 ;; Hardware stack levels required when called: 2
  2785 ;; This function calls:
  2786 ;;		Nothing
  2787 ;; This function is called by:
  2788 ;;		_main
  2789 ;; This function uses a non-reentrant model
  2790 ;;
  2791                           
  2792                           	psect	text7
  2793  0019FE                     __ptext7:
  2794                           	callstack 0
  2795  0019FE                     _setBT:
  2796                           	callstack 28
  2797  0019FE                     
  2798                           ;./bt.h: 12:     SPBRG = 0x82;
  2799  0019FE  0E82               	movlw	130
  2800  001A00  6EAF               	movwf	175,c	;volatile
  2801  001A02                     
  2802                           ;./bt.h: 15:     TXSTAbits.TXEN = 1;
  2803  001A02  8AAC               	bsf	172,5,c	;volatile
  2804  001A04                     
  2805                           ;./bt.h: 16:     TXSTAbits.SYNC = 0;
  2806  001A04  98AC               	bcf	172,4,c	;volatile
  2807  001A06                     
  2808                           ;./bt.h: 17:     TXSTAbits.BRGH = 1;
  2809  001A06  84AC               	bsf	172,2,c	;volatile
  2810  001A08                     
  2811                           ;./bt.h: 19:     RCSTAbits.SPEN = 1;
  2812  001A08  8EAB               	bsf	171,7,c	;volatile
  2813  001A0A                     
  2814                           ;./bt.h: 20:     RCSTAbits.CREN = 1;
  2815  001A0A  88AB               	bsf	171,4,c	;volatile
  2816  001A0C                     
  2817                           ;./bt.h: 23:     PIR1bits.RCIF = 0;
  2818  001A0C  9A9E               	bcf	158,5,c	;volatile
  2819  001A0E                     
  2820                           ;./bt.h: 25:     PIE1bits.RCIE = 1;
  2821  001A0E  8A9D               	bsf	157,5,c	;volatile
  2822  001A10  0012               	return		;funcret
  2823  001A12                     __end_of_setBT:
  2824                           	callstack 0
  2825                           
  2826 ;; *************** function _picUSART *****************
  2827 ;; Defined at:
  2828 ;;		line 38 in file "./bt.h"
  2829 ;; Parameters:    Size  Location     Type
  2830 ;;  status          1    wreg     unsigned char 
  2831 ;; Auto vars:     Size  Location     Type
  2832 ;;  status          1    1[COMRAM] unsigned char 
  2833 ;; Return value:  Size  Location     Type
  2834 ;;                  1    wreg      void 
  2835 ;; Registers used:
  2836 ;;		wreg, status,2, cstack
  2837 ;; Tracked objects:
  2838 ;;		On entry : 0/0
  2839 ;;		On exit  : 0/0
  2840 ;;		Unchanged: 0/0
  2841 ;; Data sizes:     COMRAM   BANK0   BANK1   BANK2
  2842 ;;      Params:         0       0       0       0
  2843 ;;      Locals:         1       0       0       0
  2844 ;;      Temps:          0       0       0       0
  2845 ;;      Totals:         1       0       0       0
  2846 ;;Total ram usage:        1 bytes
  2847 ;; Hardware stack levels used: 1
  2848 ;; Hardware stack levels required when called: 3
  2849 ;; This function calls:
  2850 ;;		_testBuff
  2851 ;; This function is called by:
  2852 ;;		_main
  2853 ;; This function uses a non-reentrant model
  2854 ;;
  2855                           
  2856                           	psect	text8
  2857  001A12                     __ptext8:
  2858                           	callstack 0
  2859  001A12                     _picUSART:
  2860                           	callstack 27
  2861                           
  2862                           ;incstack = 0
  2863                           ;picUSART@status stored from wreg
  2864  001A12  6E02               	movwf	picUSART@status^0,c
  2865  001A14                     
  2866                           ;./bt.h: 39:     TXREG = status;
  2867  001A14  C002  FFAD         	movff	picUSART@status,4013	;volatile
  2868  001A18                     
  2869                           ;./bt.h: 40:     testBuff();
  2870  001A18  EC1B  F00D         	call	_testBuff	;wreg free
  2871  001A1C                     
  2872                           ;./bt.h: 41:     TXREG = 0x0D;
  2873  001A1C  0E0D               	movlw	13
  2874  001A1E  6EAD               	movwf	173,c	;volatile
  2875  001A20                     
  2876                           ;./bt.h: 42:     testBuff();
  2877  001A20  EC1B  F00D         	call	_testBuff	;wreg free
  2878  001A24  0012               	return		;funcret
  2879  001A26                     __end_of_picUSART:
  2880                           	callstack 0
  2881                           
  2882 ;; *************** function _testBuff *****************
  2883 ;; Defined at:
  2884 ;;		line 27 in file "./bt.h"
  2885 ;; Parameters:    Size  Location     Type
  2886 ;;		None
  2887 ;; Auto vars:     Size  Location     Type
  2888 ;;		None
  2889 ;; Return value:  Size  Location     Type
  2890 ;;                  1    wreg      void 
  2891 ;; Registers used:
  2892 ;;		None
  2893 ;; Tracked objects:
  2894 ;;		On entry : 0/0
  2895 ;;		On exit  : 0/0
  2896 ;;		Unchanged: 0/0
  2897 ;; Data sizes:     COMRAM   BANK0   BANK1   BANK2
  2898 ;;      Params:         0       0       0       0
  2899 ;;      Locals:         0       0       0       0
  2900 ;;      Temps:          0       0       0       0
  2901 ;;      Totals:         0       0       0       0
  2902 ;;Total ram usage:        0 bytes
  2903 ;; Hardware stack levels used: 1
  2904 ;; Hardware stack levels required when called: 2
  2905 ;; This function calls:
  2906 ;;		Nothing
  2907 ;; This function is called by:
  2908 ;;		_picUSART
  2909 ;;		_stringUSART
  2910 ;;		_echo
  2911 ;; This function uses a non-reentrant model
  2912 ;;
  2913                           
  2914                           	psect	text9
  2915  001A36                     __ptext9:
  2916                           	callstack 0
  2917  001A36                     _testBuff:
  2918                           	callstack 27
  2919  001A36                     l139:
  2920  001A36  A2AC               	btfss	172,1,c	;volatile
  2921  001A38  EF20  F00D         	goto	u71
  2922  001A3C  EF22  F00D         	goto	u70
  2923  001A40                     u71:
  2924  001A40  EF1B  F00D         	goto	l139
  2925  001A44                     u70:
  2926  001A44  0012               	return		;funcret
  2927  001A46                     __end_of_testBuff:
  2928                           	callstack 0
  2929                           
  2930 ;; *************** function _linha *****************
  2931 ;; Defined at:
  2932 ;;		line 437 in file "hachiko_0.c"
  2933 ;; Parameters:    Size  Location     Type
  2934 ;;		None
  2935 ;; Auto vars:     Size  Location     Type
  2936 ;;  velTest         2    0        int 
  2937 ;; Return value:  Size  Location     Type
  2938 ;;                  1    wreg      void 
  2939 ;; Registers used:
  2940 ;;		wreg, status,2, status,0, prodl, prodh, cstack
  2941 ;; Tracked objects:
  2942 ;;		On entry : 0/0
  2943 ;;		On exit  : 0/0
  2944 ;;		Unchanged: 0/0
  2945 ;; Data sizes:     COMRAM   BANK0   BANK1   BANK2
  2946 ;;      Params:         0       0       0       0
  2947 ;;      Locals:         0       0       0       0
  2948 ;;      Temps:          2       0       0       0
  2949 ;;      Totals:         2       0       0       0
  2950 ;;Total ram usage:        2 bytes
  2951 ;; Hardware stack levels used: 1
  2952 ;; Hardware stack levels required when called: 4
  2953 ;; This function calls:
  2954 ;;		_moverMotor
  2955 ;;		_pararMotor
  2956 ;; This function is called by:
  2957 ;;		_main
  2958 ;; This function uses a non-reentrant model
  2959 ;;
  2960                           
  2961                           	psect	text10
  2962  00168E                     __ptext10:
  2963                           	callstack 0
  2964  00168E                     _linha:
  2965                           	callstack 26
  2966  00168E                     
  2967                           ;hachiko_0.c: 439:     if(PORTCbits.RC3 && !PORTCbits.RC4){
  2968  00168E  A682               	btfss	130,3,c	;volatile
  2969  001690  EF4C  F00B         	goto	u2711
  2970  001694  EF4E  F00B         	goto	u2710
  2971  001698                     u2711:
  2972  001698  EF74  F00B         	goto	l338
  2973  00169C                     u2710:
  2974  00169C  B882               	btfsc	130,4,c	;volatile
  2975  00169E  EF53  F00B         	goto	u2721
  2976  0016A2  EF55  F00B         	goto	u2720
  2977  0016A6                     u2721:
  2978  0016A6  EF74  F00B         	goto	l338
  2979  0016AA                     u2720:
  2980  0016AA                     
  2981                           ;hachiko_0.c: 440:         moverMotor('d','f',velTest);
  2982  0016AA  0E66               	movlw	102
  2983  0016AC  6E08               	movwf	moverMotor@sentido^0,c
  2984  0016AE  0E00               	movlw	0
  2985  0016B0  6E0A               	movwf	(moverMotor@velocidade+1)^0,c
  2986  0016B2  0E32               	movlw	50
  2987  0016B4  6E09               	movwf	moverMotor@velocidade^0,c
  2988  0016B6  0E64               	movlw	100
  2989  0016B8  ECEA  F00B         	call	_moverMotor
  2990                           
  2991                           ;hachiko_0.c: 441:         moverMotor('e','t',velTest);
  2992  0016BC  0E74               	movlw	116
  2993  0016BE  6E08               	movwf	moverMotor@sentido^0,c
  2994  0016C0  0E00               	movlw	0
  2995  0016C2  6E0A               	movwf	(moverMotor@velocidade+1)^0,c
  2996  0016C4  0E32               	movlw	50
  2997  0016C6  6E09               	movwf	moverMotor@velocidade^0,c
  2998  0016C8  0E65               	movlw	101
  2999  0016CA  ECEA  F00B         	call	_moverMotor
  3000  0016CE                     l1962:
  3001                           
  3002                           ;hachiko_0.c: 442:         _delay((unsigned long)((300)*(20000000/4000.0)));
  3003  0016CE  0E08               	movlw	8
  3004  0016D0  6E0D               	movwf	(??_linha+1)^0,c
  3005  0016D2  0E9D               	movlw	157
  3006  0016D4  6E0C               	movwf	??_linha^0,c
  3007  0016D6  0E06               	movlw	6
  3008  0016D8                     u4207:
  3009  0016D8  2EE8               	decfsz	wreg,f,c
  3010  0016DA  D7FE               	bra	u4207
  3011  0016DC  2E0C               	decfsz	??_linha^0,f,c
  3012  0016DE  D7FC               	bra	u4207
  3013  0016E0  2E0D               	decfsz	(??_linha+1)^0,f,c
  3014  0016E2  D7FA               	bra	u4207
  3015                           
  3016                           ;hachiko_0.c: 444:     }
  3017  0016E4  EFE9  F00B         	goto	l343
  3018  0016E8                     l338:
  3019  0016E8  B682               	btfsc	130,3,c	;volatile
  3020  0016EA  EF79  F00B         	goto	u2731
  3021  0016EE  EF7B  F00B         	goto	u2730
  3022  0016F2                     u2731:
  3023  0016F2  EF96  F00B         	goto	l340
  3024  0016F6                     u2730:
  3025  0016F6  A882               	btfss	130,4,c	;volatile
  3026  0016F8  EF80  F00B         	goto	u2741
  3027  0016FC  EF82  F00B         	goto	u2740
  3028  001700                     u2741:
  3029  001700  EF96  F00B         	goto	l340
  3030  001704                     u2740:
  3031  001704                     
  3032                           ;hachiko_0.c: 446:         moverMotor('d','t',velTest);
  3033  001704  0E74               	movlw	116
  3034  001706  6E08               	movwf	moverMotor@sentido^0,c
  3035  001708  0E00               	movlw	0
  3036  00170A  6E0A               	movwf	(moverMotor@velocidade+1)^0,c
  3037  00170C  0E32               	movlw	50
  3038  00170E  6E09               	movwf	moverMotor@velocidade^0,c
  3039  001710  0E64               	movlw	100
  3040  001712  ECEA  F00B         	call	_moverMotor
  3041                           
  3042                           ;hachiko_0.c: 447:         moverMotor('e','f',velTest);
  3043  001716  0E66               	movlw	102
  3044  001718  6E08               	movwf	moverMotor@sentido^0,c
  3045  00171A  0E00               	movlw	0
  3046  00171C  6E0A               	movwf	(moverMotor@velocidade+1)^0,c
  3047  00171E  0E32               	movlw	50
  3048  001720  6E09               	movwf	moverMotor@velocidade^0,c
  3049  001722  0E65               	movlw	101
  3050  001724  ECEA  F00B         	call	_moverMotor
  3051  001728  EF67  F00B         	goto	l1962
  3052  00172C                     l340:
  3053  00172C  B682               	btfsc	130,3,c	;volatile
  3054  00172E  EF9B  F00B         	goto	u2751
  3055  001732  EF9D  F00B         	goto	u2750
  3056  001736                     u2751:
  3057  001736  EFE9  F00B         	goto	l343
  3058  00173A                     u2750:
  3059  00173A  B882               	btfsc	130,4,c	;volatile
  3060  00173C  EFA2  F00B         	goto	u2761
  3061  001740  EFA4  F00B         	goto	u2760
  3062  001744                     u2761:
  3063  001744  EFE9  F00B         	goto	l343
  3064  001748                     u2760:
  3065  001748                     
  3066                           ;hachiko_0.c: 452:         moverMotor('d','t',velTest);
  3067  001748  0E74               	movlw	116
  3068  00174A  6E08               	movwf	moverMotor@sentido^0,c
  3069  00174C  0E00               	movlw	0
  3070  00174E  6E0A               	movwf	(moverMotor@velocidade+1)^0,c
  3071  001750  0E32               	movlw	50
  3072  001752  6E09               	movwf	moverMotor@velocidade^0,c
  3073  001754  0E64               	movlw	100
  3074  001756  ECEA  F00B         	call	_moverMotor
  3075                           
  3076                           ;hachiko_0.c: 453:         moverMotor('e','t',velTest);
  3077  00175A  0E74               	movlw	116
  3078  00175C  6E08               	movwf	moverMotor@sentido^0,c
  3079  00175E  0E00               	movlw	0
  3080  001760  6E0A               	movwf	(moverMotor@velocidade+1)^0,c
  3081  001762  0E32               	movlw	50
  3082  001764  6E09               	movwf	moverMotor@velocidade^0,c
  3083  001766  0E65               	movlw	101
  3084  001768  ECEA  F00B         	call	_moverMotor
  3085  00176C                     
  3086                           ;hachiko_0.c: 454:         _delay((unsigned long)((100)*(20000000/4000.0)));
  3087  00176C  0E03               	movlw	3
  3088  00176E  6E0D               	movwf	(??_linha+1)^0,c
  3089  001770  0E8A               	movlw	138
  3090  001772  6E0C               	movwf	??_linha^0,c
  3091  001774  0E56               	movlw	86
  3092  001776                     u4217:
  3093  001776  2EE8               	decfsz	wreg,f,c
  3094  001778  D7FE               	bra	u4217
  3095  00177A  2E0C               	decfsz	??_linha^0,f,c
  3096  00177C  D7FC               	bra	u4217
  3097  00177E  2E0D               	decfsz	(??_linha+1)^0,f,c
  3098  001780  D7FA               	bra	u4217
  3099  001782                     
  3100                           ;hachiko_0.c: 455:         pararMotor();
  3101  001782  ECD0  F00C         	call	_pararMotor	;wreg free
  3102  001786                     
  3103                           ;hachiko_0.c: 456:         _delay((unsigned long)((10)*(20000000/4000.0)));
  3104  001786  0E41               	movlw	65
  3105  001788  6E0C               	movwf	??_linha^0,c
  3106  00178A  0EEE               	movlw	238
  3107  00178C                     u4227:
  3108  00178C  2EE8               	decfsz	wreg,f,c
  3109  00178E  D7FE               	bra	u4227
  3110  001790  2E0C               	decfsz	??_linha^0,f,c
  3111  001792  D7FC               	bra	u4227
  3112  001794  F000 F000          	nop2	
  3113  001798                     
  3114                           ;hachiko_0.c: 457:         moverMotor('d','f',velTest);
  3115  001798  0E66               	movlw	102
  3116  00179A  6E08               	movwf	moverMotor@sentido^0,c
  3117  00179C  0E00               	movlw	0
  3118  00179E  6E0A               	movwf	(moverMotor@velocidade+1)^0,c
  3119  0017A0  0E32               	movlw	50
  3120  0017A2  6E09               	movwf	moverMotor@velocidade^0,c
  3121  0017A4  0E64               	movlw	100
  3122  0017A6  ECEA  F00B         	call	_moverMotor
  3123  0017AA                     
  3124                           ;hachiko_0.c: 458:         moverMotor('e','t',velTest);
  3125  0017AA  0E74               	movlw	116
  3126  0017AC  6E08               	movwf	moverMotor@sentido^0,c
  3127  0017AE  0E00               	movlw	0
  3128  0017B0  6E0A               	movwf	(moverMotor@velocidade+1)^0,c
  3129  0017B2  0E32               	movlw	50
  3130  0017B4  6E09               	movwf	moverMotor@velocidade^0,c
  3131  0017B6  0E65               	movlw	101
  3132  0017B8  ECEA  F00B         	call	_moverMotor
  3133  0017BC                     
  3134                           ;hachiko_0.c: 459:         _delay((unsigned long)((100)*(20000000/4000.0)));
  3135  0017BC  0E03               	movlw	3
  3136  0017BE  6E0D               	movwf	(??_linha+1)^0,c
  3137  0017C0  0E8A               	movlw	138
  3138  0017C2  6E0C               	movwf	??_linha^0,c
  3139  0017C4  0E56               	movlw	86
  3140  0017C6                     u4237:
  3141  0017C6  2EE8               	decfsz	wreg,f,c
  3142  0017C8  D7FE               	bra	u4237
  3143  0017CA  2E0C               	decfsz	??_linha^0,f,c
  3144  0017CC  D7FC               	bra	u4237
  3145  0017CE  2E0D               	decfsz	(??_linha+1)^0,f,c
  3146  0017D0  D7FA               	bra	u4237
  3147  0017D2                     l343:
  3148  0017D2  0012               	return		;funcret
  3149  0017D4                     __end_of_linha:
  3150                           	callstack 0
  3151                           
  3152 ;; *************** function _estrela *****************
  3153 ;; Defined at:
  3154 ;;		line 504 in file "hachiko_0.c"
  3155 ;; Parameters:    Size  Location     Type
  3156 ;;		None
  3157 ;; Auto vars:     Size  Location     Type
  3158 ;;		None
  3159 ;; Return value:  Size  Location     Type
  3160 ;;                  1    wreg      void 
  3161 ;; Registers used:
  3162 ;;		wreg, status,2, status,0, prodl, prodh, cstack
  3163 ;; Tracked objects:
  3164 ;;		On entry : 0/0
  3165 ;;		On exit  : 0/0
  3166 ;;		Unchanged: 0/0
  3167 ;; Data sizes:     COMRAM   BANK0   BANK1   BANK2
  3168 ;;      Params:         0       0       0       0
  3169 ;;      Locals:         0       0       0       0
  3170 ;;      Temps:          2       0       0       0
  3171 ;;      Totals:         2       0       0       0
  3172 ;;Total ram usage:        2 bytes
  3173 ;; Hardware stack levels used: 1
  3174 ;; Hardware stack levels required when called: 5
  3175 ;; This function calls:
  3176 ;;		_moverMotor
  3177 ;;		_pararMotor
  3178 ;;		_testarDistancia
  3179 ;; This function is called by:
  3180 ;;		_main
  3181 ;; This function uses a non-reentrant model
  3182 ;;
  3183                           
  3184                           	psect	text11
  3185  001536                     __ptext11:
  3186                           	callstack 0
  3187  001536                     _estrela:
  3188                           	callstack 25
  3189  001536                     
  3190                           ;hachiko_0.c: 505:     if(PORTCbits.RC3 && PORTCbits.RC4){
  3191  001536  A682               	btfss	130,3,c	;volatile
  3192  001538  EFA0  F00A         	goto	u2771
  3193  00153C  EFA2  F00A         	goto	u2770
  3194  001540                     u2771:
  3195  001540  EFAD  F00A         	goto	l359
  3196  001544                     u2770:
  3197  001544  A882               	btfss	130,4,c	;volatile
  3198  001546  EFA7  F00A         	goto	u2781
  3199  00154A  EFA9  F00A         	goto	u2780
  3200  00154E                     u2781:
  3201  00154E  EFAD  F00A         	goto	l359
  3202  001552                     u2780:
  3203  001552                     
  3204                           ;hachiko_0.c: 506:         testarDistancia();
  3205  001552  ECCE  F007         	call	_testarDistancia	;wreg free
  3206                           
  3207                           ;hachiko_0.c: 507:     }
  3208  001556  EF46  F00B         	goto	l366
  3209  00155A                     l359:
  3210  00155A  B682               	btfsc	130,3,c	;volatile
  3211  00155C  EFB2  F00A         	goto	u2791
  3212  001560  EFB4  F00A         	goto	u2790
  3213  001564                     u2791:
  3214  001564  EFDA  F00A         	goto	l361
  3215  001568                     u2790:
  3216  001568  A882               	btfss	130,4,c	;volatile
  3217  00156A  EFB9  F00A         	goto	u2801
  3218  00156E  EFBB  F00A         	goto	u2800
  3219  001572                     u2801:
  3220  001572  EFDA  F00A         	goto	l361
  3221  001576                     u2800:
  3222  001576                     
  3223                           ;hachiko_0.c: 509:         moverMotor('d','f',70);
  3224  001576  0E66               	movlw	102
  3225  001578  6E08               	movwf	moverMotor@sentido^0,c
  3226  00157A  0E00               	movlw	0
  3227  00157C  6E0A               	movwf	(moverMotor@velocidade+1)^0,c
  3228  00157E  0E46               	movlw	70
  3229  001580  6E09               	movwf	moverMotor@velocidade^0,c
  3230  001582  0E64               	movlw	100
  3231  001584  ECEA  F00B         	call	_moverMotor
  3232                           
  3233                           ;hachiko_0.c: 510:         moverMotor('e','t',70);
  3234  001588  0E74               	movlw	116
  3235  00158A  6E08               	movwf	moverMotor@sentido^0,c
  3236  00158C  0E00               	movlw	0
  3237  00158E  6E0A               	movwf	(moverMotor@velocidade+1)^0,c
  3238  001590  0E46               	movlw	70
  3239  001592  6E09               	movwf	moverMotor@velocidade^0,c
  3240  001594  0E65               	movlw	101
  3241  001596  ECEA  F00B         	call	_moverMotor
  3242  00159A                     l1996:
  3243                           
  3244                           ;hachiko_0.c: 511:         _delay((unsigned long)((100)*(20000000/4000.0)));
  3245  00159A  0E03               	movlw	3
  3246  00159C  6E0F               	movwf	(??_estrela+1)^0,c
  3247  00159E  0E8A               	movlw	138
  3248  0015A0  6E0E               	movwf	??_estrela^0,c
  3249  0015A2  0E56               	movlw	86
  3250  0015A4                     u4247:
  3251  0015A4  2EE8               	decfsz	wreg,f,c
  3252  0015A6  D7FE               	bra	u4247
  3253  0015A8  2E0E               	decfsz	??_estrela^0,f,c
  3254  0015AA  D7FC               	bra	u4247
  3255  0015AC  2E0F               	decfsz	(??_estrela+1)^0,f,c
  3256  0015AE  D7FA               	bra	u4247
  3257                           
  3258                           ;hachiko_0.c: 512:     }
  3259  0015B0  EF46  F00B         	goto	l366
  3260  0015B4                     l361:
  3261  0015B4  A682               	btfss	130,3,c	;volatile
  3262  0015B6  EFDF  F00A         	goto	u2811
  3263  0015BA  EFE1  F00A         	goto	u2810
  3264  0015BE                     u2811:
  3265  0015BE  EFFC  F00A         	goto	l363
  3266  0015C2                     u2810:
  3267  0015C2  B882               	btfsc	130,4,c	;volatile
  3268  0015C4  EFE6  F00A         	goto	u2821
  3269  0015C8  EFE8  F00A         	goto	u2820
  3270  0015CC                     u2821:
  3271  0015CC  EFFC  F00A         	goto	l363
  3272  0015D0                     u2820:
  3273  0015D0                     
  3274                           ;hachiko_0.c: 514:         moverMotor('d','t',70);
  3275  0015D0  0E74               	movlw	116
  3276  0015D2  6E08               	movwf	moverMotor@sentido^0,c
  3277  0015D4  0E00               	movlw	0
  3278  0015D6  6E0A               	movwf	(moverMotor@velocidade+1)^0,c
  3279  0015D8  0E46               	movlw	70
  3280  0015DA  6E09               	movwf	moverMotor@velocidade^0,c
  3281  0015DC  0E64               	movlw	100
  3282  0015DE  ECEA  F00B         	call	_moverMotor
  3283                           
  3284                           ;hachiko_0.c: 515:         moverMotor('e','f',70);
  3285  0015E2  0E66               	movlw	102
  3286  0015E4  6E08               	movwf	moverMotor@sentido^0,c
  3287  0015E6  0E00               	movlw	0
  3288  0015E8  6E0A               	movwf	(moverMotor@velocidade+1)^0,c
  3289  0015EA  0E46               	movlw	70
  3290  0015EC  6E09               	movwf	moverMotor@velocidade^0,c
  3291  0015EE  0E65               	movlw	101
  3292  0015F0  ECEA  F00B         	call	_moverMotor
  3293  0015F4  EFCD  F00A         	goto	l1996
  3294  0015F8                     l363:
  3295  0015F8  B682               	btfsc	130,3,c	;volatile
  3296  0015FA  EF01  F00B         	goto	u2831
  3297  0015FE  EF03  F00B         	goto	u2830
  3298  001602                     u2831:
  3299  001602  EF46  F00B         	goto	l362
  3300  001606                     u2830:
  3301  001606  B882               	btfsc	130,4,c	;volatile
  3302  001608  EF08  F00B         	goto	u2841
  3303  00160C  EF0A  F00B         	goto	u2840
  3304  001610                     u2841:
  3305  001610  EF46  F00B         	goto	l362
  3306  001614                     u2840:
  3307  001614                     
  3308                           ;hachiko_0.c: 519:         moverMotor('d','t',80);
  3309  001614  0E74               	movlw	116
  3310  001616  6E08               	movwf	moverMotor@sentido^0,c
  3311  001618  0E00               	movlw	0
  3312  00161A  6E0A               	movwf	(moverMotor@velocidade+1)^0,c
  3313  00161C  0E50               	movlw	80
  3314  00161E  6E09               	movwf	moverMotor@velocidade^0,c
  3315  001620  0E64               	movlw	100
  3316  001622  ECEA  F00B         	call	_moverMotor
  3317                           
  3318                           ;hachiko_0.c: 520:         moverMotor('e','t',80);
  3319  001626  0E74               	movlw	116
  3320  001628  6E08               	movwf	moverMotor@sentido^0,c
  3321  00162A  0E00               	movlw	0
  3322  00162C  6E0A               	movwf	(moverMotor@velocidade+1)^0,c
  3323  00162E  0E50               	movlw	80
  3324  001630  6E09               	movwf	moverMotor@velocidade^0,c
  3325  001632  0E65               	movlw	101
  3326  001634  ECEA  F00B         	call	_moverMotor
  3327  001638                     
  3328                           ;hachiko_0.c: 521:         _delay((unsigned long)((100)*(20000000/4000.0)));
  3329  001638  0E03               	movlw	3
  3330  00163A  6E0F               	movwf	(??_estrela+1)^0,c
  3331  00163C  0E8A               	movlw	138
  3332  00163E  6E0E               	movwf	??_estrela^0,c
  3333  001640  0E56               	movlw	86
  3334  001642                     u4257:
  3335  001642  2EE8               	decfsz	wreg,f,c
  3336  001644  D7FE               	bra	u4257
  3337  001646  2E0E               	decfsz	??_estrela^0,f,c
  3338  001648  D7FC               	bra	u4257
  3339  00164A  2E0F               	decfsz	(??_estrela+1)^0,f,c
  3340  00164C  D7FA               	bra	u4257
  3341  00164E                     
  3342                           ;hachiko_0.c: 522:         pararMotor();
  3343  00164E  ECD0  F00C         	call	_pararMotor	;wreg free
  3344  001652                     
  3345                           ;hachiko_0.c: 523:         _delay((unsigned long)((10)*(20000000/4000.0)));
  3346  001652  0E41               	movlw	65
  3347  001654  6E0E               	movwf	??_estrela^0,c
  3348  001656  0EEE               	movlw	238
  3349  001658                     u4267:
  3350  001658  2EE8               	decfsz	wreg,f,c
  3351  00165A  D7FE               	bra	u4267
  3352  00165C  2E0E               	decfsz	??_estrela^0,f,c
  3353  00165E  D7FC               	bra	u4267
  3354  001660  F000 F000          	nop2	
  3355  001664                     
  3356                           ;hachiko_0.c: 524:         moverMotor('d','t',70);
  3357  001664  0E74               	movlw	116
  3358  001666  6E08               	movwf	moverMotor@sentido^0,c
  3359  001668  0E00               	movlw	0
  3360  00166A  6E0A               	movwf	(moverMotor@velocidade+1)^0,c
  3361  00166C  0E46               	movlw	70
  3362  00166E  6E09               	movwf	moverMotor@velocidade^0,c
  3363  001670  0E64               	movlw	100
  3364  001672  ECEA  F00B         	call	_moverMotor
  3365  001676                     
  3366                           ;hachiko_0.c: 525:         moverMotor('e','f',70);
  3367  001676  0E66               	movlw	102
  3368  001678  6E08               	movwf	moverMotor@sentido^0,c
  3369  00167A  0E00               	movlw	0
  3370  00167C  6E0A               	movwf	(moverMotor@velocidade+1)^0,c
  3371  00167E  0E46               	movlw	70
  3372  001680  6E09               	movwf	moverMotor@velocidade^0,c
  3373  001682  0E65               	movlw	101
  3374  001684  ECEA  F00B         	call	_moverMotor
  3375  001688  EFCD  F00A         	goto	l1996
  3376  00168C                     l362:
  3377  00168C                     l366:
  3378  00168C  0012               	return		;funcret
  3379  00168E                     __end_of_estrela:
  3380                           	callstack 0
  3381                           
  3382 ;; *************** function _testarDistancia *****************
  3383 ;; Defined at:
  3384 ;;		line 389 in file "hachiko_0.c"
  3385 ;; Parameters:    Size  Location     Type
  3386 ;;		None
  3387 ;; Auto vars:     Size  Location     Type
  3388 ;;  velTest         2    0        int 
  3389 ;;  velTestParaF    2   11[COMRAM] int 
  3390 ;; Return value:  Size  Location     Type
  3391 ;;                  1    wreg      void 
  3392 ;; Registers used:
  3393 ;;		wreg, status,2, status,0, prodl, prodh, cstack
  3394 ;; Tracked objects:
  3395 ;;		On entry : 0/0
  3396 ;;		On exit  : 0/0
  3397 ;;		Unchanged: 0/0
  3398 ;; Data sizes:     COMRAM   BANK0   BANK1   BANK2
  3399 ;;      Params:         0       0       0       0
  3400 ;;      Locals:         2       0       0       0
  3401 ;;      Temps:          0       0       0       0
  3402 ;;      Totals:         2       0       0       0
  3403 ;;Total ram usage:        2 bytes
  3404 ;; Hardware stack levels used: 1
  3405 ;; Hardware stack levels required when called: 4
  3406 ;; This function calls:
  3407 ;;		_moverMotor
  3408 ;; This function is called by:
  3409 ;;		_main
  3410 ;;		_estrela
  3411 ;; This function uses a non-reentrant model
  3412 ;;
  3413                           
  3414                           	psect	text12
  3415  000F9C                     __ptext12:
  3416                           	callstack 0
  3417  000F9C                     _testarDistancia:
  3418                           	callstack 26
  3419  000F9C                     
  3420                           ;hachiko_0.c: 391:     int velTestParaFrente = 100;
  3421  000F9C  0E00               	movlw	0
  3422  000F9E  6E0D               	movwf	(testarDistancia@velTestParaFrente+1)^0,c
  3423  000FA0  0E64               	movlw	100
  3424  000FA2  6E0C               	movwf	testarDistancia@velTestParaFrente^0,c
  3425  000FA4                     
  3426                           ;hachiko_0.c: 392:     if(!PORTAbits.RA1 && PORTAbits.RA4 && PORTCbits.RC0 && PORTAbits.
      +                          RA3 && PORTAbits.RA2){
  3427  000FA4  B280               	btfsc	128,1,c	;volatile
  3428  000FA6  EFD7  F007         	goto	u2171
  3429  000FAA  EFD9  F007         	goto	u2170
  3430  000FAE                     u2171:
  3431  000FAE  EF09  F008         	goto	l317
  3432  000FB2                     u2170:
  3433  000FB2  A880               	btfss	128,4,c	;volatile
  3434  000FB4  EFDE  F007         	goto	u2181
  3435  000FB8  EFE0  F007         	goto	u2180
  3436  000FBC                     u2181:
  3437  000FBC  EF09  F008         	goto	l317
  3438  000FC0                     u2180:
  3439  000FC0  A082               	btfss	130,0,c	;volatile
  3440  000FC2  EFE5  F007         	goto	u2191
  3441  000FC6  EFE7  F007         	goto	u2190
  3442  000FCA                     u2191:
  3443  000FCA  EF09  F008         	goto	l317
  3444  000FCE                     u2190:
  3445  000FCE  A680               	btfss	128,3,c	;volatile
  3446  000FD0  EFEC  F007         	goto	u2201
  3447  000FD4  EFEE  F007         	goto	u2200
  3448  000FD8                     u2201:
  3449  000FD8  EF09  F008         	goto	l317
  3450  000FDC                     u2200:
  3451  000FDC  A480               	btfss	128,2,c	;volatile
  3452  000FDE  EFF3  F007         	goto	u2211
  3453  000FE2  EFF5  F007         	goto	u2210
  3454  000FE6                     u2211:
  3455  000FE6  EF09  F008         	goto	l317
  3456  000FEA                     u2210:
  3457  000FEA                     
  3458                           ;hachiko_0.c: 393:         moverMotor('e','t',velTest);
  3459  000FEA  0E74               	movlw	116
  3460  000FEC  6E08               	movwf	moverMotor@sentido^0,c
  3461  000FEE  0E00               	movlw	0
  3462  000FF0  6E0A               	movwf	(moverMotor@velocidade+1)^0,c
  3463  000FF2  0E46               	movlw	70
  3464  000FF4  6E09               	movwf	moverMotor@velocidade^0,c
  3465  000FF6  0E65               	movlw	101
  3466  000FF8  ECEA  F00B         	call	_moverMotor
  3467                           
  3468                           ;hachiko_0.c: 394:         moverMotor('d','f',velTest);
  3469  000FFC  0E66               	movlw	102
  3470  000FFE  6E08               	movwf	moverMotor@sentido^0,c
  3471  001000  0E00               	movlw	0
  3472  001002  6E0A               	movwf	(moverMotor@velocidade+1)^0,c
  3473  001004  0E46               	movlw	70
  3474  001006  6E09               	movwf	moverMotor@velocidade^0,c
  3475  001008  0E64               	movlw	100
  3476  00100A  ECEA  F00B         	call	_moverMotor
  3477                           
  3478                           ;hachiko_0.c: 395:     }
  3479  00100E  EFD3  F009         	goto	l335
  3480  001012                     l317:
  3481  001012  A280               	btfss	128,1,c	;volatile
  3482  001014  EF0E  F008         	goto	u2221
  3483  001018  EF10  F008         	goto	u2220
  3484  00101C                     u2221:
  3485  00101C  EF40  F008         	goto	l319
  3486  001020                     u2220:
  3487  001020  A880               	btfss	128,4,c	;volatile
  3488  001022  EF15  F008         	goto	u2231
  3489  001026  EF17  F008         	goto	u2230
  3490  00102A                     u2231:
  3491  00102A  EF40  F008         	goto	l319
  3492  00102E                     u2230:
  3493  00102E  B082               	btfsc	130,0,c	;volatile
  3494  001030  EF1C  F008         	goto	u2241
  3495  001034  EF1E  F008         	goto	u2240
  3496  001038                     u2241:
  3497  001038  EF40  F008         	goto	l319
  3498  00103C                     u2240:
  3499  00103C  A680               	btfss	128,3,c	;volatile
  3500  00103E  EF23  F008         	goto	u2251
  3501  001042  EF25  F008         	goto	u2250
  3502  001046                     u2251:
  3503  001046  EF40  F008         	goto	l319
  3504  00104A                     u2250:
  3505  00104A  A480               	btfss	128,2,c	;volatile
  3506  00104C  EF2A  F008         	goto	u2261
  3507  001050  EF2C  F008         	goto	u2260
  3508  001054                     u2261:
  3509  001054  EF40  F008         	goto	l319
  3510  001058                     u2260:
  3511  001058                     
  3512                           ;hachiko_0.c: 397:         moverMotor('e','f',velTestParaFrente);
  3513  001058  0E66               	movlw	102
  3514  00105A  6E08               	movwf	moverMotor@sentido^0,c
  3515  00105C  0E00               	movlw	0
  3516  00105E  6E0A               	movwf	(moverMotor@velocidade+1)^0,c
  3517  001060  0E64               	movlw	100
  3518  001062  6E09               	movwf	moverMotor@velocidade^0,c
  3519  001064  0E65               	movlw	101
  3520  001066  ECEA  F00B         	call	_moverMotor
  3521                           
  3522                           ;hachiko_0.c: 398:         moverMotor('d','f',velTestParaFrente);
  3523  00106A  0E66               	movlw	102
  3524  00106C  6E08               	movwf	moverMotor@sentido^0,c
  3525  00106E  0E00               	movlw	0
  3526  001070  6E0A               	movwf	(moverMotor@velocidade+1)^0,c
  3527  001072  0E64               	movlw	100
  3528  001074  6E09               	movwf	moverMotor@velocidade^0,c
  3529  001076  0E64               	movlw	100
  3530  001078  ECEA  F00B         	call	_moverMotor
  3531                           
  3532                           ;hachiko_0.c: 400:     }
  3533  00107C  EFD3  F009         	goto	l335
  3534  001080                     l319:
  3535  001080  A280               	btfss	128,1,c	;volatile
  3536  001082  EF45  F008         	goto	u2271
  3537  001086  EF47  F008         	goto	u2270
  3538  00108A                     u2271:
  3539  00108A  EF77  F008         	goto	l321
  3540  00108E                     u2270:
  3541  00108E  B880               	btfsc	128,4,c	;volatile
  3542  001090  EF4C  F008         	goto	u2281
  3543  001094  EF4E  F008         	goto	u2280
  3544  001098                     u2281:
  3545  001098  EF77  F008         	goto	l321
  3546  00109C                     u2280:
  3547  00109C  A082               	btfss	130,0,c	;volatile
  3548  00109E  EF53  F008         	goto	u2291
  3549  0010A2  EF55  F008         	goto	u2290
  3550  0010A6                     u2291:
  3551  0010A6  EF77  F008         	goto	l321
  3552  0010AA                     u2290:
  3553  0010AA  B680               	btfsc	128,3,c	;volatile
  3554  0010AC  EF5A  F008         	goto	u2301
  3555  0010B0  EF5C  F008         	goto	u2300
  3556  0010B4                     u2301:
  3557  0010B4  EF77  F008         	goto	l321
  3558  0010B8                     u2300:
  3559  0010B8  A480               	btfss	128,2,c	;volatile
  3560  0010BA  EF61  F008         	goto	u2311
  3561  0010BE  EF63  F008         	goto	u2310
  3562  0010C2                     u2311:
  3563  0010C2  EF77  F008         	goto	l321
  3564  0010C6                     u2310:
  3565  0010C6                     
  3566                           ;hachiko_0.c: 402:         moverMotor('e','f',velTestParaFrente);
  3567  0010C6  0E66               	movlw	102
  3568  0010C8  6E08               	movwf	moverMotor@sentido^0,c
  3569  0010CA  0E00               	movlw	0
  3570  0010CC  6E0A               	movwf	(moverMotor@velocidade+1)^0,c
  3571  0010CE  0E64               	movlw	100
  3572  0010D0  6E09               	movwf	moverMotor@velocidade^0,c
  3573  0010D2  0E65               	movlw	101
  3574  0010D4  ECEA  F00B         	call	_moverMotor
  3575                           
  3576                           ;hachiko_0.c: 403:         moverMotor('d','f',velTestParaFrente);
  3577  0010D8  0E66               	movlw	102
  3578  0010DA  6E08               	movwf	moverMotor@sentido^0,c
  3579  0010DC  0E00               	movlw	0
  3580  0010DE  6E0A               	movwf	(moverMotor@velocidade+1)^0,c
  3581  0010E0  0E64               	movlw	100
  3582  0010E2  6E09               	movwf	moverMotor@velocidade^0,c
  3583  0010E4  0E64               	movlw	100
  3584  0010E6  ECEA  F00B         	call	_moverMotor
  3585                           
  3586                           ;hachiko_0.c: 405:     }
  3587  0010EA  EFD3  F009         	goto	l335
  3588  0010EE                     l321:
  3589  0010EE  A280               	btfss	128,1,c	;volatile
  3590  0010F0  EF7C  F008         	goto	u2321
  3591  0010F4  EF7E  F008         	goto	u2320
  3592  0010F8                     u2321:
  3593  0010F8  EFAE  F008         	goto	l323
  3594  0010FC                     u2320:
  3595  0010FC  B880               	btfsc	128,4,c	;volatile
  3596  0010FE  EF83  F008         	goto	u2331
  3597  001102  EF85  F008         	goto	u2330
  3598  001106                     u2331:
  3599  001106  EFAE  F008         	goto	l323
  3600  00110A                     u2330:
  3601  00110A  B082               	btfsc	130,0,c	;volatile
  3602  00110C  EF8A  F008         	goto	u2341
  3603  001110  EF8C  F008         	goto	u2340
  3604  001114                     u2341:
  3605  001114  EFAE  F008         	goto	l323
  3606  001118                     u2340:
  3607  001118  B680               	btfsc	128,3,c	;volatile
  3608  00111A  EF91  F008         	goto	u2351
  3609  00111E  EF93  F008         	goto	u2350
  3610  001122                     u2351:
  3611  001122  EFAE  F008         	goto	l323
  3612  001126                     u2350:
  3613  001126  A480               	btfss	128,2,c	;volatile
  3614  001128  EF98  F008         	goto	u2361
  3615  00112C  EF9A  F008         	goto	u2360
  3616  001130                     u2361:
  3617  001130  EFAE  F008         	goto	l323
  3618  001134                     u2360:
  3619  001134                     
  3620                           ;hachiko_0.c: 407:         moverMotor('d','f',velTestParaFrente);
  3621  001134  0E66               	movlw	102
  3622  001136  6E08               	movwf	moverMotor@sentido^0,c
  3623  001138  0E00               	movlw	0
  3624  00113A  6E0A               	movwf	(moverMotor@velocidade+1)^0,c
  3625  00113C  0E64               	movlw	100
  3626  00113E  6E09               	movwf	moverMotor@velocidade^0,c
  3627  001140  0E64               	movlw	100
  3628  001142  ECEA  F00B         	call	_moverMotor
  3629                           
  3630                           ;hachiko_0.c: 408:         moverMotor('e','f',velTestParaFrente);
  3631  001146  0E66               	movlw	102
  3632  001148  6E08               	movwf	moverMotor@sentido^0,c
  3633  00114A  0E00               	movlw	0
  3634  00114C  6E0A               	movwf	(moverMotor@velocidade+1)^0,c
  3635  00114E  0E64               	movlw	100
  3636  001150  6E09               	movwf	moverMotor@velocidade^0,c
  3637  001152  0E65               	movlw	101
  3638  001154  ECEA  F00B         	call	_moverMotor
  3639                           
  3640                           ;hachiko_0.c: 409:     }
  3641  001158  EFD3  F009         	goto	l335
  3642  00115C                     l323:
  3643  00115C  A280               	btfss	128,1,c	;volatile
  3644  00115E  EFB3  F008         	goto	u2371
  3645  001162  EFB5  F008         	goto	u2370
  3646  001166                     u2371:
  3647  001166  EFE5  F008         	goto	l325
  3648  00116A                     u2370:
  3649  00116A  A880               	btfss	128,4,c	;volatile
  3650  00116C  EFBA  F008         	goto	u2381
  3651  001170  EFBC  F008         	goto	u2380
  3652  001174                     u2381:
  3653  001174  EFE5  F008         	goto	l325
  3654  001178                     u2380:
  3655  001178  A082               	btfss	130,0,c	;volatile
  3656  00117A  EFC1  F008         	goto	u2391
  3657  00117E  EFC3  F008         	goto	u2390
  3658  001182                     u2391:
  3659  001182  EFE5  F008         	goto	l325
  3660  001186                     u2390:
  3661  001186  B680               	btfsc	128,3,c	;volatile
  3662  001188  EFC8  F008         	goto	u2401
  3663  00118C  EFCA  F008         	goto	u2400
  3664  001190                     u2401:
  3665  001190  EFE5  F008         	goto	l325
  3666  001194                     u2400:
  3667  001194  A480               	btfss	128,2,c	;volatile
  3668  001196  EFCF  F008         	goto	u2411
  3669  00119A  EFD1  F008         	goto	u2410
  3670  00119E                     u2411:
  3671  00119E  EFE5  F008         	goto	l325
  3672  0011A2                     u2410:
  3673  0011A2                     
  3674                           ;hachiko_0.c: 411:         moverMotor('e','f',velTest);
  3675  0011A2  0E66               	movlw	102
  3676  0011A4  6E08               	movwf	moverMotor@sentido^0,c
  3677  0011A6  0E00               	movlw	0
  3678  0011A8  6E0A               	movwf	(moverMotor@velocidade+1)^0,c
  3679  0011AA  0E46               	movlw	70
  3680  0011AC  6E09               	movwf	moverMotor@velocidade^0,c
  3681  0011AE  0E65               	movlw	101
  3682  0011B0  ECEA  F00B         	call	_moverMotor
  3683                           
  3684                           ;hachiko_0.c: 412:         moverMotor('d','t',velTest);
  3685  0011B4  0E74               	movlw	116
  3686  0011B6  6E08               	movwf	moverMotor@sentido^0,c
  3687  0011B8  0E00               	movlw	0
  3688  0011BA  6E0A               	movwf	(moverMotor@velocidade+1)^0,c
  3689  0011BC  0E46               	movlw	70
  3690  0011BE  6E09               	movwf	moverMotor@velocidade^0,c
  3691  0011C0  0E64               	movlw	100
  3692  0011C2  ECEA  F00B         	call	_moverMotor
  3693                           
  3694                           ;hachiko_0.c: 413:     }
  3695  0011C6  EFD3  F009         	goto	l335
  3696  0011CA                     l325:
  3697  0011CA  A280               	btfss	128,1,c	;volatile
  3698  0011CC  EFEA  F008         	goto	u2421
  3699  0011D0  EFEC  F008         	goto	u2420
  3700  0011D4                     u2421:
  3701  0011D4  EF1C  F009         	goto	l327
  3702  0011D8                     u2420:
  3703  0011D8  A880               	btfss	128,4,c	;volatile
  3704  0011DA  EFF1  F008         	goto	u2431
  3705  0011DE  EFF3  F008         	goto	u2430
  3706  0011E2                     u2431:
  3707  0011E2  EF1C  F009         	goto	l327
  3708  0011E6                     u2430:
  3709  0011E6  B082               	btfsc	130,0,c	;volatile
  3710  0011E8  EFF8  F008         	goto	u2441
  3711  0011EC  EFFA  F008         	goto	u2440
  3712  0011F0                     u2441:
  3713  0011F0  EF1C  F009         	goto	l327
  3714  0011F4                     u2440:
  3715  0011F4  B680               	btfsc	128,3,c	;volatile
  3716  0011F6  EFFF  F008         	goto	u2451
  3717  0011FA  EF01  F009         	goto	u2450
  3718  0011FE                     u2451:
  3719  0011FE  EF1C  F009         	goto	l327
  3720  001202                     u2450:
  3721  001202  A480               	btfss	128,2,c	;volatile
  3722  001204  EF06  F009         	goto	u2461
  3723  001208  EF08  F009         	goto	u2460
  3724  00120C                     u2461:
  3725  00120C  EF1C  F009         	goto	l327
  3726  001210                     u2460:
  3727  001210                     
  3728                           ;hachiko_0.c: 415:         moverMotor('e','f',velTest);
  3729  001210  0E66               	movlw	102
  3730  001212  6E08               	movwf	moverMotor@sentido^0,c
  3731  001214  0E00               	movlw	0
  3732  001216  6E0A               	movwf	(moverMotor@velocidade+1)^0,c
  3733  001218  0E46               	movlw	70
  3734  00121A  6E09               	movwf	moverMotor@velocidade^0,c
  3735  00121C  0E65               	movlw	101
  3736  00121E  ECEA  F00B         	call	_moverMotor
  3737                           
  3738                           ;hachiko_0.c: 416:         moverMotor('d','t',velTest);
  3739  001222  0E74               	movlw	116
  3740  001224  6E08               	movwf	moverMotor@sentido^0,c
  3741  001226  0E00               	movlw	0
  3742  001228  6E0A               	movwf	(moverMotor@velocidade+1)^0,c
  3743  00122A  0E46               	movlw	70
  3744  00122C  6E09               	movwf	moverMotor@velocidade^0,c
  3745  00122E  0E64               	movlw	100
  3746  001230  ECEA  F00B         	call	_moverMotor
  3747                           
  3748                           ;hachiko_0.c: 417:     }
  3749  001234  EFD3  F009         	goto	l335
  3750  001238                     l327:
  3751  001238  A280               	btfss	128,1,c	;volatile
  3752  00123A  EF21  F009         	goto	u2471
  3753  00123E  EF23  F009         	goto	u2470
  3754  001242                     u2471:
  3755  001242  EF53  F009         	goto	l329
  3756  001246                     u2470:
  3757  001246  B880               	btfsc	128,4,c	;volatile
  3758  001248  EF28  F009         	goto	u2481
  3759  00124C  EF2A  F009         	goto	u2480
  3760  001250                     u2481:
  3761  001250  EF53  F009         	goto	l329
  3762  001254                     u2480:
  3763  001254  A082               	btfss	130,0,c	;volatile
  3764  001256  EF2F  F009         	goto	u2491
  3765  00125A  EF31  F009         	goto	u2490
  3766  00125E                     u2491:
  3767  00125E  EF53  F009         	goto	l329
  3768  001262                     u2490:
  3769  001262  A680               	btfss	128,3,c	;volatile
  3770  001264  EF36  F009         	goto	u2501
  3771  001268  EF38  F009         	goto	u2500
  3772  00126C                     u2501:
  3773  00126C  EF53  F009         	goto	l329
  3774  001270                     u2500:
  3775  001270  A480               	btfss	128,2,c	;volatile
  3776  001272  EF3D  F009         	goto	u2511
  3777  001276  EF3F  F009         	goto	u2510
  3778  00127A                     u2511:
  3779  00127A  EF53  F009         	goto	l329
  3780  00127E                     u2510:
  3781  00127E                     
  3782                           ;hachiko_0.c: 419:         moverMotor('e','t',velTest);
  3783  00127E  0E74               	movlw	116
  3784  001280  6E08               	movwf	moverMotor@sentido^0,c
  3785  001282  0E00               	movlw	0
  3786  001284  6E0A               	movwf	(moverMotor@velocidade+1)^0,c
  3787  001286  0E46               	movlw	70
  3788  001288  6E09               	movwf	moverMotor@velocidade^0,c
  3789  00128A  0E65               	movlw	101
  3790  00128C  ECEA  F00B         	call	_moverMotor
  3791                           
  3792                           ;hachiko_0.c: 420:         moverMotor('d','f',velTest);
  3793  001290  0E66               	movlw	102
  3794  001292  6E08               	movwf	moverMotor@sentido^0,c
  3795  001294  0E00               	movlw	0
  3796  001296  6E0A               	movwf	(moverMotor@velocidade+1)^0,c
  3797  001298  0E46               	movlw	70
  3798  00129A  6E09               	movwf	moverMotor@velocidade^0,c
  3799  00129C  0E64               	movlw	100
  3800  00129E  ECEA  F00B         	call	_moverMotor
  3801                           
  3802                           ;hachiko_0.c: 421:     }
  3803  0012A2  EFD3  F009         	goto	l335
  3804  0012A6                     l329:
  3805  0012A6  A280               	btfss	128,1,c	;volatile
  3806  0012A8  EF58  F009         	goto	u2521
  3807  0012AC  EF5A  F009         	goto	u2520
  3808  0012B0                     u2521:
  3809  0012B0  EF8A  F009         	goto	l331
  3810  0012B4                     u2520:
  3811  0012B4  B880               	btfsc	128,4,c	;volatile
  3812  0012B6  EF5F  F009         	goto	u2531
  3813  0012BA  EF61  F009         	goto	u2530
  3814  0012BE                     u2531:
  3815  0012BE  EF8A  F009         	goto	l331
  3816  0012C2                     u2530:
  3817  0012C2  B082               	btfsc	130,0,c	;volatile
  3818  0012C4  EF66  F009         	goto	u2541
  3819  0012C8  EF68  F009         	goto	u2540
  3820  0012CC                     u2541:
  3821  0012CC  EF8A  F009         	goto	l331
  3822  0012D0                     u2540:
  3823  0012D0  A680               	btfss	128,3,c	;volatile
  3824  0012D2  EF6D  F009         	goto	u2551
  3825  0012D6  EF6F  F009         	goto	u2550
  3826  0012DA                     u2551:
  3827  0012DA  EF8A  F009         	goto	l331
  3828  0012DE                     u2550:
  3829  0012DE  A480               	btfss	128,2,c	;volatile
  3830  0012E0  EF74  F009         	goto	u2561
  3831  0012E4  EF76  F009         	goto	u2560
  3832  0012E8                     u2561:
  3833  0012E8  EF8A  F009         	goto	l331
  3834  0012EC                     u2560:
  3835  0012EC                     
  3836                           ;hachiko_0.c: 423:         moverMotor('e','t',velTest);
  3837  0012EC  0E74               	movlw	116
  3838  0012EE  6E08               	movwf	moverMotor@sentido^0,c
  3839  0012F0  0E00               	movlw	0
  3840  0012F2  6E0A               	movwf	(moverMotor@velocidade+1)^0,c
  3841  0012F4  0E46               	movlw	70
  3842  0012F6  6E09               	movwf	moverMotor@velocidade^0,c
  3843  0012F8  0E65               	movlw	101
  3844  0012FA  ECEA  F00B         	call	_moverMotor
  3845                           
  3846                           ;hachiko_0.c: 424:         moverMotor('d','f',velTest);
  3847  0012FE  0E66               	movlw	102
  3848  001300  6E08               	movwf	moverMotor@sentido^0,c
  3849  001302  0E00               	movlw	0
  3850  001304  6E0A               	movwf	(moverMotor@velocidade+1)^0,c
  3851  001306  0E46               	movlw	70
  3852  001308  6E09               	movwf	moverMotor@velocidade^0,c
  3853  00130A  0E64               	movlw	100
  3854  00130C  ECEA  F00B         	call	_moverMotor
  3855                           
  3856                           ;hachiko_0.c: 425:     }
  3857  001310  EFD3  F009         	goto	l335
  3858  001314                     l331:
  3859  001314  A280               	btfss	128,1,c	;volatile
  3860  001316  EF8F  F009         	goto	u2571
  3861  00131A  EF91  F009         	goto	u2570
  3862  00131E                     u2571:
  3863  00131E  EFC1  F009         	goto	l1902
  3864  001322                     u2570:
  3865  001322  A880               	btfss	128,4,c	;volatile
  3866  001324  EF96  F009         	goto	u2581
  3867  001328  EF98  F009         	goto	u2580
  3868  00132C                     u2581:
  3869  00132C  EFC1  F009         	goto	l1902
  3870  001330                     u2580:
  3871  001330  A082               	btfss	130,0,c	;volatile
  3872  001332  EF9D  F009         	goto	u2591
  3873  001336  EF9F  F009         	goto	u2590
  3874  00133A                     u2591:
  3875  00133A  EFC1  F009         	goto	l1902
  3876  00133E                     u2590:
  3877  00133E  A680               	btfss	128,3,c	;volatile
  3878  001340  EFA4  F009         	goto	u2601
  3879  001344  EFA6  F009         	goto	u2600
  3880  001348                     u2601:
  3881  001348  EFC1  F009         	goto	l1902
  3882  00134C                     u2600:
  3883  00134C  B480               	btfsc	128,2,c	;volatile
  3884  00134E  EFAB  F009         	goto	u2611
  3885  001352  EFAD  F009         	goto	u2610
  3886  001356                     u2611:
  3887  001356  EFC1  F009         	goto	l1902
  3888  00135A                     u2610:
  3889  00135A                     
  3890                           ;hachiko_0.c: 427:         moverMotor('e','f',velTest);
  3891  00135A  0E66               	movlw	102
  3892  00135C  6E08               	movwf	moverMotor@sentido^0,c
  3893  00135E  0E00               	movlw	0
  3894  001360  6E0A               	movwf	(moverMotor@velocidade+1)^0,c
  3895  001362  0E46               	movlw	70
  3896  001364  6E09               	movwf	moverMotor@velocidade^0,c
  3897  001366  0E65               	movlw	101
  3898  001368  ECEA  F00B         	call	_moverMotor
  3899                           
  3900                           ;hachiko_0.c: 428:         moverMotor('d','t',velTest);
  3901  00136C  0E74               	movlw	116
  3902  00136E  6E08               	movwf	moverMotor@sentido^0,c
  3903  001370  0E00               	movlw	0
  3904  001372  6E0A               	movwf	(moverMotor@velocidade+1)^0,c
  3905  001374  0E46               	movlw	70
  3906  001376  6E09               	movwf	moverMotor@velocidade^0,c
  3907  001378  0E64               	movlw	100
  3908  00137A  ECEA  F00B         	call	_moverMotor
  3909                           
  3910                           ;hachiko_0.c: 429:     }
  3911  00137E  EFD3  F009         	goto	l335
  3912  001382                     l1902:
  3913                           
  3914                           ;hachiko_0.c: 431:         moverMotor('d','f',100);
  3915  001382  0E66               	movlw	102
  3916  001384  6E08               	movwf	moverMotor@sentido^0,c
  3917  001386  0E00               	movlw	0
  3918  001388  6E0A               	movwf	(moverMotor@velocidade+1)^0,c
  3919  00138A  0E64               	movlw	100
  3920  00138C  6E09               	movwf	moverMotor@velocidade^0,c
  3921  00138E  0E64               	movlw	100
  3922  001390  ECEA  F00B         	call	_moverMotor
  3923                           
  3924                           ;hachiko_0.c: 432:         moverMotor('e','f',100);
  3925  001394  0E66               	movlw	102
  3926  001396  6E08               	movwf	moverMotor@sentido^0,c
  3927  001398  0E00               	movlw	0
  3928  00139A  6E0A               	movwf	(moverMotor@velocidade+1)^0,c
  3929  00139C  0E64               	movlw	100
  3930  00139E  6E09               	movwf	moverMotor@velocidade^0,c
  3931  0013A0  0E65               	movlw	101
  3932  0013A2  ECEA  F00B         	call	_moverMotor
  3933  0013A6                     l335:
  3934  0013A6  0012               	return		;funcret
  3935  0013A8                     __end_of_testarDistancia:
  3936                           	callstack 0
  3937                           
  3938 ;; *************** function _moverMotor *****************
  3939 ;; Defined at:
  3940 ;;		line 344 in file "hachiko_0.c"
  3941 ;; Parameters:    Size  Location     Type
  3942 ;;  lado            1    wreg     unsigned char 
  3943 ;;  sentido         1    7[COMRAM] unsigned char 
  3944 ;;  velocidade      2    8[COMRAM] unsigned int 
  3945 ;; Auto vars:     Size  Location     Type
  3946 ;;  lado            1   10[COMRAM] unsigned char 
  3947 ;; Return value:  Size  Location     Type
  3948 ;;                  1    wreg      void 
  3949 ;; Registers used:
  3950 ;;		wreg, status,2, status,0, prodl, prodh, cstack
  3951 ;; Tracked objects:
  3952 ;;		On entry : 0/0
  3953 ;;		On exit  : 0/0
  3954 ;;		Unchanged: 0/0
  3955 ;; Data sizes:     COMRAM   BANK0   BANK1   BANK2
  3956 ;;      Params:         3       0       0       0
  3957 ;;      Locals:         1       0       0       0
  3958 ;;      Temps:          0       0       0       0
  3959 ;;      Totals:         4       0       0       0
  3960 ;;Total ram usage:        4 bytes
  3961 ;; Hardware stack levels used: 1
  3962 ;; Hardware stack levels required when called: 3
  3963 ;; This function calls:
  3964 ;;		___wmul
  3965 ;; This function is called by:
  3966 ;;		_main
  3967 ;;		_testarDistancia
  3968 ;;		_linha
  3969 ;;		_testarLinha
  3970 ;;		_estrela
  3971 ;;		_testarMotor
  3972 ;; This function uses a non-reentrant model
  3973 ;;
  3974                           
  3975                           	psect	text13
  3976  0017D4                     __ptext13:
  3977                           	callstack 0
  3978  0017D4                     _moverMotor:
  3979                           	callstack 26
  3980                           
  3981                           ;incstack = 0
  3982                           ;moverMotor@lado stored from wreg
  3983  0017D4  6E0B               	movwf	moverMotor@lado^0,c
  3984  0017D6                     
  3985                           ;hachiko_0.c: 345:     velocidade *= 600/100;
  3986  0017D6  C009  F002         	movff	moverMotor@velocidade,___wmul@multiplier
  3987  0017DA  C00A  F003         	movff	moverMotor@velocidade+1,___wmul@multiplier+1
  3988  0017DE  0E00               	movlw	0
  3989  0017E0  6E05               	movwf	(___wmul@multiplicand+1)^0,c
  3990  0017E2  0E06               	movlw	6
  3991  0017E4  6E04               	movwf	___wmul@multiplicand^0,c
  3992  0017E6  ECBD  F00C         	call	___wmul	;wreg free
  3993  0017EA  C002  F009         	movff	?___wmul,moverMotor@velocidade
  3994  0017EE  C003  F00A         	movff	?___wmul+1,moverMotor@velocidade+1
  3995  0017F2                     
  3996                           ;hachiko_0.c: 346:     if(lado == 'e'){
  3997  0017F2  0E65               	movlw	101
  3998  0017F4  180B               	xorwf	moverMotor@lado^0,w,c
  3999  0017F6  A4D8               	btfss	status,2,c
  4000  0017F8  EF00  F00C         	goto	u2111
  4001  0017FC  EF02  F00C         	goto	u2110
  4002  001800                     u2111:
  4003  001800  EF29  F00C         	goto	l1792
  4004  001804                     u2110:
  4005  001804                     
  4006                           ;hachiko_0.c: 347:         PORTBbits.RB6 = 1;
  4007  001804  8C81               	bsf	129,6,c	;volatile
  4008  001806                     
  4009                           ;hachiko_0.c: 348:         if(sentido == 'f'){
  4010  001806  0E66               	movlw	102
  4011  001808  1808               	xorwf	moverMotor@sentido^0,w,c
  4012  00180A  A4D8               	btfss	status,2,c
  4013  00180C  EF0A  F00C         	goto	u2121
  4014  001810  EF0C  F00C         	goto	u2120
  4015  001814                     u2121:
  4016  001814  EF16  F00C         	goto	l1786
  4017  001818                     u2120:
  4018  001818                     
  4019                           ;hachiko_0.c: 349:             PDC1L = velocidade & 0xFF;
  4020  001818  C009  FF77         	movff	moverMotor@velocidade,3959	;volatile
  4021  00181C                     
  4022                           ;hachiko_0.c: 350:             PDC1H = (velocidade >> 8) & 0xFF;
  4023  00181C  500A               	movf	(moverMotor@velocidade+1)^0,w,c
  4024  00181E  6E76               	movwf	118,c	;volatile
  4025                           
  4026                           ;hachiko_0.c: 351:             PDC2L = 0x00;
  4027  001820  0E00               	movlw	0
  4028  001822  6E75               	movwf	117,c	;volatile
  4029                           
  4030                           ;hachiko_0.c: 352:             PDC2H = 0x00;
  4031  001824  0E00               	movlw	0
  4032  001826  6E74               	movwf	116,c	;volatile
  4033                           
  4034                           ;hachiko_0.c: 353:         }
  4035  001828  EF57  F00C         	goto	l311
  4036  00182C                     l1786:
  4037  00182C  0E74               	movlw	116
  4038  00182E  1808               	xorwf	moverMotor@sentido^0,w,c
  4039  001830  A4D8               	btfss	status,2,c
  4040  001832  EF1D  F00C         	goto	u2131
  4041  001836  EF1F  F00C         	goto	u2130
  4042  00183A                     u2131:
  4043  00183A  EF57  F00C         	goto	l311
  4044  00183E                     u2130:
  4045  00183E                     
  4046                           ;hachiko_0.c: 356:             PDC1L = 0x00;
  4047  00183E  0E00               	movlw	0
  4048  001840  6E77               	movwf	119,c	;volatile
  4049                           
  4050                           ;hachiko_0.c: 357:             PDC1H = 0x00;
  4051  001842  0E00               	movlw	0
  4052  001844  6E76               	movwf	118,c	;volatile
  4053  001846                     
  4054                           ;hachiko_0.c: 358:             PDC2L = velocidade & 0xFF;
  4055  001846  C009  FF75         	movff	moverMotor@velocidade,3957	;volatile
  4056                           
  4057                           ;hachiko_0.c: 359:             PDC2H = (velocidade >> 8) & 0xFF;
  4058  00184A  500A               	movf	(moverMotor@velocidade+1)^0,w,c
  4059  00184C  6E74               	movwf	116,c	;volatile
  4060  00184E  EF57  F00C         	goto	l311
  4061  001852                     l1792:
  4062  001852  0E64               	movlw	100
  4063  001854  180B               	xorwf	moverMotor@lado^0,w,c
  4064  001856  A4D8               	btfss	status,2,c
  4065  001858  EF30  F00C         	goto	u2141
  4066  00185C  EF32  F00C         	goto	u2140
  4067  001860                     u2141:
  4068  001860  EF57  F00C         	goto	l311
  4069  001864                     u2140:
  4070  001864                     
  4071                           ;hachiko_0.c: 363:         PORTBbits.RB7 = 1;
  4072  001864  8E81               	bsf	129,7,c	;volatile
  4073  001866                     
  4074                           ;hachiko_0.c: 364:         if(sentido == 'f'){
  4075  001866  0E66               	movlw	102
  4076  001868  1808               	xorwf	moverMotor@sentido^0,w,c
  4077  00186A  A4D8               	btfss	status,2,c
  4078  00186C  EF3A  F00C         	goto	u2151
  4079  001870  EF3C  F00C         	goto	u2150
  4080  001874                     u2151:
  4081  001874  EF46  F00C         	goto	l1802
  4082  001878                     u2150:
  4083  001878                     
  4084                           ;hachiko_0.c: 365:             PDC0L = velocidade & 0b11111111;
  4085  001878  C009  FF79         	movff	moverMotor@velocidade,3961	;volatile
  4086  00187C                     
  4087                           ;hachiko_0.c: 366:             PDC0H = (velocidade >> 8) & 0b11111111;
  4088  00187C  500A               	movf	(moverMotor@velocidade+1)^0,w,c
  4089  00187E  6E78               	movwf	120,c	;volatile
  4090                           
  4091                           ;hachiko_0.c: 367:             PDC3L = 0;
  4092  001880  0E00               	movlw	0
  4093  001882  6E73               	movwf	115,c	;volatile
  4094                           
  4095                           ;hachiko_0.c: 368:             PDC3H = 0;
  4096  001884  0E00               	movlw	0
  4097  001886  6E72               	movwf	114,c	;volatile
  4098                           
  4099                           ;hachiko_0.c: 369:         }
  4100  001888  EF57  F00C         	goto	l311
  4101  00188C                     l1802:
  4102  00188C  0E74               	movlw	116
  4103  00188E  1808               	xorwf	moverMotor@sentido^0,w,c
  4104  001890  A4D8               	btfss	status,2,c
  4105  001892  EF4D  F00C         	goto	u2161
  4106  001896  EF4F  F00C         	goto	u2160
  4107  00189A                     u2161:
  4108  00189A  EF57  F00C         	goto	l311
  4109  00189E                     u2160:
  4110  00189E                     
  4111                           ;hachiko_0.c: 371:             PDC3L = velocidade & 0b11111111;
  4112  00189E  C009  FF73         	movff	moverMotor@velocidade,3955	;volatile
  4113  0018A2                     
  4114                           ;hachiko_0.c: 372:             PDC3H = (velocidade >> 8) & 0b11111111;
  4115  0018A2  500A               	movf	(moverMotor@velocidade+1)^0,w,c
  4116  0018A4  6E72               	movwf	114,c	;volatile
  4117                           
  4118                           ;hachiko_0.c: 373:             PDC0L = 0;
  4119  0018A6  0E00               	movlw	0
  4120  0018A8  6E79               	movwf	121,c	;volatile
  4121                           
  4122                           ;hachiko_0.c: 374:             PDC0H = 0;
  4123  0018AA  0E00               	movlw	0
  4124  0018AC  6E78               	movwf	120,c	;volatile
  4125  0018AE                     l311:
  4126  0018AE  0012               	return		;funcret
  4127  0018B0                     __end_of_moverMotor:
  4128                           	callstack 0
  4129                           
  4130 ;; *************** function ___wmul *****************
  4131 ;; Defined at:
  4132 ;;		line 15 in file "C:\Program Files\Microchip\xc8\v2.32\pic\sources\c99\common\Umul16.c"
  4133 ;; Parameters:    Size  Location     Type
  4134 ;;  multiplier      2    1[COMRAM] unsigned int 
  4135 ;;  multiplicand    2    3[COMRAM] unsigned int 
  4136 ;; Auto vars:     Size  Location     Type
  4137 ;;  product         2    5[COMRAM] unsigned int 
  4138 ;; Return value:  Size  Location     Type
  4139 ;;                  2    1[COMRAM] unsigned int 
  4140 ;; Registers used:
  4141 ;;		wreg, status,2, status,0, prodl, prodh
  4142 ;; Tracked objects:
  4143 ;;		On entry : 0/0
  4144 ;;		On exit  : 0/0
  4145 ;;		Unchanged: 0/0
  4146 ;; Data sizes:     COMRAM   BANK0   BANK1   BANK2
  4147 ;;      Params:         4       0       0       0
  4148 ;;      Locals:         2       0       0       0
  4149 ;;      Temps:          0       0       0       0
  4150 ;;      Totals:         6       0       0       0
  4151 ;;Total ram usage:        6 bytes
  4152 ;; Hardware stack levels used: 1
  4153 ;; Hardware stack levels required when called: 2
  4154 ;; This function calls:
  4155 ;;		Nothing
  4156 ;; This function is called by:
  4157 ;;		_moverMotor
  4158 ;; This function uses a non-reentrant model
  4159 ;;
  4160                           
  4161                           	psect	text14
  4162  00197A                     __ptext14:
  4163                           	callstack 0
  4164  00197A                     ___wmul:
  4165                           	callstack 26
  4166  00197A  5002               	movf	___wmul@multiplier^0,w,c
  4167  00197C  0204               	mulwf	___wmul@multiplicand^0,c
  4168  00197E  CFF3 F006          	movff	prodl,___wmul@product
  4169  001982  CFF4 F007          	movff	prodh,___wmul@product+1
  4170  001986  5002               	movf	___wmul@multiplier^0,w,c
  4171  001988  0205               	mulwf	(___wmul@multiplicand+1)^0,c
  4172  00198A  50F3               	movf	243,w,c
  4173  00198C  2607               	addwf	(___wmul@product+1)^0,f,c
  4174  00198E  5003               	movf	(___wmul@multiplier+1)^0,w,c
  4175  001990  0204               	mulwf	___wmul@multiplicand^0,c
  4176  001992  50F3               	movf	243,w,c
  4177  001994  2607               	addwf	(___wmul@product+1)^0,f,c
  4178  001996  C006  F002         	movff	___wmul@product,?___wmul
  4179  00199A  C007  F003         	movff	___wmul@product+1,?___wmul+1
  4180  00199E  0012               	return		;funcret
  4181  0019A0                     __end_of___wmul:
  4182                           	callstack 0
  4183                           
  4184 ;; *************** function _pararMotor *****************
  4185 ;; Defined at:
  4186 ;;		line 379 in file "hachiko_0.c"
  4187 ;; Parameters:    Size  Location     Type
  4188 ;;		None
  4189 ;; Auto vars:     Size  Location     Type
  4190 ;;		None
  4191 ;; Return value:  Size  Location     Type
  4192 ;;                  1    wreg      void 
  4193 ;; Registers used:
  4194 ;;		wreg, status,2
  4195 ;; Tracked objects:
  4196 ;;		On entry : 0/0
  4197 ;;		On exit  : 0/0
  4198 ;;		Unchanged: 0/0
  4199 ;; Data sizes:     COMRAM   BANK0   BANK1   BANK2
  4200 ;;      Params:         0       0       0       0
  4201 ;;      Locals:         0       0       0       0
  4202 ;;      Temps:          0       0       0       0
  4203 ;;      Totals:         0       0       0       0
  4204 ;;Total ram usage:        0 bytes
  4205 ;; Hardware stack levels used: 1
  4206 ;; Hardware stack levels required when called: 2
  4207 ;; This function calls:
  4208 ;;		Nothing
  4209 ;; This function is called by:
  4210 ;;		_main
  4211 ;;		_linha
  4212 ;;		_testarLinha
  4213 ;;		_estrela
  4214 ;;		_testarMotor
  4215 ;; This function uses a non-reentrant model
  4216 ;;
  4217                           
  4218                           	psect	text15
  4219  0019A0                     __ptext15:
  4220                           	callstack 0
  4221  0019A0                     _pararMotor:
  4222                           	callstack 27
  4223  0019A0                     
  4224                           ;hachiko_0.c: 380:     PDC0H = 0x00;
  4225  0019A0  0E00               	movlw	0
  4226  0019A2  6E78               	movwf	120,c	;volatile
  4227                           
  4228                           ;hachiko_0.c: 381:     PDC0L = 0x00;
  4229  0019A4  0E00               	movlw	0
  4230  0019A6  6E79               	movwf	121,c	;volatile
  4231                           
  4232                           ;hachiko_0.c: 382:     PDC1H = 0x00;
  4233  0019A8  0E00               	movlw	0
  4234  0019AA  6E76               	movwf	118,c	;volatile
  4235                           
  4236                           ;hachiko_0.c: 383:     PDC1L = 0x00;
  4237  0019AC  0E00               	movlw	0
  4238  0019AE  6E77               	movwf	119,c	;volatile
  4239                           
  4240                           ;hachiko_0.c: 384:     PDC2H = 0x00;
  4241  0019B0  0E00               	movlw	0
  4242  0019B2  6E74               	movwf	116,c	;volatile
  4243                           
  4244                           ;hachiko_0.c: 385:     PDC2L = 0x00;
  4245  0019B4  0E00               	movlw	0
  4246  0019B6  6E75               	movwf	117,c	;volatile
  4247                           
  4248                           ;hachiko_0.c: 386:     PDC3H = 0x00;
  4249  0019B8  0E00               	movlw	0
  4250  0019BA  6E72               	movwf	114,c	;volatile
  4251                           
  4252                           ;hachiko_0.c: 387:     PDC3L = 0x00;
  4253  0019BC  0E00               	movlw	0
  4254  0019BE  6E73               	movwf	115,c	;volatile
  4255  0019C0  0012               	return		;funcret
  4256  0019C2                     __end_of_pararMotor:
  4257                           	callstack 0
  4258                           
  4259 ;; *************** function _ISR *****************
  4260 ;; Defined at:
  4261 ;;		line 42 in file "hachiko_0.c"
  4262 ;; Parameters:    Size  Location     Type
  4263 ;;		None
  4264 ;; Auto vars:     Size  Location     Type
  4265 ;;		None
  4266 ;; Return value:  Size  Location     Type
  4267 ;;                  1    wreg      void 
  4268 ;; Registers used:
  4269 ;;		wreg, status,2, status,0, cstack
  4270 ;; Tracked objects:
  4271 ;;		On entry : 0/0
  4272 ;;		On exit  : 0/0
  4273 ;;		Unchanged: 0/0
  4274 ;; Data sizes:     COMRAM   BANK0   BANK1   BANK2
  4275 ;;      Params:         0       0       0       0
  4276 ;;      Locals:         0       0       0       0
  4277 ;;      Temps:          0       0       0       0
  4278 ;;      Totals:         0       0       0       0
  4279 ;;Total ram usage:        0 bytes
  4280 ;; Hardware stack levels used: 1
  4281 ;; Hardware stack levels required when called: 1
  4282 ;; This function calls:
  4283 ;;		_readUSART
  4284 ;;		i2_pararMotor
  4285 ;; This function is called by:
  4286 ;;		Interrupt level 2
  4287 ;; This function uses a non-reentrant model
  4288 ;;
  4289                           
  4290                           	psect	intcode
  4291  000008                     __pintcode:
  4292                           	callstack 0
  4293  000008                     _ISR:
  4294                           	callstack 25
  4295                           
  4296                           ;incstack = 0
  4297  000008  8220               	bsf	int$flags,1,c	;set compiler interrupt flag (level 2)
  4298  00000A                     
  4299                           ;hachiko_0.c: 43:     if(PIR1bits.RCIF){
  4300  00000A  AA9E               	btfss	158,5,c	;volatile
  4301  00000C  EF0A  F000         	goto	i2u76_41
  4302  000010  EF0C  F000         	goto	i2u76_40
  4303  000014                     i2u76_41:
  4304  000014  EFA7  F000         	goto	i2l200
  4305  000018                     i2u76_40:
  4306  000018                     
  4307                           ;hachiko_0.c: 44:         PIR1bits.RCIF = 0x00;
  4308  000018  9A9E               	bcf	158,5,c	;volatile
  4309                           
  4310                           ;hachiko_0.c: 45:         if(RCSTAbits.FERR || RCSTAbits.OERR){
  4311  00001A  B4AB               	btfsc	171,2,c	;volatile
  4312  00001C  EF12  F000         	goto	i2u77_41
  4313  000020  EF14  F000         	goto	i2u77_40
  4314  000024                     i2u77_41:
  4315  000024  EF1B  F000         	goto	i2l191
  4316  000028                     i2u77_40:
  4317  000028  A2AB               	btfss	171,1,c	;volatile
  4318  00002A  EF19  F000         	goto	i2u78_41
  4319  00002E  EF1B  F000         	goto	i2u78_40
  4320  000032                     i2u78_41:
  4321  000032  EF1D  F000         	goto	i2l1360
  4322  000036                     i2u78_40:
  4323  000036                     i2l191:
  4324                           
  4325                           ;hachiko_0.c: 46:             RCSTAbits.CREN = 0x00;
  4326  000036  98AB               	bcf	171,4,c	;volatile
  4327                           
  4328                           ;hachiko_0.c: 47:             RCSTAbits.CREN = 0x01;
  4329  000038  88AB               	bsf	171,4,c	;volatile
  4330  00003A                     i2l1360:
  4331                           
  4332                           ;hachiko_0.c: 50:         if(readUSART() == 'L') {
  4333  00003A  EC2A  F00D         	call	_readUSART	;wreg free
  4334  00003E  0A4C               	xorlw	76
  4335  000040  A4D8               	btfss	status,2,c
  4336  000042  EF25  F000         	goto	i2u79_41
  4337  000046  EF27  F000         	goto	i2u79_40
  4338  00004A                     i2u79_41:
  4339  00004A  EF2F  F000         	goto	i2l1366
  4340  00004E                     i2u79_40:
  4341  00004E                     
  4342                           ;hachiko_0.c: 51:             ini = 1;
  4343  00004E  0E00               	movlw	0
  4344  000050  6E17               	movwf	(_ini+1)^0,c
  4345  000052  0E01               	movlw	1
  4346  000054  6E16               	movwf	_ini^0,c
  4347  000056                     
  4348                           ;hachiko_0.c: 52:             acao = "linha";
  4349  000056  0E2D               	movlw	low STR_1
  4350  000058  6E1A               	movwf	_acao^0,c
  4351  00005A  0E03               	movlw	high STR_1
  4352  00005C  6E1B               	movwf	(_acao+1)^0,c
  4353  00005E                     i2l1366:
  4354                           
  4355                           ;hachiko_0.c: 55:         if(readUSART() == 'D') {
  4356  00005E  EC2A  F00D         	call	_readUSART	;wreg free
  4357  000062  0A44               	xorlw	68
  4358  000064  A4D8               	btfss	status,2,c
  4359  000066  EF37  F000         	goto	i2u80_41
  4360  00006A  EF39  F000         	goto	i2u80_40
  4361  00006E                     i2u80_41:
  4362  00006E  EF41  F000         	goto	i2l1372
  4363  000072                     i2u80_40:
  4364  000072                     
  4365                           ;hachiko_0.c: 56:             ini = 1;
  4366  000072  0E00               	movlw	0
  4367  000074  6E17               	movwf	(_ini+1)^0,c
  4368  000076  0E01               	movlw	1
  4369  000078  6E16               	movwf	_ini^0,c
  4370  00007A                     
  4371                           ;hachiko_0.c: 57:             acao = "distancia";
  4372  00007A  0E01               	movlw	low STR_2
  4373  00007C  6E1A               	movwf	_acao^0,c
  4374  00007E  0E03               	movlw	high STR_2
  4375  000080  6E1B               	movwf	(_acao+1)^0,c
  4376  000082                     i2l1372:
  4377                           
  4378                           ;hachiko_0.c: 60:         if(readUSART() == 'T') {
  4379  000082  EC2A  F00D         	call	_readUSART	;wreg free
  4380  000086  0A54               	xorlw	84
  4381  000088  A4D8               	btfss	status,2,c
  4382  00008A  EF49  F000         	goto	i2u81_41
  4383  00008E  EF4B  F000         	goto	i2u81_40
  4384  000092                     i2u81_41:
  4385  000092  EF53  F000         	goto	i2l1378
  4386  000096                     i2u81_40:
  4387  000096                     
  4388                           ;hachiko_0.c: 61:             ini = 1;
  4389  000096  0E00               	movlw	0
  4390  000098  6E17               	movwf	(_ini+1)^0,c
  4391  00009A  0E01               	movlw	1
  4392  00009C  6E16               	movwf	_ini^0,c
  4393  00009E                     
  4394                           ;hachiko_0.c: 62:             acao = "toquinho";
  4395  00009E  0E14               	movlw	low STR_3
  4396  0000A0  6E1A               	movwf	_acao^0,c
  4397  0000A2  0E03               	movlw	high STR_3
  4398  0000A4  6E1B               	movwf	(_acao+1)^0,c
  4399  0000A6                     i2l1378:
  4400                           
  4401                           ;hachiko_0.c: 65:         if(readUSART() == 'A') {
  4402  0000A6  EC2A  F00D         	call	_readUSART	;wreg free
  4403  0000AA  0A41               	xorlw	65
  4404  0000AC  A4D8               	btfss	status,2,c
  4405  0000AE  EF5B  F000         	goto	i2u82_41
  4406  0000B2  EF5D  F000         	goto	i2u82_40
  4407  0000B6                     i2u82_41:
  4408  0000B6  EF65  F000         	goto	i2l1384
  4409  0000BA                     i2u82_40:
  4410  0000BA                     
  4411                           ;hachiko_0.c: 66:             ini = 1;
  4412  0000BA  0E00               	movlw	0
  4413  0000BC  6E17               	movwf	(_ini+1)^0,c
  4414  0000BE  0E01               	movlw	1
  4415  0000C0  6E16               	movwf	_ini^0,c
  4416  0000C2                     
  4417                           ;hachiko_0.c: 67:             acao = "arco";
  4418  0000C2  0E39               	movlw	low STR_4
  4419  0000C4  6E1A               	movwf	_acao^0,c
  4420  0000C6  0E03               	movlw	high STR_4
  4421  0000C8  6E1B               	movwf	(_acao+1)^0,c
  4422  0000CA                     i2l1384:
  4423                           
  4424                           ;hachiko_0.c: 69:         if(readUSART() == 'F') {
  4425  0000CA  EC2A  F00D         	call	_readUSART	;wreg free
  4426  0000CE  0A46               	xorlw	70
  4427  0000D0  A4D8               	btfss	status,2,c
  4428  0000D2  EF6D  F000         	goto	i2u83_41
  4429  0000D6  EF6F  F000         	goto	i2u83_40
  4430  0000DA                     i2u83_41:
  4431  0000DA  EF77  F000         	goto	i2l1390
  4432  0000DE                     i2u83_40:
  4433  0000DE                     
  4434                           ;hachiko_0.c: 70:             ini = 1;
  4435  0000DE  0E00               	movlw	0
  4436  0000E0  6E17               	movwf	(_ini+1)^0,c
  4437  0000E2  0E01               	movlw	1
  4438  0000E4  6E16               	movwf	_ini^0,c
  4439  0000E6                     
  4440                           ;hachiko_0.c: 71:             acao = "fEstrela";
  4441  0000E6  0E0B               	movlw	low STR_5
  4442  0000E8  6E1A               	movwf	_acao^0,c
  4443  0000EA  0E03               	movlw	high STR_5
  4444  0000EC  6E1B               	movwf	(_acao+1)^0,c
  4445  0000EE                     i2l1390:
  4446                           
  4447                           ;hachiko_0.c: 74:         if(readUSART() == 'E') {
  4448  0000EE  EC2A  F00D         	call	_readUSART	;wreg free
  4449  0000F2  0A45               	xorlw	69
  4450  0000F4  A4D8               	btfss	status,2,c
  4451  0000F6  EF7F  F000         	goto	i2u84_41
  4452  0000FA  EF81  F000         	goto	i2u84_40
  4453  0000FE                     i2u84_41:
  4454  0000FE  EF89  F000         	goto	i2l1396
  4455  000102                     i2u84_40:
  4456  000102                     
  4457                           ;hachiko_0.c: 75:             ini = 1;
  4458  000102  0E00               	movlw	0
  4459  000104  6E17               	movwf	(_ini+1)^0,c
  4460  000106  0E01               	movlw	1
  4461  000108  6E16               	movwf	_ini^0,c
  4462  00010A                     
  4463                           ;hachiko_0.c: 76:             acao = "estrela";
  4464  00010A  0E1D               	movlw	low STR_6
  4465  00010C  6E1A               	movwf	_acao^0,c
  4466  00010E  0E03               	movlw	high STR_6
  4467  000110  6E1B               	movwf	(_acao+1)^0,c
  4468  000112                     i2l1396:
  4469                           
  4470                           ;hachiko_0.c: 79:         if(readUSART() == 'G') ini = 1;
  4471  000112  EC2A  F00D         	call	_readUSART	;wreg free
  4472  000116  0A47               	xorlw	71
  4473  000118  A4D8               	btfss	status,2,c
  4474  00011A  EF91  F000         	goto	i2u85_41
  4475  00011E  EF93  F000         	goto	i2u85_40
  4476  000122                     i2u85_41:
  4477  000122  EF97  F000         	goto	i2l1400
  4478  000126                     i2u85_40:
  4479  000126  0E00               	movlw	0
  4480  000128  6E17               	movwf	(_ini+1)^0,c
  4481  00012A  0E01               	movlw	1
  4482  00012C  6E16               	movwf	_ini^0,c
  4483  00012E                     i2l1400:
  4484                           
  4485                           ;hachiko_0.c: 81:         if(readUSART() == 'P'){
  4486  00012E  EC2A  F00D         	call	_readUSART	;wreg free
  4487  000132  0A50               	xorlw	80
  4488  000134  A4D8               	btfss	status,2,c
  4489  000136  EF9F  F000         	goto	i2u86_41
  4490  00013A  EFA1  F000         	goto	i2u86_40
  4491  00013E                     i2u86_41:
  4492  00013E  EFA7  F000         	goto	i2l200
  4493  000142                     i2u86_40:
  4494  000142                     
  4495                           ;hachiko_0.c: 82:             pararMotor();
  4496  000142  ECE1  F00C         	call	i2_pararMotor	;wreg free
  4497  000146                     
  4498                           ;hachiko_0.c: 83:             acao = "parar";
  4499  000146  0E33               	movlw	low STR_7
  4500  000148  6E1A               	movwf	_acao^0,c
  4501  00014A  0E03               	movlw	high STR_7
  4502  00014C  6E1B               	movwf	(_acao+1)^0,c
  4503  00014E                     i2l200:
  4504  00014E  9220               	bcf	int$flags,1,c	;clear compiler interrupt flag (level 2)
  4505  000150  0011               	retfie		f
  4506  000152                     __end_of_ISR:
  4507                           	callstack 0
  4508                           
  4509 ;; *************** function i2_pararMotor *****************
  4510 ;; Defined at:
  4511 ;;		line 379 in file "hachiko_0.c"
  4512 ;; Parameters:    Size  Location     Type
  4513 ;;		None
  4514 ;; Auto vars:     Size  Location     Type
  4515 ;;		None
  4516 ;; Return value:  Size  Location     Type
  4517 ;;                  1    wreg      void 
  4518 ;; Registers used:
  4519 ;;		wreg, status,2
  4520 ;; Tracked objects:
  4521 ;;		On entry : 0/0
  4522 ;;		On exit  : 0/0
  4523 ;;		Unchanged: 0/0
  4524 ;; Data sizes:     COMRAM   BANK0   BANK1   BANK2
  4525 ;;      Params:         0       0       0       0
  4526 ;;      Locals:         0       0       0       0
  4527 ;;      Temps:          0       0       0       0
  4528 ;;      Totals:         0       0       0       0
  4529 ;;Total ram usage:        0 bytes
  4530 ;; Hardware stack levels used: 1
  4531 ;; This function calls:
  4532 ;;		Nothing
  4533 ;; This function is called by:
  4534 ;;		_ISR
  4535 ;; This function uses a non-reentrant model
  4536 ;;
  4537                           
  4538                           	psect	text17
  4539  0019C2                     __ptext17:
  4540                           	callstack 0
  4541  0019C2                     i2_pararMotor:
  4542                           	callstack 25
  4543  0019C2                     
  4544                           ;hachiko_0.c: 380:     PDC0H = 0x00;
  4545  0019C2  0E00               	movlw	0
  4546  0019C4  6E78               	movwf	120,c	;volatile
  4547                           
  4548                           ;hachiko_0.c: 381:     PDC0L = 0x00;
  4549  0019C6  0E00               	movlw	0
  4550  0019C8  6E79               	movwf	121,c	;volatile
  4551                           
  4552                           ;hachiko_0.c: 382:     PDC1H = 0x00;
  4553  0019CA  0E00               	movlw	0
  4554  0019CC  6E76               	movwf	118,c	;volatile
  4555                           
  4556                           ;hachiko_0.c: 383:     PDC1L = 0x00;
  4557  0019CE  0E00               	movlw	0
  4558  0019D0  6E77               	movwf	119,c	;volatile
  4559                           
  4560                           ;hachiko_0.c: 384:     PDC2H = 0x00;
  4561  0019D2  0E00               	movlw	0
  4562  0019D4  6E74               	movwf	116,c	;volatile
  4563                           
  4564                           ;hachiko_0.c: 385:     PDC2L = 0x00;
  4565  0019D6  0E00               	movlw	0
  4566  0019D8  6E75               	movwf	117,c	;volatile
  4567                           
  4568                           ;hachiko_0.c: 386:     PDC3H = 0x00;
  4569  0019DA  0E00               	movlw	0
  4570  0019DC  6E72               	movwf	114,c	;volatile
  4571                           
  4572                           ;hachiko_0.c: 387:     PDC3L = 0x00;
  4573  0019DE  0E00               	movlw	0
  4574  0019E0  6E73               	movwf	115,c	;volatile
  4575  0019E2  0012               	return		;funcret
  4576  0019E4                     __end_ofi2_pararMotor:
  4577                           	callstack 0
  4578                           
  4579 ;; *************** function _readUSART *****************
  4580 ;; Defined at:
  4581 ;;		line 44 in file "./bt.h"
  4582 ;; Parameters:    Size  Location     Type
  4583 ;;		None
  4584 ;; Auto vars:     Size  Location     Type
  4585 ;;  ler             1    0[COMRAM] unsigned char 
  4586 ;; Return value:  Size  Location     Type
  4587 ;;                  1    wreg      unsigned char 
  4588 ;; Registers used:
  4589 ;;		wreg, status,2
  4590 ;; Tracked objects:
  4591 ;;		On entry : 0/0
  4592 ;;		On exit  : 0/0
  4593 ;;		Unchanged: 0/0
  4594 ;; Data sizes:     COMRAM   BANK0   BANK1   BANK2
  4595 ;;      Params:         0       0       0       0
  4596 ;;      Locals:         1       0       0       0
  4597 ;;      Temps:          0       0       0       0
  4598 ;;      Totals:         1       0       0       0
  4599 ;;Total ram usage:        1 bytes
  4600 ;; Hardware stack levels used: 1
  4601 ;; This function calls:
  4602 ;;		Nothing
  4603 ;; This function is called by:
  4604 ;;		_ISR
  4605 ;; This function uses a non-reentrant model
  4606 ;;
  4607                           
  4608                           	psect	text18
  4609  001A54                     __ptext18:
  4610                           	callstack 0
  4611  001A54                     _readUSART:
  4612                           	callstack 25
  4613  001A54                     
  4614                           ;./bt.h: 45:     char ler = RCREG;
  4615  001A54  CFAE F001          	movff	4014,readUSART@ler	;volatile
  4616  001A58                     
  4617                           ;./bt.h: 46:     return ler;
  4618  001A58  5001               	movf	readUSART@ler^0,w,c
  4619  001A5A  0012               	return		;funcret
  4620  001A5C                     __end_of_readUSART:
  4621                           	callstack 0
  4622                           
  4623                           	psect	rparam
  4624  0000                     
  4625                           	psect	temp
  4626  000020                     btemp:
  4627                           	callstack 0
  4628  000020                     	ds	1
  4629  0000                     int$flags	set	btemp
  4630  0000                     wtemp8	set	btemp+1
  4631  0000                     ttemp5	set	btemp+1
  4632  0000                     ttemp6	set	btemp+4
  4633  0000                     ttemp7	set	btemp+8
  4634                           
  4635                           	psect	idloc
  4636                           
  4637                           ;Config register IDLOC0 @ 0x200000
  4638                           ;	unspecified, using default values
  4639  200000                     	org	2097152
  4640  200000  FF                 	db	255
  4641                           
  4642                           ;Config register IDLOC1 @ 0x200001
  4643                           ;	unspecified, using default values
  4644  200001                     	org	2097153
  4645  200001  FF                 	db	255
  4646                           
  4647                           ;Config register IDLOC2 @ 0x200002
  4648                           ;	unspecified, using default values
  4649  200002                     	org	2097154
  4650  200002  FF                 	db	255
  4651                           
  4652                           ;Config register IDLOC3 @ 0x200003
  4653                           ;	unspecified, using default values
  4654  200003                     	org	2097155
  4655  200003  FF                 	db	255
  4656                           
  4657                           ;Config register IDLOC4 @ 0x200004
  4658                           ;	unspecified, using default values
  4659  200004                     	org	2097156
  4660  200004  FF                 	db	255
  4661                           
  4662                           ;Config register IDLOC5 @ 0x200005
  4663                           ;	unspecified, using default values
  4664  200005                     	org	2097157
  4665  200005  FF                 	db	255
  4666                           
  4667                           ;Config register IDLOC6 @ 0x200006
  4668                           ;	unspecified, using default values
  4669  200006                     	org	2097158
  4670  200006  FF                 	db	255
  4671                           
  4672                           ;Config register IDLOC7 @ 0x200007
  4673                           ;	unspecified, using default values
  4674  200007                     	org	2097159
  4675  200007  FF                 	db	255
  4676                           
  4677                           	psect	config
  4678                           
  4679                           ; Padding undefined space
  4680  300000                     	org	3145728
  4681  300000  FF                 	db	255
  4682                           
  4683                           ;Config register CONFIG1H @ 0x300001
  4684                           ;	Oscillator Selection bits
  4685                           ;	OSC = HS, HS oscillator
  4686                           ;	Fail-Safe Clock Monitor Enable bit
  4687                           ;	FCMEN = ON, Fail-Safe Clock Monitor enabled
  4688                           ;	Internal External Oscillator Switchover bit
  4689                           ;	IESO = ON, Internal External Switchover mode enabled
  4690  300001                     	org	3145729
  4691  300001  C2                 	db	194
  4692                           
  4693                           ;Config register CONFIG2L @ 0x300002
  4694                           ;	Power-up Timer Enable bit
  4695                           ;	PWRTEN = OFF, PWRT disabled
  4696                           ;	Brown-out Reset Enable bits
  4697                           ;	BOREN = OFF, Brown-out Reset disabled
  4698                           ;	Brown Out Reset Voltage bits
  4699                           ;	BORV = 0x3, unprogrammed default
  4700  300002                     	org	3145730
  4701  300002  0D                 	db	13
  4702                           
  4703                           ;Config register CONFIG2H @ 0x300003
  4704                           ;	Watchdog Timer Enable bit
  4705                           ;	WDTEN = OFF, WDT disabled (control is placed on the SWDTEN bit)
  4706                           ;	Watchdog Timer Postscale Select bits
  4707                           ;	WDPS = 32768, 1:32768
  4708                           ;	Watchdog Timer Window Enable bit
  4709                           ;	WINEN = OFF, WDT window disabled
  4710  300003                     	org	3145731
  4711  300003  3E                 	db	62
  4712                           
  4713                           ;Config register CONFIG3L @ 0x300004
  4714                           ;	PWM output pins Reset state control
  4715                           ;	PWMPIN = OFF, PWM outputs disabled upon Reset (default)
  4716                           ;	Low-Side Transistors Polarity
  4717                           ;	LPOL = HIGH, PWM0, 2, 4 and 6 are active-high
  4718                           ;	High-Side Transistors Polarity
  4719                           ;	HPOL = HIGH, PWM1, 3, 5 and 7 are active-high
  4720                           ;	Timer1 Oscillator MUX
  4721                           ;	T1OSCMX = ON, Low-power Timer1 operation when microcontroller is in Sleep mode
  4722  300004                     	org	3145732
  4723  300004  3C                 	db	60
  4724                           
  4725                           ;Config register CONFIG3H @ 0x300005
  4726                           ;	FLTA MUX bit
  4727                           ;	FLTAMX = RC1, FLTA input is multiplexed with RC1
  4728                           ;	SSP I/O MUX bit
  4729                           ;	SSPMX = RC7, SCK/SCL clocks and SDA/SDI data are multiplexed with RC5 and RC4, respect
      +                          ively. SDO output is multiplexed with RC7.
  4730                           ;	PWM4 MUX bit
  4731                           ;	PWM4MX = RB5, PWM4 output is multiplexed with RB5
  4732                           ;	TMR0/T5CKI External clock MUX bit
  4733                           ;	EXCLKMX = RC3, TMR0/T5CKI external clock input is multiplexed with RC3
  4734                           ;	MCLR Pin Enable bit
  4735                           ;	MCLRE = OFF, Disabled
  4736  300005                     	org	3145733
  4737  300005  1D                 	db	29
  4738                           
  4739                           ;Config register CONFIG4L @ 0x300006
  4740                           ;	Stack Full/Underflow Reset Enable bit
  4741                           ;	STVREN = ON, Stack full/underflow will cause Reset
  4742                           ;	Low-Voltage ICSP Enable bit
  4743                           ;	LVP = OFF, Low-voltage ICSP disabled
  4744                           ;	Background Debugger Enable bit
  4745                           ;	DEBUG = 0x1, unprogrammed default
  4746  300006                     	org	3145734
  4747  300006  81                 	db	129
  4748                           
  4749                           ; Padding undefined space
  4750  300007                     	org	3145735
  4751  300007  FF                 	db	255
  4752                           
  4753                           ;Config register CONFIG5L @ 0x300008
  4754                           ;	Code Protection bit
  4755                           ;	CP0 = OFF, Block 0 (000200-000FFFh) not code-protected
  4756                           ;	Code Protection bit
  4757                           ;	CP1 = OFF, Block 1 (001000-001FFF) not code-protected
  4758                           ;	Code Protection bit
  4759                           ;	CP2 = OFF, Block 2 (002000-002FFFh) not code-protected
  4760                           ;	Code Protection bit
  4761                           ;	CP3 = OFF, Block 3 (003000-003FFFh) not code-protected
  4762  300008                     	org	3145736
  4763  300008  0F                 	db	15
  4764                           
  4765                           ;Config register CONFIG5H @ 0x300009
  4766                           ;	Boot Block Code Protection bit
  4767                           ;	CPB = OFF, Boot Block (000000-0001FFh) not code-protected
  4768                           ;	Data EEPROM Code Protection bit
  4769                           ;	CPD = OFF, Data EEPROM not code-protected
  4770  300009                     	org	3145737
  4771  300009  C0                 	db	192
  4772                           
  4773                           ;Config register CONFIG6L @ 0x30000A
  4774                           ;	Write Protection bit
  4775                           ;	WRT0 = OFF, Block 0 (000200-000FFFh) not write-protected
  4776                           ;	Write Protection bit
  4777                           ;	WRT1 = OFF, Block 1 (001000-001FFF) not write-protected
  4778                           ;	Write Protection bit
  4779                           ;	WRT2 = OFF, Block 2 (002000-002FFFh) not write-protected
  4780                           ;	Write Protection bit
  4781                           ;	WRT3 = OFF, Block 3 (003000-003FFFh) not write-protected
  4782  30000A                     	org	3145738
  4783  30000A  0F                 	db	15
  4784                           
  4785                           ;Config register CONFIG6H @ 0x30000B
  4786                           ;	Configuration Register Write Protection bit
  4787                           ;	WRTC = OFF, Configuration registers (300000-3000FFh) not write-protected
  4788                           ;	Boot Block Write Protection bit
  4789                           ;	WRTB = OFF, Boot Block (000000-0001FFh) not write-protected
  4790                           ;	Data EEPROM Write Protection bit
  4791                           ;	WRTD = OFF, Data EEPROM not write-protected
  4792  30000B                     	org	3145739
  4793  30000B  E0                 	db	224
  4794                           
  4795                           ;Config register CONFIG7L @ 0x30000C
  4796                           ;	Table Read Protection bit
  4797                           ;	EBTR0 = OFF, Block 0 (000200-000FFFh) not protected from table reads executed in other
      +                           blocks
  4798                           ;	Table Read Protection bit
  4799                           ;	EBTR1 = OFF, Block 1 (001000-001FFF) not protected from table reads executed in other 
      +                          blocks
  4800                           ;	Table Read Protection bit
  4801                           ;	EBTR2 = OFF, Block 2 (002000-002FFFh) not protected from table reads executed in other
      +                           blocks
  4802                           ;	Table Read Protection bit
  4803                           ;	EBTR3 = OFF, Block 3 (003000-003FFFh) not protected from table reads executed in other
      +                           blocks
  4804  30000C                     	org	3145740
  4805  30000C  0F                 	db	15
  4806                           
  4807                           ;Config register CONFIG7H @ 0x30000D
  4808                           ;	Boot Block Table Read Protection bit
  4809                           ;	EBTRB = OFF, Boot Block (000000-0001FFh) not protected from table reads executed in ot
      +                          her blocks
  4810  30000D                     	org	3145741
  4811  30000D  40                 	db	64
  4812                           tosu	equ	0xFFF
  4813                           tosh	equ	0xFFE
  4814                           tosl	equ	0xFFD
  4815                           stkptr	equ	0xFFC
  4816                           pclatu	equ	0xFFB
  4817                           pclath	equ	0xFFA
  4818                           pcl	equ	0xFF9
  4819                           tblptru	equ	0xFF8
  4820                           tblptrh	equ	0xFF7
  4821                           tblptrl	equ	0xFF6
  4822                           tablat	equ	0xFF5
  4823                           prodh	equ	0xFF4
  4824                           prodl	equ	0xFF3
  4825                           indf0	equ	0xFEF
  4826                           postinc0	equ	0xFEE
  4827                           postdec0	equ	0xFED
  4828                           preinc0	equ	0xFEC
  4829                           plusw0	equ	0xFEB
  4830                           fsr0h	equ	0xFEA
  4831                           fsr0l	equ	0xFE9
  4832                           wreg	equ	0xFE8
  4833                           indf1	equ	0xFE7
  4834                           postinc1	equ	0xFE6
  4835                           postdec1	equ	0xFE5
  4836                           preinc1	equ	0xFE4
  4837                           plusw1	equ	0xFE3
  4838                           fsr1h	equ	0xFE2
  4839                           fsr1l	equ	0xFE1
  4840                           bsr	equ	0xFE0
  4841                           indf2	equ	0xFDF
  4842                           postinc2	equ	0xFDE
  4843                           postdec2	equ	0xFDD
  4844                           preinc2	equ	0xFDC
  4845                           plusw2	equ	0xFDB
  4846                           fsr2h	equ	0xFDA
  4847                           fsr2l	equ	0xFD9
  4848                           status	equ	0xFD8

Data Sizes:
    Strings     61
    Constant    0
    Data        2
    BSS         8
    Persistent  0
    Stack       0

Auto Spaces:
    Space          Size  Autos    Used
    COMRAM           94     21      31
    BANK0           160      0       0
    BANK1           256      0       0
    BANK2           256      0       0

Pointer List with Targets:

    acao	PTR unsigned char  size(2) Largest target is 10
		 -> NULL(NULL[0]), STR_7(CODE[6]), STR_6(CODE[8]), STR_5(CODE[9]), 
		 -> STR_4(CODE[5]), STR_3(CODE[9]), STR_2(CODE[10]), STR_1(CODE[6]), 

    stringUSART@frase	PTR unsigned char  size(2) Largest target is 8
		 -> STR_8(CODE[8]), 


Critical Paths under _main in COMRAM

    _main->_estrela
    _testarLinha->_moverMotor
    _linha->_moverMotor
    _estrela->_testarDistancia
    _testarDistancia->_moverMotor
    _moverMotor->___wmul

Critical Paths under _ISR in COMRAM

    _ISR->_readUSART

Critical Paths under _main in BANK0

    None.

Critical Paths under _ISR in BANK0

    None.

Critical Paths under _main in BANK1

    None.

Critical Paths under _ISR in BANK1

    None.

Critical Paths under _main in BANK2

    None.

Critical Paths under _ISR in BANK2

    None.

Call Graph Tables:

 ---------------------------------------------------------------------------------
 (Depth) Function   	        Calls       Base Space   Used Autos Params    Refs
 ---------------------------------------------------------------------------------
 (0) _main                                                 6     6      0   91072
                                             15 COMRAM     6     6      0
                            _estrela
                              _linha
                         _moverMotor
                         _pararMotor
                           _picUSART
                              _setBT
                              _setIO
                             _setPWM
                            _setTMR0
                            _setTMR1
                        _stringUSART
                    _testarDistancia
                        _testarLinha
 ---------------------------------------------------------------------------------
 (1) _testarLinha                                          4     4      0   15151
                                             11 COMRAM     2     2      0
                         _moverMotor
                         _pararMotor
 ---------------------------------------------------------------------------------
 (1) _stringUSART                                          6     4      2     166
                                              1 COMRAM     6     4      2
                           _testBuff
 ---------------------------------------------------------------------------------
 (1) _setTMR1                                              0     0      0       0
 ---------------------------------------------------------------------------------
 (1) _setTMR0                                              0     0      0       0
 ---------------------------------------------------------------------------------
 (1) _setPWM                                               0     0      0       0
 ---------------------------------------------------------------------------------
 (1) _setIO                                                0     0      0       0
 ---------------------------------------------------------------------------------
 (1) _setBT                                                0     0      0       0
 ---------------------------------------------------------------------------------
 (1) _picUSART                                             1     1      0      15
                                              1 COMRAM     1     1      0
                           _testBuff
 ---------------------------------------------------------------------------------
 (2) _testBuff                                             0     0      0       0
 ---------------------------------------------------------------------------------
 (1) _linha                                                4     4      0   15107
                                             11 COMRAM     2     2      0
                         _moverMotor
                         _pararMotor
 ---------------------------------------------------------------------------------
 (1) _estrela                                              2     2      0   30258
                                             13 COMRAM     2     2      0
                         _moverMotor
                         _pararMotor
                    _testarDistancia
 ---------------------------------------------------------------------------------
 (1) _testarDistancia                                      4     4      0   15328
                                             11 COMRAM     2     2      0
                         _moverMotor
 ---------------------------------------------------------------------------------
 (2) _moverMotor                                           4     1      3   14930
                                              7 COMRAM     4     1      3
                             ___wmul
 ---------------------------------------------------------------------------------
 (3) ___wmul                                               6     2      4     311
                                              1 COMRAM     6     2      4
 ---------------------------------------------------------------------------------
 (2) _pararMotor                                           0     0      0       0
 ---------------------------------------------------------------------------------
 Estimated maximum stack depth 3
 ---------------------------------------------------------------------------------
 (Depth) Function   	        Calls       Base Space   Used Autos Params    Refs
 ---------------------------------------------------------------------------------
 (5) _ISR                                                  0     0      0      15
                          _readUSART
                       i2_pararMotor
 ---------------------------------------------------------------------------------
 (6) i2_pararMotor                                         0     0      0       0
 ---------------------------------------------------------------------------------
 (6) _readUSART                                            1     1      0      15
                                              0 COMRAM     1     1      0
 ---------------------------------------------------------------------------------
 Estimated maximum stack depth 6
 ---------------------------------------------------------------------------------

 Call Graph Graphs:

 _main (ROOT)
   _estrela
     _moverMotor
       ___wmul
     _pararMotor
     _testarDistancia
       _moverMotor
   _linha
     _moverMotor
     _pararMotor
   _moverMotor
   _pararMotor
   _picUSART
     _testBuff
   _setBT
   _setIO
   _setPWM
   _setTMR0
   _setTMR1
   _stringUSART
     _testBuff
   _testarDistancia
   _testarLinha
     _moverMotor
     _pararMotor

 _ISR (ROOT)
   _readUSART
   i2_pararMotor

 Address spaces:
Name               Size   Autos  Total    Cost      Usage
BIGRAM             2FF      0       0      10        0.0%
EEDATA             100      0       0       0        0.0%
BITBANK2           100      0       0       8        0.0%
BANK2              100      0       0       9        0.0%
BITBANK1           100      0       0       6        0.0%
BANK1              100      0       0       7        0.0%
BITBANK0            A0      0       0       4        0.0%
BANK0               A0      0       0       5        0.0%
BITCOMRAM           5E      0       0       0        0.0%
COMRAM              5E     15      1F       1       33.0%
BITSFR               0      0       0     200        0.0%
SFR                  0      0       0     200        0.0%
STACK                0      0       0       2        0.0%
NULL                 0      0       0       0        0.0%
ABS                  0      0      1F       3        0.0%
DATA                 0      0      1F      11        0.0%
CODE                 0      0       0       0        0.0%


Microchip Technology PIC18 Macro Assembler V2.32 build 20210201212658 
Symbol Table                                                                                   Sat Nov 20 23:23:01 2021

                              u70 1A44                                u71 1A40  
             ___wmul@multiplicand 0004                               l133 19FC  
                             l221 042A                               l142 1A44  
                             l230 0598                               l222 044E  
                             l311 18AE                               l136 1A10  
                             l240 07BE                               l232 0606  
                             l321 10EE                               l314 19C0  
                             l170 1A2A                               l242 082C  
                             l234 0674                               l226 04BC  
                             l331 1314                               l323 115C  
                             l139 1A36                               l163 1978  
                             l171 1A34                               l251 093C  
                             l340 172C                               l148 1A24  
                             l260 0A74                               l236 06E2  
                             l228 052A                               l325 11CA  
                             l317 1012                               l157 190E  
                             l166 1A4E                               l350 148A  
                             l270 0C9A                               l262 0AE2  
                             l238 0750                               l327 1238  
                             l319 1080                               l335 13A6  
                             l343 17D2                               l167 1A52  
                             l280 0E02                               l272 0D08  
                             l264 0B50                               l248 0908  
                             l329 12A6                               l361 15B4  
                             l353 1534                               l362 168C  
                             l338 16E8                               l346 13EC  
                             l266 0BBE                               l258 0A06  
                             l363 15F8                               l348 1446  
                             l268 0C2C                               l349 1534  
                             l366 168C                               l286 0EC2  
                             l359 155A                               l369 199E  
                             _ISR 0008                               _PSA 007EAB  
                             _ini 0016                               wreg 000FE8  
                            ?_ISR 0001                              l2000 15D0  
                            l1200 1A0C                              l2010 164E  
                            l1210 1A20                              l1202 1A0E  
                            l2012 1652                              l2004 1606  
                            l1204 1A14                              l2100 05C2  
                            l2020 0340                              l2014 1664  
                            l2006 1614                              l1206 1A18  
                            l2110 0630                              l2102 05D0  
                            l2030 0358                              l2022 034C  
                            l2016 1676                              l2008 1638  
                            l1208 1A1C                              l1232 1946  
                            l2200 097C                              l2120 069E  
                            l2112 063E                              l2104 05DE  
                            l2040 0390                              l2032 035A  
                            l2024 0350                              l1082 1A36  
                            l1234 195A                              l2210 09D0  
                            l2202 0998                              l2130 070C  
                            l2122 06AC                              l2114 064C  
                            l2106 0614                              l2050 03E0  
                            l2042 03A8                              l2034 035C  
                            l2026 0354                              l1084 19A0  
                            l1236 1A46                              l2220 0A3E  
                            l2212 09DE                              l2204 09A6  
                            l2300 0DC0                              l2140 077A  
                            l2132 071A                              l2124 06BA  
                            l2116 0682                              l2108 0622  
                            l2060 041A                              l2052 03E4  
                            l2044 03AC                              l2036 036E  
                            l2028 0356                              l1190 1A02  
                            l1182 19E4                              l1238 1A26  
                            l2302 0DC8                              l2230 0AAC  
                            l2222 0A4C                              l2214 0A14  
                            l2206 09B4                              l2310 0DF2  
                            l2150 07E8                              l2142 0788  
                            l2134 0728                              l2126 06F0  
                            l2118 0690                              l2070 0478  
                            l2062 0438                              l2054 03FC  
                            l2046 03C4                              l2038 037A  
                            l1192 1A04                              l1184 19E6  
                            l2320 0E3C                              l2304 0DCA  
                            l2240 0B1A                              l2232 0ABA  
                            l2224 0A82                              l2216 0A22  
                            l2208 09C2                              l2312 0E04  
                            l2160 0856                              l2152 07F6  
                            l2144 0796                              l2136 075E  
                            l2128 06FE                              l2080 04E6  
                            l2072 0486                              l2064 0446  
                            l2056 0400                              l2048 03C8  
                            l1194 1A06                              l1186 19EA  
                            l2330 0EA2                              l2322 0E54  
                            l2314 0E1C                              l2250 0B88  
                            l2242 0B28                              l2234 0AF0  
                            l2226 0A90                              l2218 0A30  
                            l2306 0DD2                              l2170 08CC  
                            l2162 0864                              l2154 0804  
                            l2146 07CC                              l2138 076C  
                            l2090 0554                              l2082 04F4  
                            l2074 0494                              l2066 045C  
                            l2058 0418                              l1196 1A08  
                            l1188 19FE                              l2340 0EEC  
                            l2332 0EA6                              l2324 0E66  
                            l2316 0E20                              l2308 0DEA  
                            l2260 0BF6                              l2252 0B96  
                            l2244 0B5E                              l2236 0AFE  
                            l2228 0A9E                              l2172 08CE  
                            l2164 0872                              l2156 083A  
                            l2148 07DA                              l2092 0562  
                            l2084 0502                              l2076 04CA  
                            l2068 046A                              l2180 08F8  
                            l1198 1A0A                              l2350 0F3A  
                            l2342 0EFA                              l2334 0EBE  
                            l2326 0E8A                              l2318 0E38  
                            l2270 0C64                              l2262 0C04  
                            l2254 0BCC                              l2246 0B6C  
                            l2238 0B0C                              l2190 094C  
                            l2174 08D6                              l2158 0848  
                            l2166 089A                              l2094 0570  
                            l2086 0538                              l2078 04D8  
                            l2182 090A                              l1800 187C  
                            l2360 0F78                              l2352 0F40  
                            l2344 0F10                              l2336 0ED0  
                            l2328 0E9A                              l2280 0CD2  
                            l2272 0C72                              l2264 0C3A  
                            l2256 0BDA                              l2248 0B7A  
                            l2192 0954                              l2184 0922  
                            l2176 08D8                              l2096 05A6  
                            l2088 0546                              l2168 08BE  
                            l1802 188C                              l1810 0FA4  
                            l2362 0F8E                              l2354 0F4E  
                            l2346 0F16                              l2338 0EE6  
                            l2290 0D40                              l2282 0CE0  
                            l2274 0CA8                              l2266 0C48  
                            l2258 0BE8                              l2194 0958  
                            l2186 0924                              l2178 08F0  
                            l2098 05B4                              l1804 189E  
                            l1900 135A                              l1820 0FEA  
                            l1812 0FB2                              l2356 0F64  
                            l2348 0F24                              l2292 0D4E  
                            l2284 0D16                              l2276 0CB6  
                            l2268 0C56                              l2196 0966  
                            l2188 094A                              l1806 18A2  
                            l1902 1382                              l1830 1058  
                            l1822 1020                              l1814 0FC0  
                            l1910 18DA                              l2358 0F6A  
                            l2286 0D24                              l2294 0D76  
                            l2278 0CC4                              l2198 0974  
                            l1840 10C6                              l1832 108E  
                            l1824 102E                              l1816 0FCE  
                            l1808 0F9C                              l1912 18DE  
                            l1904 18B0                              l1920 13A8  
                            l2296 0D90                              l2288 0D32  
                            l1770 1996                              l1850 1134  
                            l1842 10FC                              l1834 109C  
                            l1826 103C                              l1818 0FDC  
                            l1914 1906                              l1906 18BC  
                            l1930 142C                              l1922 13B6  
                            l2298 0DB8                              l1780 1806  
                            l1860 11A2                              l1852 116A  
                            l1844 110A                              l1836 10AA  
                            l1828 104A                              l1916 190A  
                            l1908 18D6                              l1940 14A6  
                            l1932 1454                              l1924 13C4  
                            l1790 1846                              l1782 1818  
                            l1774 17D6                              l1870 1210  
                            l1862 11D8                              l1854 1178  
                            l1846 1118                              l1838 10B8  
                            l1950 1508                              l1942 14CA  
                            l1934 1462                              l1926 13FA  
                            l1918 13A8                              l1768 197A  
                            l1784 181C                              l1792 1852  
                            l1776 17F2                              l1880 127E  
                            l1872 1246                              l1864 11E6  
                            l1856 1186                              l1848 1126  
                            l1960 16AA                              l1952 151A  
                            l1944 14E0                              l1928 1408  
                            l1794 1864                              l1786 182C  
                            l1778 1804                              l1890 12EC  
                            l1882 12B4                              l1874 1254  
                            l1866 11F4                              l1858 1194  
                            l1970 173A                              l1962 16CE  
                            l1954 168E                              l1946 14E4  
                            l1938 1498                              l1796 1866  
                            l1788 183E                              l1892 1322  
                            l1884 12C2                              l1876 1262  
                            l1868 1202                              l1980 1798  
                            l1972 1748                              l1964 16F6  
                            l1956 168E                              l1948 14F6  
                            l1798 1878                              l1894 1330  
                            l1886 12D0                              l1878 1270  
                            l1990 1552                              l1982 17AA  
                            l1974 176C                              l1966 1704  
                            l1958 169C                              l1896 133E  
                            l1888 12DE                              l1992 1568  
                            l1984 17BC                              l1976 1782  
                            l1898 134C                              l1994 1576  
                            l1986 1536                              l1978 1786  
                            l1996 159A                              l1988 1544  
                            l1998 15C2                              STR_1 032D  
                            STR_2 0301                              STR_3 0314  
                            STR_4 0339                              STR_5 030B  
                            STR_6 031D                              STR_7 0333  
                            STR_8 0325                              STR_9 032D  
                            _RD16 007E6F                              _T0CS 007EAD  
                            u2110 1804                              u2111 1800  
                            u2120 1818                              u2200 0FDC  
                            u3000 04E6                              u2121 1814  
                            u2201 0FD8                              u3001 04E2  
                            u2130 183E                              u2210 0FEA  
                            u3010 04F4                              u2131 183A  
                            u2211 0FE6                              u3011 04F0  
                            u2140 1864                              u2300 10B8  
                            u2220 1020                              u3100 05C2  
                            u3020 0502                              u2141 1860  
                            u2301 10B4                              u2221 101C  
                            u3101 05BE                              u3021 04FE  
                            u2150 1878                              u2310 10C6  
                            u2230 102E                              u3110 05D0  
                            u3030 0538                              u2151 1874  
                            u2311 10C2                              u2231 102A  
                            u3111 05CC                              u3031 0534  
                            u2160 189E                              u2400 1194  
                            u2320 10FC                              u2240 103C  
                            u4000 0E38                              u3200 069E  
                            u3120 05DE                              u3040 0546  
                            u2161 189A                              u2401 1190  
                            u2321 10F8                              u2241 1038  
                            u4001 0E34                              u3201 069A  
                            u3121 05DA                              u3041 0542  
                            u2410 11A2                              u2330 110A  
                            u2250 104A                              u2170 0FB2  
                            u4010 0E54                              u3210 06AC  
                            u3130 0614                              u3050 0554  
                            u2411 119E                              u2331 1106  
                            u2251 1046                              u2171 0FAE  
                            u4011 0E50                              u3211 06A8  
                            u3131 0610                              u3051 0550  
                            u2500 1270                              u2420 11D8  
                            u2340 1118                              u2260 1058  
                            u2180 0FC0                              u4020 0E66  
                            u3300 077A                              u3220 06BA  
                            u3140 0622                              u3060 0562  
                            u2501 126C                              u2421 11D4  
                            u2341 1114                              u2261 1054  
                            u2181 0FBC                              u4021 0E62  
                            u3301 0776                              u3221 06B6  
                            u3141 061E                              u3061 055E  
                            u2510 127E                              u2430 11E6  
                            u2350 1126                              u2270 108E  
                            u2190 0FCE                              u4030 0EBE  
                            u3310 0788                              u3230 06F0  
                            u3150 0630                              u3070 0570  
                            u2511 127A                              u2431 11E2  
                            u2351 1122                              u2271 108A  
                            u2191 0FCA                              u4031 0EBA  
                            u3311 0784                              u3231 06EC  
                            u3151 062C                              u3071 056C  
                            u2600 134C                              u2520 12B4  
                            u2440 11F4                              u2360 1134  
                            u2280 109C                              u4040 0ED0  
                            u3400 0856                              u3320 0796  
                            u3240 06FE                              u3160 063E  
                            u3080 05A6                              u2601 1348  
                            u2521 12B0                              u2441 11F0  
                            u2361 1130                              u2281 1098  
                            u4041 0ECC                              u3401 0852  
                            u3321 0792                              u3241 06FA  
                            u3161 063A                              u3081 05A2  
                            u2610 135A                              u2530 12C2  
                            u2450 1202                              u2370 116A  
                            u2290 10AA                              u4050 0EFA  
                            u3410 0864                              u3330 07CC  
                            u3250 070C                              u3170 064C  
                            u3090 05B4                              u2611 1356  
                            u2531 12BE                              u2451 11FE  
                            u2371 1166                              u2291 10A6  
                            u4051 0EF6                              u4107 0E90  
                            u3411 0860                              u3331 07C8  
                            u3251 0708                              u3171 0648  
                            u3091 05B0                              u2540 12D0  
                            u2460 1210                              u2380 1178  
                            u2620 1906                              u2700 14A6  
                            u4060 0F24                              u3500 0998  
                            u3420 0872                              u3340 07DA  
                            u3260 071A                              u3180 0682  
                            u2541 12CC                              u2461 120C  
                            u2381 1174                              u2621 1902  
                            u2701 14A2                              u4061 0F20  
                            u4117 0EDA                              u3501 0994  
                            u3421 086E                              u3341 07D6  
                            u3261 0716                              u3181 067E  
                            u2550 12DE                              u2470 1246  
                            u2390 1186                              u2710 169C  
                            u2630 13B6                              u4070 0F4E  
                            u3510 09A6                              u3430 08CC  
                            u3350 07E8                              u3270 0728  
                            u3190 0690                              u2551 12DA  
                            u2471 1242                              u2391 1182  
                            u4207 16D8                              u2711 1698  
                            u2631 13B2                              u4071 0F4A  
                            u4127 0F04                              u3511 09A2  
                            u3431 08C8                              u3351 07E4  
                            u3271 0724                              u3191 068C  
                            u2560 12EC                              u2480 1254  
                            u2800 1576                              u2720 16AA  
                            u2640 13C4                              u4080 0F78  
                            u3600 0A4C                              u3520 09B4  
                            u3440 08F0                              u3360 07F6  
                            u3280 075E                              u2561 12E8  
                            u2481 1250                              u2801 1572  
                            u4217 1776                              u2721 16A6  
                            u2641 13C0                              u4081 0F74  
                            u4137 0F2E                              u3601 0A48  
                            u3521 09B0                              u3441 08EC  
                            u3361 07F2                              u3281 075A  
                            u2570 1322                              u2490 1262  
                            u2810 15C2                              u2730 16F6  
                            u2650 13FA                              u3610 0A82  
                            u3530 09C2                              u3450 0908  
                            u3370 0804                              u3290 076C  
                            u2571 131E                              u2491 125E  
                            u2811 15BE                              u4227 178C  
                            u2731 16F2                              u2651 13F6  
                            u4147 0F58                              u3611 0A7E  
                            u3531 09BE                              u3451 0904  
                            u3371 0800                              u3291 0768  
                            u2580 1330                              u2820 15D0  
                            u2740 1704                              u2660 1408  
                            u3700 0B28                              u3620 0A90  
                            u3540 09D0                              u3460 0922  
                            u3380 083A                              u2900 0418  
                            u2581 132C                              u2821 15CC  
                            u4237 17C6                              u2741 1700  
                            u2661 1404                              u4157 0F82  
                            u3701 0B24                              u3621 0A8C  
                            u3541 09CC                              u3461 091E  
                            u3381 0836                              u2901 0414  
                            u2590 133E                              u2830 1606  
                            u2750 173A                              u2670 1454  
                            u3710 0B5E                              u3630 0A9E  
                            u3550 09DE                              u3470 094A  
                            u3390 0848                              u2910 0438  
                            u2591 133A                              u2831 1602  
                            u4247 15A4                              u2751 1736  
                            u2671 1450                              u4167 1436  
                            u3711 0B5A                              u3631 0A9A  
                            u3551 09DA                              u3471 0946  
                            u3391 0844                              u2911 0434  
                            u2840 1614                              u2760 1748  
                            u2680 1462                              u3800 0C04  
                            u3720 0B6C                              u3640 0AAC  
                            u3560 0A14                              u3480 0966  
                            u2920 0446                              u4257 1642  
                            u2841 1610                              u2761 1744  
                            u4177 14D4                              u2681 145E  
                            u3801 0C00                              u3721 0B68  
                            u3641 0AA8                              u3561 0A10  
                            u3481 0962                              u2921 0442  
                            u4097 0384                              u2770 1544  
                            u2690 1498                              u3810 0C3A  
                            u3730 0B7A                              u3650 0ABA  
                            u3570 0A22                              u3490 0974  
                            u2930 045C                              u2850 036E  
                            u4267 1658                              u2771 1540  
                            u4187 14EA                              u2691 1494  
                            u3811 0C36                              u3731 0B76  
                            u3651 0AB6                              u3571 0A1E  
                            u3491 0970                              u2931 0458  
                            u2851 036A                              u2780 1552  
                            u3900 0CE0                              u3820 0C48  
                            u3740 0B88                              u3660 0AF0  
                            u3580 0A30                              u2940 046A  
                            u2860 03A8                              u2781 154E  
                            u4197 1524                              u3901 0CDC  
                            u3821 0C44                              u3741 0B84  
                            u3661 0AEC                              u3581 0A2C  
                            u2941 0466                              u2861 03A4  
                            u2790 1568                              u3910 0D16  
                            u3830 0C56                              u3750 0B96  
                            u3670 0AFE                              u3590 0A3E  
                            u2950 0478                              u2870 03C4  
                            u2791 1564                              u3911 0D12  
                            u3831 0C52                              u3751 0B92  
                            u3671 0AFA                              u3591 0A3A  
                            u2951 0474                              u2871 03C0  
                            u3920 0D24                              u3840 0C64  
                            u3760 0BCC                              u3680 0B0C  
                            u2960 0486                              u2880 03E0  
                            u3921 0D20                              u3841 0C60  
                            u3761 0BC8                              u3681 0B08  
                            u2961 0482                              u2881 03DC  
                            u3930 0D32                              u3850 0C72  
                            u3770 0BDA                              u3690 0B1A  
                            u2970 0494                              u2890 03FC  
                            u3931 0D2E                              u3851 0C6E  
                            u3771 0BD6                              u3691 0B16  
                            u2971 0490                              u2891 03F8  
                            u3940 0D40                              u3860 0CA8  
                            u3780 0BE8                              u2980 04CA  
                            u3941 0D3C                              u3861 0CA4  
                            u3781 0BE4                              u2981 04C6  
                            u3950 0D4E                              u3870 0CB6  
                            u3790 0BF6                              u2990 04D8  
                            u3951 0D4A                              u3871 0CB2  
                            u3791 0BF2                              u2991 04D4  
                            u3960 0D90                              u3880 0CC4  
                            u3961 0D8C                              u3881 0CC0  
                            u3970 0DEA                              u3890 0CD2  
                            u3971 0DE6                              u3891 0CCE  
                            u3980 0E02                              u3981 0DFE  
                            u3990 0E1C                              u3991 0E18  
                            _acao 001A                              _flag 001E  
                            _lado 001D                              _main 0340  
                            btemp 0020                              prodh 000FF4  
                            prodl 000FF3                              start 0152  
                     _stringUSART 18B0                      ___param_bank 000000  
                           ??_ISR 0002                             ?_main 0001  
                    main@cont_tmr 0012                             STR_10 0333  
                           STR_11 0301                             STR_20 0333  
                           STR_12 0333                             STR_13 0339  
                           STR_14 0333                             STR_15 0314  
                           STR_16 0333                             STR_17 031D  
                           STR_18 0333                             STR_19 030B  
                           _PDC0H 000F78                             _T0PS0 007EA8  
                           _PDC1H 000F76                             _DTCON 000F6D  
                           _PDC2H 000F74                             _PDC0L 000F79  
                           _PDC1L 000F77                             _PDC3H 000F72  
                           _PDC2L 000F75                             _PDC3L 000F73  
                           _T1RUN 007E6E                             i2l200 014E  
                           i2l151 1A5A                             i2l314 19E2  
                           i2l191 0036                             _RCREG 000FAE  
                           _TMR0H 000FD7                             _TMR1H 000FCF  
                           _TMR0L 000FD6                             _TMR1L 000FCE  
                           _SPBRG 000FAF                             _PORTB 000F81  
                           _PORTD 000F83                             _PTMRH 000F7C  
                           _PTMRL 000F7D                             _TRISA 000F92  
                           _TRISB 000F93                             _TRISC 000F94  
                           _TRISD 000F95                             _TRISE 000F96  
                           _TXREG 000FAD                             _linha 168E  
                           _setBT 19FE                             _setIO 19E4  
                 __end_of_estrela 168E                   __end_of_setTMR0 1A54  
                 __end_of_setTMR1 1A36                             tablat 000FF5  
                           ttemp5 0021                             ttemp6 0024  
                           ttemp7 0028                             status 000FD8  
                           wtemp8 0021                   __initialization 1910  
                    __end_of_main 0F9C                            ??_main 0010  
                   __activetblptr 000001                            ?_linha 0001  
                          ?_setBT 0001             __size_ofi2_pararMotor 0022  
                          ?_setIO 0001                            _ANSEL0 000FB8  
                          _ANSEL1 000FB9                            i2l1212 1A54  
                          i2l1214 1A58                            i2l1400 012E  
                          i2l1402 0142                            _T1SYNC 007E6A  
                          i2l1404 0146                            i2l1342 19C2  
                          i2l1360 003A                            i2l1370 007A  
                          i2l1362 004E                            i2l1354 000A  
                          i2l1380 00BA                            i2l1372 0082  
                          i2l1364 0056                            i2l1356 0018  
                          i2l1390 00EE                            i2l1382 00C2  
                          i2l1374 0096                            i2l1366 005E  
                          i2l1358 0028                            i2l1392 0102  
                          i2l1384 00CA                            i2l1376 009E  
                          i2l1368 0072                            i2l1394 010A  
                          i2l1386 00DE                            i2l1378 00A6  
                          i2l1396 0112                            i2l1388 00E6  
                          i2l1398 0126                            _PTCON0 000F7F  
                          _PTCON1 000F7E                            _TMR0IF 007F92  
                          _TMR1IF 007CF0                            _TMR1CS 007E69  
                          _TMR0ON 007EAF                            _TMR1ON 007E68  
                          _PTPERH 000F7A                            _PTPERL 000F7B  
                          ___wmul 197A                  __end_of_picUSART 1A26  
                          _setPWM 1946                            clear_0 192E  
                          isa$std 000001                  stringUSART@frase 0002  
                    i2_pararMotor 19C2                      __pdataCOMRAM 001E  
        __size_of_testarDistancia 040C                         ??_estrela 000E  
                       ??_setTMR0 0002                         ??_setTMR1 0002  
                __end_of_testBuff 1A46                      __mediumconst 0000  
                          tblptrh 000FF7                            tblptrl 000FF6  
                          tblptru 000FF8                      ?_testarLinha 0001  
                      __accesstop 0060           __end_of__initialization 1934  
                   ___rparam_used 000001                    __pcstackCOMRAM 0001  
                   __end_of_linha 17D4                     __end_of_setBT 1A12  
                   __end_of_setIO 19FE                           ??_linha 000C  
                         ??_setBT 0002                           ??_setIO 0002  
              __size_of_readUSART 0008                      readUSART@ler 0001  
                    ?_stringUSART 0002                           ?___wmul 0002  
                         _T016BIT 007EAE                           ?_setPWM 0001  
                         _T1CKPS0 007E6C                           _T1OSCEN 007E6B  
                         _OVDCOND 000F6B                           _OVDCONS 000F6A  
                         i2u80_40 0072                           i2u80_41 006E  
                         i2u81_40 0096                           i2u81_41 0092  
                         i2u82_40 00BA                           i2u82_41 00B6  
                         i2u83_40 00DE                           i2u83_41 00DA  
                         i2u84_40 0102                           i2u76_40 0018  
                         i2u84_41 00FE                           i2u76_41 0014  
                         i2u85_40 0126                           i2u77_40 0028  
                         i2u85_41 0122                           i2u77_41 0024  
                         i2u86_40 0142                           i2u78_40 0036  
                         i2u86_41 013E                           i2u78_41 0032  
                         i2u79_40 004E                           i2u79_41 004A  
                         _PWMCON0 000F6F                           _PWMCON1 000F6E  
               ??_testarDistancia 000C                         ?_picUSART 0001  
                    stringUSART@i 0006                           __Hparam 0000  
                         __Lparam 0000                         ?_testBuff 0001  
                 __size_of___wmul 0026                      __psmallconst 0300  
                         __pcinit 1910                           __ramtop 0300  
                 __size_of_setPWM 0034                           __ptext0 0340  
                         __ptext1 13A8                           __ptext2 18B0  
                         __ptext3 1A26                           __ptext4 1A46  
                         __ptext5 1946                           __ptext6 19E4  
                         __ptext7 19FE                           __ptext8 1A12  
                         __ptext9 1A36                 __end_of_readUSART 1A5C  
                      _pararMotor 19A0                      __size_of_ISR 014A  
                         _estrela 1536                           _setTMR0 1A46  
                         _setTMR1 1A26                           _sentido 001C  
                         main@aux 0015              end_of_initialization 1934  
                      ??_picUSART 0002              __size_of_testarLinha 018E  
                      _moverMotor 17D4                        ??_testBuff 0002  
                       _RCSTAbits 000FAB                           postinc0 000FEE  
                  moverMotor@lado 000B                         _PORTAbits 000F80  
                       _PORTBbits 000F81                         _PORTCbits 000F82  
                       _PORTDbits 000F83                        _velocidade 0018  
                       _TXSTAbits 000FAC              __size_of_stringUSART 0060  
                  __end_of___wmul 19A0                     __pidataCOMRAM 1A5C  
                     ?_pararMotor 0001                    __end_of_setPWM 197A  
             start_initialization 1910                       __end_of_ISR 0152  
                     ?_moverMotor 0008                          ??___wmul 0006  
                        ??_setPWM 0002                   _testarDistancia 0F9C  
                     __pbssCOMRAM 0016                 __size_of_picUSART 0014  
             __size_of_pararMotor 0022  testarDistancia@velTestParaFrente 000C  
                       __pintcode 0008                 __size_of_testBuff 0010  
                     __smallconst 0300                          ?_estrela 0001  
                        ?_setTMR0 0001                          ?_setTMR1 0001  
                       _readUSART 1A54               __size_of_moverMotor 00DC  
                  __size_of_linha 0146                    __size_of_setBT 0014  
                  __size_of_setIO 001A                    ___wmul@product 0006  
                        _PIE1bits 000F9D                          _PIR1bits 000F9E  
         __end_of_testarDistancia 13A8                 ___wmul@multiplier 0002  
                   ?i2_pararMotor 0001                        ?_readUSART 0001  
                   ??_testarLinha 000C                          __Hrparam 0000  
                        __Lrparam 0000                    picUSART@status 0002  
                    __Lsmallconst 0300                    ??i2_pararMotor 0001  
                    ??_pararMotor 0002                  __size_of_estrela 0158  
                __size_of_setTMR0 000E                  __size_of_setTMR1 0010  
                        __ptext10 168E                          __ptext11 1536  
                        __ptext12 0F9C                          __ptext13 17D4  
                        __ptext14 197A                          __ptext15 19A0  
                        __ptext17 19C2                          __ptext18 1A54  
                        _picUSART 1A12                     __size_of_main 0C5C  
             __end_of_testarLinha 1536                     ??_stringUSART 0004  
              __end_of_pararMotor 19C2                 moverMotor@sentido 0008  
                    ??_moverMotor 000B                          _testBuff 1A36  
                        isa$xinst 000000                          int$flags 0020  
                ?_testarDistancia 0001                          main@cont 0013  
                      _INTCONbits 000FF2                       ??_readUSART 0001  
              __end_of_moverMotor 18B0                          intlevel2 0000  
            moverMotor@velocidade 0009               __end_of_stringUSART 1910  
                     _testarLinha 13A8              __end_ofi2_pararMotor 19E4  
