

Microchip MPLAB XC8 Assembler V2.32 build 20210201212658 
                                                                                               Sat Nov 20 23:22:39 2021

Microchip MPLAB XC8 C Compiler v2.32 (Free license) build 20210201212658 Og1 
     1                           	processor	18F4431
     2                           	fnconf	rparam,??,?,0
     3                           	pagewidth 120
     4                           	opt	flic
     5                           	psect	idataCOMRAM,global,class=CODE,delta=1,noexec
     6                           	psect	smallconst,global,reloc=2,class=SMALLCONST,delta=1,noexec
     7                           	psect	cinit,global,reloc=2,class=CODE,delta=1
     8                           	psect	bssCOMRAM,global,class=COMRAM,space=1,delta=1,lowdata,noexec
     9                           	psect	dataCOMRAM,global,class=COMRAM,space=1,delta=1,lowdata,noexec
    10                           	psect	cstackCOMRAM,global,class=COMRAM,space=1,delta=1,lowdata,noexec
    11                           	psect	text0,global,reloc=2,class=CODE,delta=1
    12                           	psect	text1,global,reloc=2,class=CODE,delta=1
    13                           	psect	text2,global,reloc=2,class=CODE,delta=1
    14                           	psect	text3,global,reloc=2,class=CODE,delta=1
    15                           	psect	text4,global,reloc=2,class=CODE,delta=1
    16                           	psect	text5,global,reloc=2,class=CODE,delta=1
    17                           	psect	text6,global,reloc=2,class=CODE,delta=1
    18                           	psect	text7,global,reloc=2,class=CODE,delta=1
    19                           	psect	text8,global,reloc=2,class=CODE,delta=1
    20                           	psect	text9,global,reloc=2,class=CODE,delta=1
    21                           	psect	text10,global,reloc=2,class=CODE,delta=1
    22                           	psect	text11,global,reloc=2,class=CODE,delta=1
    23                           	psect	text12,global,reloc=2,class=CODE,delta=1
    24                           	psect	text13,global,reloc=2,class=CODE,delta=1
    25                           	psect	text14,global,reloc=2,class=CODE,delta=1,group=1
    26                           	psect	text15,global,reloc=2,class=CODE,delta=1
    27                           	psect	intcode,global,reloc=2,class=CODE,delta=1
    28                           	psect	text17,global,reloc=2,class=CODE,delta=1
    29                           	psect	text18,global,reloc=2,class=CODE,delta=1
    30                           	psect	intsave_regs,global,class=BIGRAM,space=1,delta=1,noexec
    31                           	psect	rparam,global,class=COMRAM,space=1,delta=1,noexec
    32                           	psect	temp,global,ovrld,common,class=COMRAM,space=1,delta=1
    33                           	psect	idloc,global,abs,ovrld,class=IDLOC,space=5,delta=1,noexec
    34                           	psect	config,global,abs,ovrld,class=CONFIG,space=4,delta=1,noexec
    35  0000                     
    36                           ; Version 2.32
    37                           ; Generated 02/02/2021 GMT
    38                           ; 
    39                           ; Copyright © 2021, Microchip Technology Inc. and its subsidiaries ("Microchip")
    40                           ; All rights reserved.
    41                           ; 
    42                           ; This software is developed by Microchip Technology Inc. and its subsidiaries ("Microch
      +                          ip").
    43                           ; 
    44                           ; Redistribution and use in source and binary forms, with or without modification, are
    45                           ; permitted provided that the following conditions are met:
    46                           ; 
    47                           ;     1. Redistributions of source code must retain the above copyright notice, this lis
      +                          t of
    48                           ;        conditions and the following disclaimer.
    49                           ; 
    50                           ;     2. Redistributions in binary form must reproduce the above copyright notice, this 
      +                          list
    51                           ;        of conditions and the following disclaimer in the documentation and/or other
    52                           ;        materials provided with the distribution. Publication is not required when
    53                           ;        this file is used in an embedded application.
    54                           ; 
    55                           ;     3. Microchip's name may not be used to endorse or promote products derived from th
      +                          is
    56                           ;        software without specific prior written permission.
    57                           ; 
    58                           ; THIS SOFTWARE IS PROVIDED BY MICROCHIP "AS IS" AND ANY EXPRESS OR IMPLIED WARRANTIES,
    59                           ; INCLUDING, BUT NOT LIMITED TO, THE IMPLIED WARRANTIES OF MERCHANTABILITY AND FITNESS F
      +                          OR
    60                           ; PURPOSE ARE DISCLAIMED.  IN NO EVENT SHALL MICROCHIP BE LIABLE FOR ANY DIRECT, INDIREC
      +                          T,
    61                           ; INCIDENTAL, SPECIAL, EXEMPLARY, OR CONSEQUENTIAL DAMAGES (INCLUDING BUT NOT LIMITED TO
    62                           ; PROCUREMENT OF SUBSTITUTE GOODS OR SERVICES; LOSS OF USE, DATA OR PROFITS; OR BUSINESS
    63                           ; INTERRUPTION) HOWSOEVER CAUSED AND ON ANY THEORY OF LIABILITY, WHETHER IN CONTRACT, ST
      +                          RICT
    64                           ; LIABILITY, OR TORT (INCLUDING NEGLIGENCE OR OTHERWISE) ARISING IN ANY WAY OUT OF THE U
      +                          SE OF
    65                           ; THIS SOFTWARE, EVEN IF ADVISED OF THE POSSIBILITY OF SUCH DAMAGE.
    66                           ; 
    67                           ; 
    68                           ; Code-generator required, PIC18F4431 Definitions
    69                           ; 
    70                           ; SFR Addresses
    71  0000                     
    72                           	psect	idataCOMRAM
    73  0026A0                     __pidataCOMRAM:
    74                           	callstack 0
    75                           
    76                           ;initializer for _flag
    77  0026A0  0001               	dw	1
    78  0000                     _PDC3H	set	3954
    79  0000                     _PDC3L	set	3955
    80  0000                     _PDC0H	set	3960
    81  0000                     _PDC0L	set	3961
    82  0000                     _PDC2H	set	3956
    83  0000                     _PDC2L	set	3957
    84  0000                     _PDC1H	set	3958
    85  0000                     _PDC1L	set	3959
    86  0000                     _PORTBbits	set	3969
    87  0000                     _TMR1H	set	4047
    88  0000                     _TMR1L	set	4046
    89  0000                     _PORTAbits	set	3968
    90  0000                     _PORTCbits	set	3970
    91  0000                     _TMR0H	set	4055
    92  0000                     _TMR0L	set	4054
    93  0000                     _PORTDbits	set	3971
    94  0000                     _INTCONbits	set	4082
    95  0000                     _PORTD	set	3971
    96  0000                     _PORTB	set	3969
    97  0000                     _PTMRH	set	3964
    98  0000                     _PTMRL	set	3965
    99  0000                     _PTPERH	set	3962
   100  0000                     _PTPERL	set	3963
   101  0000                     _OVDCONS	set	3946
   102  0000                     _OVDCOND	set	3947
   103  0000                     _DTCON	set	3949
   104  0000                     _PWMCON1	set	3950
   105  0000                     _PWMCON0	set	3951
   106  0000                     _PTCON1	set	3966
   107  0000                     _PTCON0	set	3967
   108  0000                     _RCREG	set	4014
   109  0000                     _TXREG	set	4013
   110  0000                     _PIE1bits	set	3997
   111  0000                     _PIR1bits	set	3998
   112  0000                     _RCSTAbits	set	4011
   113  0000                     _TXSTAbits	set	4012
   114  0000                     _SPBRG	set	4015
   115  0000                     _ANSEL1	set	4025
   116  0000                     _ANSEL0	set	4024
   117  0000                     _TRISE	set	3990
   118  0000                     _TRISD	set	3989
   119  0000                     _TRISC	set	3988
   120  0000                     _TRISB	set	3987
   121  0000                     _TRISA	set	3986
   122  0000                     _TMR1IF	set	31984
   123  0000                     _TMR1ON	set	32360
   124  0000                     _TMR1CS	set	32361
   125  0000                     _T1SYNC	set	32362
   126  0000                     _T1OSCEN	set	32363
   127  0000                     _T1CKPS0	set	32364
   128  0000                     _T1RUN	set	32366
   129  0000                     _RD16	set	32367
   130  0000                     _TMR0IF	set	32658
   131  0000                     _T0PS0	set	32424
   132  0000                     _PSA	set	32427
   133  0000                     _T0CS	set	32429
   134  0000                     _T016BIT	set	32430
   135  0000                     _TMR0ON	set	32431
   136                           
   137                           	psect	smallconst
   138  000300                     __psmallconst:
   139                           	callstack 0
   140  000300  00                 	db	0
   141  000301                     STR_2:
   142  000301  64                 	db	100	;'d'
   143  000302  69                 	db	105	;'i'
   144  000303  73                 	db	115	;'s'
   145  000304  74                 	db	116	;'t'
   146  000305  61                 	db	97	;'a'
   147  000306  6E                 	db	110	;'n'
   148  000307  63                 	db	99	;'c'
   149  000308  69                 	db	105	;'i'
   150  000309  61                 	db	97	;'a'
   151  00030A  00                 	db	0
   152  00030B                     STR_5:
   153  00030B  66                 	db	102	;'f'
   154  00030C  45                 	db	69	;'E'
   155  00030D  73                 	db	115	;'s'
   156  00030E  74                 	db	116	;'t'
   157  00030F  72                 	db	114	;'r'
   158  000310  65                 	db	101	;'e'
   159  000311  6C                 	db	108	;'l'
   160  000312  61                 	db	97	;'a'
   161  000313  00                 	db	0
   162  000314                     STR_12:
   163  000314  65                 	db	101	;'e'
   164  000315  73                 	db	115	;'s'
   165  000316  71                 	db	113	;'q'
   166  000317  75                 	db	117	;'u'
   167  000318  65                 	db	101	;'e'
   168  000319  72                 	db	114	;'r'
   169  00031A  64                 	db	100	;'d'
   170  00031B  6F                 	db	111	;'o'
   171  00031C  00                 	db	0
   172  00031D                     STR_3:
   173  00031D  74                 	db	116	;'t'
   174  00031E  6F                 	db	111	;'o'
   175  00031F  71                 	db	113	;'q'
   176  000320  75                 	db	117	;'u'
   177  000321  69                 	db	105	;'i'
   178  000322  6E                 	db	110	;'n'
   179  000323  68                 	db	104	;'h'
   180  000324  6F                 	db	111	;'o'
   181  000325  00                 	db	0
   182  000326                     STR_6:
   183  000326  65                 	db	101	;'e'
   184  000327  73                 	db	115	;'s'
   185  000328  74                 	db	116	;'t'
   186  000329  72                 	db	114	;'r'
   187  00032A  65                 	db	101	;'e'
   188  00032B  6C                 	db	108	;'l'
   189  00032C  61                 	db	97	;'a'
   190  00032D  00                 	db	0
   191  00032E                     STR_11:
   192  00032E  64                 	db	100	;'d'
   193  00032F  69                 	db	105	;'i'
   194  000330  72                 	db	114	;'r'
   195  000331  65                 	db	101	;'e'
   196  000332  69                 	db	105	;'i'
   197  000333  74                 	db	116	;'t'
   198  000334  6F                 	db	111	;'o'
   199  000335  00                 	db	0
   200  000336                     STR_17:
   201  000336  43                 	db	67	;'C'
   202  000337  6F                 	db	111	;'o'
   203  000338  6D                 	db	109	;'m'
   204  000339  65                 	db	101	;'e'
   205  00033A  63                 	db	99	;'c'
   206  00033B  6F                 	db	111	;'o'
   207  00033C  75                 	db	117	;'u'
   208  00033D  00                 	db	0
   209  00033E                     STR_13:
   210  00033E  66                 	db	102	;'f'
   211  00033F  72                 	db	114	;'r'
   212  000340  65                 	db	101	;'e'
   213  000341  6E                 	db	110	;'n'
   214  000342  74                 	db	116	;'t'
   215  000343  65                 	db	101	;'e'
   216  000344  00                 	db	0
   217  000345                     STR_7:
   218  000345  7A                 	db	122	;'z'
   219  000346  69                 	db	105	;'i'
   220  000347  67                 	db	103	;'g'
   221  000348  7A                 	db	122	;'z'
   222  000349  61                 	db	97	;'a'
   223  00034A  67                 	db	103	;'g'
   224  00034B  00                 	db	0
   225  00034C                     STR_1:
   226  00034C  6C                 	db	108	;'l'
   227  00034D  69                 	db	105	;'i'
   228  00034E  6E                 	db	110	;'n'
   229  00034F  68                 	db	104	;'h'
   230  000350  61                 	db	97	;'a'
   231  000351  00                 	db	0
   232  000352                     STR_8:
   233  000352  74                 	db	116	;'t'
   234  000353  65                 	db	101	;'e'
   235  000354  73                 	db	115	;'s'
   236  000355  74                 	db	116	;'t'
   237  000356  65                 	db	101	;'e'
   238  000357  00                 	db	0
   239  000358                     STR_16:
   240  000358  70                 	db	112	;'p'
   241  000359  61                 	db	97	;'a'
   242  00035A  72                 	db	114	;'r'
   243  00035B  61                 	db	97	;'a'
   244  00035C  72                 	db	114	;'r'
   245  00035D  00                 	db	0
   246  00035E                     STR_15:
   247  00035E  6D                 	db	109	;'m'
   248  00035F  6F                 	db	111	;'o'
   249  000360  74                 	db	116	;'t'
   250  000361  6F                 	db	111	;'o'
   251  000362  72                 	db	114	;'r'
   252  000363  00                 	db	0
   253  000364                     STR_4:
   254  000364  61                 	db	97	;'a'
   255  000365  72                 	db	114	;'r'
   256  000366  63                 	db	99	;'c'
   257  000367  6F                 	db	111	;'o'
   258  000368  00                 	db	0
   259  000369                     STR_14:
   260  000369  74                 	db	116	;'t'
   261  00036A  72                 	db	114	;'r'
   262  00036B  61                 	db	97	;'a'
   263  00036C  73                 	db	115	;'s'
   264  00036D  00                 	db	0
   265  00036E                     STR_9:
   266  00036E  67                 	db	103	;'g'
   267  00036F  64                 	db	100	;'d'
   268  000370  00                 	db	0
   269  000371                     STR_10:
   270  000371  67                 	db	103	;'g'
   271  000372  65                 	db	101	;'e'
   272  000373  00                 	db	0
   273  000374                     STR_32:
   274  000374  20                 	db	32
   275  000375  00                 	db	0
   276  000376  00                 	db	0	; dummy byte at the end
   277  0000                     
   278                           ; #config settings
   279                           
   280                           	psect	cinit
   281  002554                     __pcinit:
   282                           	callstack 0
   283  002554                     start_initialization:
   284                           	callstack 0
   285  002554                     __initialization:
   286                           	callstack 0
   287                           
   288                           ; Initialize objects allocated to COMRAM (2 bytes)
   289                           ; load TBLPTR registers with __pidataCOMRAM
   290  002554  0EA0               	movlw	low __pidataCOMRAM
   291  002556  6EF6               	movwf	tblptrl,c
   292  002558  0E26               	movlw	high __pidataCOMRAM
   293  00255A  6EF7               	movwf	tblptrh,c
   294  00255C  0E00               	movlw	low (__pidataCOMRAM shr (0+16))
   295  00255E  6EF8               	movwf	tblptru,c
   296  002560  0009               	tblrd		*+	;fetch initializer
   297  002562  CFF5 F020          	movff	tablat,__pdataCOMRAM
   298  002566  0009               	tblrd		*+	;fetch initializer
   299  002568  CFF5 F021          	movff	tablat,__pdataCOMRAM+1
   300                           
   301                           ; Clear objects allocated to COMRAM (8 bytes)
   302  00256C  EE00  F018         	lfsr	0,__pbssCOMRAM
   303  002570  0E08               	movlw	8
   304  002572                     clear_0:
   305  002572  6AEE               	clrf	postinc0,c
   306  002574  06E8               	decf	wreg,f,c
   307  002576  E1FD               	bnz	clear_0
   308  002578                     end_of_initialization:
   309                           	callstack 0
   310  002578                     __end_of__initialization:
   311                           	callstack 0
   312  002578  9022               	bcf	int$flags,0,c	;clear compiler interrupt flag (level 1)
   313  00257A  9222               	bcf	int$flags,1,c	;clear compiler interrupt flag (level 2)
   314  00257C  0E00               	movlw	low (__Lsmallconst shr (0+16))
   315  00257E  6EF8               	movwf	tblptru,c
   316  002580  0E03               	movlw	high __Lsmallconst
   317  002582  6EF7               	movwf	tblptrh,c
   318  002584  0100               	movlb	0
   319  002586  EFBC  F001         	goto	_main	;jump to C main() function
   320                           
   321                           	psect	bssCOMRAM
   322  000018                     __pbssCOMRAM:
   323                           	callstack 0
   324  000018                     _ini:
   325                           	callstack 0
   326  000018                     	ds	2
   327  00001A                     _velocidade:
   328                           	callstack 0
   329  00001A                     	ds	2
   330  00001C                     _acao:
   331                           	callstack 0
   332  00001C                     	ds	2
   333  00001E                     _sentido:
   334                           	callstack 0
   335  00001E                     	ds	1
   336  00001F                     _lado:
   337                           	callstack 0
   338  00001F                     	ds	1
   339                           
   340                           	psect	dataCOMRAM
   341  000020                     __pdataCOMRAM:
   342                           	callstack 0
   343  000020                     _flag:
   344                           	callstack 0
   345  000020                     	ds	2
   346                           
   347                           	psect	cstackCOMRAM
   348  000001                     __pcstackCOMRAM:
   349                           	callstack 0
   350  000001                     readUSART@ler:
   351                           	callstack 0
   352                           
   353                           ; 1 bytes @ 0x0
   354  000001                     	ds	1
   355  000002                     ?___wmul:
   356                           	callstack 0
   357  000002                     picUSART@status:
   358                           	callstack 0
   359  000002                     stringUSART@frase:
   360                           	callstack 0
   361  000002                     ___wmul@multiplier:
   362                           	callstack 0
   363                           
   364                           ; 2 bytes @ 0x1
   365  000002                     	ds	2
   366  000004                     ??_stringUSART:
   367  000004                     ___wmul@multiplicand:
   368                           	callstack 0
   369                           
   370                           ; 2 bytes @ 0x3
   371  000004                     	ds	2
   372  000006                     stringUSART@i:
   373                           	callstack 0
   374  000006                     ___wmul@product:
   375                           	callstack 0
   376                           
   377                           ; 2 bytes @ 0x5
   378  000006                     	ds	2
   379  000008                     moverMotor@sentido:
   380                           	callstack 0
   381                           
   382                           ; 1 bytes @ 0x7
   383  000008                     	ds	1
   384  000009                     moverMotor@velocidade:
   385                           	callstack 0
   386                           
   387                           ; 2 bytes @ 0x8
   388  000009                     	ds	2
   389  00000B                     moverMotor@lado:
   390                           	callstack 0
   391                           
   392                           ; 1 bytes @ 0xA
   393  00000B                     	ds	1
   394  00000C                     ??_testarLinha:
   395  00000C                     ??_linha:
   396  00000C                     testarDistancia@velTestParaFrente:
   397                           	callstack 0
   398                           
   399                           ; 2 bytes @ 0xB
   400  00000C                     	ds	2
   401  00000E                     ??_estrela:
   402                           
   403                           ; 1 bytes @ 0xD
   404  00000E                     	ds	2
   405  000010                     ??_main:
   406                           
   407                           ; 1 bytes @ 0xF
   408  000010                     	ds	2
   409  000012                     main@cont_tmr:
   410                           	callstack 0
   411                           
   412                           ; 1 bytes @ 0x11
   413  000012                     	ds	1
   414  000013                     main@cont_zig:
   415                           	callstack 0
   416                           
   417                           ; 1 bytes @ 0x12
   418  000013                     	ds	1
   419  000014                     main@cont:
   420                           	callstack 0
   421                           
   422                           ; 2 bytes @ 0x13
   423  000014                     	ds	2
   424  000016                     main@aux:
   425                           	callstack 0
   426                           
   427                           ; 1 bytes @ 0x15
   428  000016                     	ds	1
   429  000017                     main@cont_tmr_710:
   430                           	callstack 0
   431                           
   432                           ; 1 bytes @ 0x16
   433  000017                     	ds	1
   434                           
   435 ;;
   436 ;;Main: autosize = 0, tempsize = 2, incstack = 0, save=0
   437 ;;
   438 ;; *************** function _main *****************
   439 ;; Defined at:
   440 ;;		line 112 in file "hachiko_0.c"
   441 ;; Parameters:    Size  Location     Type
   442 ;;		None
   443 ;; Auto vars:     Size  Location     Type
   444 ;;  cont_tmr        1   22[COMRAM] unsigned char 
   445 ;;  cont_zig        1   18[COMRAM] unsigned char 
   446 ;;  cont            2   19[COMRAM] int 
   447 ;;  aux             1   21[COMRAM] unsigned char 
   448 ;;  cont_tmr        1   17[COMRAM] unsigned char 
   449 ;; Return value:  Size  Location     Type
   450 ;;                  1    wreg      void 
   451 ;; Registers used:
   452 ;;		wreg, status,2, status,0, tblptrl, tblptrh, tblptru, prodl, prodh, cstack
   453 ;; Tracked objects:
   454 ;;		On entry : 0/0
   455 ;;		On exit  : 0/0
   456 ;;		Unchanged: 0/0
   457 ;; Data sizes:     COMRAM   BANK0   BANK1   BANK2
   458 ;;      Params:         0       0       0       0
   459 ;;      Locals:         6       0       0       0
   460 ;;      Temps:          2       0       0       0
   461 ;;      Totals:         8       0       0       0
   462 ;;Total ram usage:        8 bytes
   463 ;; Hardware stack levels required when called: 6
   464 ;; This function calls:
   465 ;;		_estrela
   466 ;;		_linha
   467 ;;		_moverMotor
   468 ;;		_pararMotor
   469 ;;		_picUSART
   470 ;;		_setBT
   471 ;;		_setIO
   472 ;;		_setPWM
   473 ;;		_setTMR0
   474 ;;		_setTMR1
   475 ;;		_stringUSART
   476 ;;		_testarDistancia
   477 ;;		_testarLinha
   478 ;; This function is called by:
   479 ;;		Startup code after reset
   480 ;; This function uses a non-reentrant model
   481 ;;
   482                           
   483                           	psect	text0
   484  000378                     __ptext0:
   485                           	callstack 0
   486  000378                     _main:
   487                           	callstack 25
   488  000378                     
   489                           ;hachiko_0.c: 114:     setIO();
   490  000378  EC14  F013         	call	_setIO	;wreg free
   491                           
   492                           ;hachiko_0.c: 115:     setBT();
   493  00037C  EC21  F013         	call	_setBT	;wreg free
   494                           
   495                           ;hachiko_0.c: 116:     setPWM();
   496  000380  ECC5  F012         	call	_setPWM	;wreg free
   497  000384                     
   498                           ;hachiko_0.c: 117:     setTMR0();
   499  000384  EC45  F013         	call	_setTMR0	;wreg free
   500  000388                     
   501                           ;hachiko_0.c: 118:     setTMR1();
   502  000388  EC35  F013         	call	_setTMR1	;wreg free
   503  00038C                     
   504                           ;hachiko_0.c: 123:     INTCONbits.GIE = 1;
   505  00038C  8EF2               	bsf	242,7,c	;volatile
   506  00038E                     
   507                           ;hachiko_0.c: 124:     INTCONbits.PEIE = 1;
   508  00038E  8CF2               	bsf	242,6,c	;volatile
   509  000390                     
   510                           ;hachiko_0.c: 126:     PORTDbits.RD0 = 0;
   511  000390  9083               	bcf	131,0,c	;volatile
   512  000392                     
   513                           ;hachiko_0.c: 127:     PORTDbits.RD1 = 1;
   514  000392  8283               	bsf	131,1,c	;volatile
   515  000394                     l2554:
   516                           
   517                           ;hachiko_0.c: 135:     while(ini == 0){
   518  000394  5018               	movf	_ini^0,w,c
   519  000396  1019               	iorwf	(_ini+1)^0,w,c
   520  000398  B4D8               	btfsc	status,2,c
   521  00039A  EFD1  F001         	goto	u4091
   522  00039E  EFD3  F001         	goto	u4090
   523  0003A2                     u4091:
   524  0003A2  EFCA  F001         	goto	l2554
   525  0003A6                     u4090:
   526  0003A6                     
   527                           ;hachiko_0.c: 143:     stringUSART("Comecou");
   528  0003A6  0E36               	movlw	low STR_17
   529  0003A8  6E02               	movwf	stringUSART@frase^0,c
   530  0003AA  0E03               	movlw	high STR_17
   531  0003AC  6E03               	movwf	(stringUSART@frase+1)^0,c
   532  0003AE  EC7A  F012         	call	_stringUSART	;wreg free
   533  0003B2                     
   534                           ;hachiko_0.c: 145:     _delay((unsigned long)((5000)*(20000000/4000.0)));
   535  0003B2  0E7F               	movlw	127
   536  0003B4  6E11               	movwf	(??_main+1)^0,c
   537  0003B6  0ED4               	movlw	212
   538  0003B8  6E10               	movwf	??_main^0,c
   539  0003BA  0E32               	movlw	50
   540  0003BC                     u6387:
   541  0003BC  2EE8               	decfsz	wreg,f,c
   542  0003BE  D7FE               	bra	u6387
   543  0003C0  2E10               	decfsz	??_main^0,f,c
   544  0003C2  D7FC               	bra	u6387
   545  0003C4  2E11               	decfsz	(??_main+1)^0,f,c
   546  0003C6  D7FA               	bra	u6387
   547  0003C8                     l2560:
   548                           
   549                           ;hachiko_0.c: 148:         if(acao == "linha"){
   550  0003C8  0E4C               	movlw	low STR_1
   551  0003CA  181C               	xorwf	_acao^0,w,c
   552  0003CC  E107               	bnz	u4101
   553  0003CE  0E03               	movlw	high STR_1
   554  0003D0  181D               	xorwf	(_acao+1)^0,w,c
   555  0003D2  A4D8               	btfss	status,2,c
   556  0003D4  EFEE  F001         	goto	u4101
   557  0003D8  EFF0  F001         	goto	u4100
   558  0003DC                     u4101:
   559  0003DC  EF00  F002         	goto	l2568
   560  0003E0                     u4100:
   561  0003E0                     l2562:
   562                           
   563                           ;hachiko_0.c: 150:                 testarLinha();
   564  0003E0  ECF6  F00F         	call	_testarLinha	;wreg free
   565  0003E4                     
   566                           ;hachiko_0.c: 152:                 if(acao == "parar"){
   567  0003E4  0E58               	movlw	low STR_16
   568  0003E6  181C               	xorwf	_acao^0,w,c
   569  0003E8  E107               	bnz	u4111
   570  0003EA  0E03               	movlw	high STR_16
   571  0003EC  181D               	xorwf	(_acao+1)^0,w,c
   572  0003EE  A4D8               	btfss	status,2,c
   573  0003F0  EFFC  F001         	goto	u4111
   574  0003F4  EFFE  F001         	goto	u4110
   575  0003F8                     u4111:
   576  0003F8  EFF0  F001         	goto	l2562
   577  0003FC                     u4110:
   578  0003FC                     
   579                           ;hachiko_0.c: 153:                     pararMotor();
   580  0003FC  ECF2  F012         	call	_pararMotor	;wreg free
   581  000400                     l2568:
   582                           
   583                           ;hachiko_0.c: 159:         if(acao == "distancia"){
   584  000400  0E01               	movlw	low STR_2
   585  000402  181C               	xorwf	_acao^0,w,c
   586  000404  E107               	bnz	u4121
   587  000406  0E03               	movlw	high STR_2
   588  000408  181D               	xorwf	(_acao+1)^0,w,c
   589  00040A  A4D8               	btfss	status,2,c
   590  00040C  EF0A  F002         	goto	u4121
   591  000410  EF0C  F002         	goto	u4120
   592  000414                     u4121:
   593  000414  EF1C  F002         	goto	l2576
   594  000418                     u4120:
   595  000418                     l2570:
   596                           
   597                           ;hachiko_0.c: 161:                 testarDistancia();
   598  000418  ECF0  F00D         	call	_testarDistancia	;wreg free
   599  00041C                     
   600                           ;hachiko_0.c: 163:                 if(acao == "parar"){
   601  00041C  0E58               	movlw	low STR_16
   602  00041E  181C               	xorwf	_acao^0,w,c
   603  000420  E107               	bnz	u4131
   604  000422  0E03               	movlw	high STR_16
   605  000424  181D               	xorwf	(_acao+1)^0,w,c
   606  000426  A4D8               	btfss	status,2,c
   607  000428  EF18  F002         	goto	u4131
   608  00042C  EF1A  F002         	goto	u4130
   609  000430                     u4131:
   610  000430  EF0C  F002         	goto	l2570
   611  000434                     u4130:
   612  000434                     
   613                           ;hachiko_0.c: 164:                     pararMotor();
   614  000434  ECF2  F012         	call	_pararMotor	;wreg free
   615  000438                     l2576:
   616                           
   617                           ;hachiko_0.c: 170:         if(acao == "arco"){
   618  000438  0E64               	movlw	low STR_4
   619  00043A  181C               	xorwf	_acao^0,w,c
   620  00043C  E107               	bnz	u4141
   621  00043E  0E03               	movlw	high STR_4
   622  000440  181D               	xorwf	(_acao+1)^0,w,c
   623  000442  A4D8               	btfss	status,2,c
   624  000444  EF26  F002         	goto	u4141
   625  000448  EF28  F002         	goto	u4140
   626  00044C                     u4141:
   627  00044C  EFA1  F004         	goto	l2702
   628  000450                     u4140:
   629  000450                     
   630                           ;hachiko_0.c: 171:             TMR0ON = 1;
   631  000450  8ED5               	bsf	4053,7,c	;volatile
   632  000452                     
   633                           ;hachiko_0.c: 172:             TMR0L = 0x78;
   634  000452  0E78               	movlw	120
   635  000454  6ED6               	movwf	214,c	;volatile
   636                           
   637                           ;hachiko_0.c: 173:             TMR0H = 0xF8;
   638  000456  0EF8               	movlw	248
   639  000458  6ED7               	movwf	215,c	;volatile
   640                           
   641                           ;hachiko_0.c: 174:             char cont_tmr = 0x00;
   642  00045A  0E00               	movlw	0
   643  00045C  6E12               	movwf	main@cont_tmr^0,c
   644                           
   645                           ;hachiko_0.c: 175:             while(cont_tmr < 0x64){
   646  00045E  EF98  F004         	goto	l2700
   647  000462                     l233:
   648                           
   649                           ;hachiko_0.c: 177:                 if(!PORTCbits.RC4 || !PORTCbits.RC3) {
   650  000462  A882               	btfss	130,4,c	;volatile
   651  000464  EF36  F002         	goto	u4151
   652  000468  EF38  F002         	goto	u4150
   653  00046C                     u4151:
   654  00046C  EF3F  F002         	goto	l2584
   655  000470                     u4150:
   656  000470  B682               	btfsc	130,3,c	;volatile
   657  000472  EF3D  F002         	goto	u4161
   658  000476  EF3F  F002         	goto	u4160
   659  00047A                     u4161:
   660  00047A  EF43  F002         	goto	l234
   661  00047E                     u4160:
   662  00047E                     l2584:
   663                           
   664                           ;hachiko_0.c: 178:                     linha();
   665  00047E  EC69  F011         	call	_linha	;wreg free
   666                           
   667                           ;hachiko_0.c: 179:                 } else {
   668  000482  EF7B  F004         	goto	l2688
   669  000486                     l234:
   670                           
   671                           ;hachiko_0.c: 181:                 if(PORTAbits.RA1 && PORTAbits.RA4 && PORTCbits.RC0 &&
      +                           PORTAbits.RA3 && PORTAbits.RA2){
   672  000486  A280               	btfss	128,1,c	;volatile
   673  000488  EF48  F002         	goto	u4171
   674  00048C  EF4A  F002         	goto	u4170
   675  000490                     u4171:
   676  000490  EF7A  F002         	goto	l238
   677  000494                     u4170:
   678  000494  A880               	btfss	128,4,c	;volatile
   679  000496  EF4F  F002         	goto	u4181
   680  00049A  EF51  F002         	goto	u4180
   681  00049E                     u4181:
   682  00049E  EF7A  F002         	goto	l238
   683  0004A2                     u4180:
   684  0004A2  A082               	btfss	130,0,c	;volatile
   685  0004A4  EF56  F002         	goto	u4191
   686  0004A8  EF58  F002         	goto	u4190
   687  0004AC                     u4191:
   688  0004AC  EF7A  F002         	goto	l238
   689  0004B0                     u4190:
   690  0004B0  A680               	btfss	128,3,c	;volatile
   691  0004B2  EF5D  F002         	goto	u4201
   692  0004B6  EF5F  F002         	goto	u4200
   693  0004BA                     u4201:
   694  0004BA  EF7A  F002         	goto	l238
   695  0004BE                     u4200:
   696  0004BE  A480               	btfss	128,2,c	;volatile
   697  0004C0  EF64  F002         	goto	u4211
   698  0004C4  EF66  F002         	goto	u4210
   699  0004C8                     u4211:
   700  0004C8  EF7A  F002         	goto	l238
   701  0004CC                     u4210:
   702  0004CC                     
   703                           ;hachiko_0.c: 182:                     moverMotor('d','f',70);
   704  0004CC  0E66               	movlw	102
   705  0004CE  6E08               	movwf	moverMotor@sentido^0,c
   706  0004D0  0E00               	movlw	0
   707  0004D2  6E0A               	movwf	(moverMotor@velocidade+1)^0,c
   708  0004D4  0E46               	movlw	70
   709  0004D6  6E09               	movwf	moverMotor@velocidade^0,c
   710  0004D8  0E64               	movlw	100
   711  0004DA  EC0C  F012         	call	_moverMotor
   712                           
   713                           ;hachiko_0.c: 183:                     moverMotor('e','f',80);
   714  0004DE  0E66               	movlw	102
   715  0004E0  6E08               	movwf	moverMotor@sentido^0,c
   716  0004E2  0E00               	movlw	0
   717  0004E4  6E0A               	movwf	(moverMotor@velocidade+1)^0,c
   718  0004E6  0E50               	movlw	80
   719  0004E8  6E09               	movwf	moverMotor@velocidade^0,c
   720  0004EA  0E65               	movlw	101
   721  0004EC  EC0C  F012         	call	_moverMotor
   722                           
   723                           ;hachiko_0.c: 184:                 }
   724  0004F0  EF7B  F004         	goto	l2688
   725  0004F4                     l238:
   726  0004F4  B280               	btfsc	128,1,c	;volatile
   727  0004F6  EF7F  F002         	goto	u4221
   728  0004FA  EF81  F002         	goto	u4220
   729  0004FE                     u4221:
   730  0004FE  EFB1  F002         	goto	l240
   731  000502                     u4220:
   732  000502  A880               	btfss	128,4,c	;volatile
   733  000504  EF86  F002         	goto	u4231
   734  000508  EF88  F002         	goto	u4230
   735  00050C                     u4231:
   736  00050C  EFB1  F002         	goto	l240
   737  000510                     u4230:
   738  000510  A082               	btfss	130,0,c	;volatile
   739  000512  EF8D  F002         	goto	u4241
   740  000516  EF8F  F002         	goto	u4240
   741  00051A                     u4241:
   742  00051A  EFB1  F002         	goto	l240
   743  00051E                     u4240:
   744  00051E  A680               	btfss	128,3,c	;volatile
   745  000520  EF94  F002         	goto	u4251
   746  000524  EF96  F002         	goto	u4250
   747  000528                     u4251:
   748  000528  EFB1  F002         	goto	l240
   749  00052C                     u4250:
   750  00052C  A480               	btfss	128,2,c	;volatile
   751  00052E  EF9B  F002         	goto	u4261
   752  000532  EF9D  F002         	goto	u4260
   753  000536                     u4261:
   754  000536  EFB1  F002         	goto	l240
   755  00053A                     u4260:
   756  00053A                     
   757                           ;hachiko_0.c: 186:                     moverMotor('e','t',70);
   758  00053A  0E74               	movlw	116
   759  00053C  6E08               	movwf	moverMotor@sentido^0,c
   760  00053E  0E00               	movlw	0
   761  000540  6E0A               	movwf	(moverMotor@velocidade+1)^0,c
   762  000542  0E46               	movlw	70
   763  000544  6E09               	movwf	moverMotor@velocidade^0,c
   764  000546  0E65               	movlw	101
   765  000548  EC0C  F012         	call	_moverMotor
   766                           
   767                           ;hachiko_0.c: 187:                     moverMotor('d','f',70);
   768  00054C  0E66               	movlw	102
   769  00054E  6E08               	movwf	moverMotor@sentido^0,c
   770  000550  0E00               	movlw	0
   771  000552  6E0A               	movwf	(moverMotor@velocidade+1)^0,c
   772  000554  0E46               	movlw	70
   773  000556  6E09               	movwf	moverMotor@velocidade^0,c
   774  000558  0E64               	movlw	100
   775  00055A  EC0C  F012         	call	_moverMotor
   776                           
   777                           ;hachiko_0.c: 188:                 }
   778  00055E  EF7B  F004         	goto	l2688
   779  000562                     l240:
   780  000562  A280               	btfss	128,1,c	;volatile
   781  000564  EFB6  F002         	goto	u4271
   782  000568  EFB8  F002         	goto	u4270
   783  00056C                     u4271:
   784  00056C  EFE8  F002         	goto	l242
   785  000570                     u4270:
   786  000570  A880               	btfss	128,4,c	;volatile
   787  000572  EFBD  F002         	goto	u4281
   788  000576  EFBF  F002         	goto	u4280
   789  00057A                     u4281:
   790  00057A  EFE8  F002         	goto	l242
   791  00057E                     u4280:
   792  00057E  B082               	btfsc	130,0,c	;volatile
   793  000580  EFC4  F002         	goto	u4291
   794  000584  EFC6  F002         	goto	u4290
   795  000588                     u4291:
   796  000588  EFE8  F002         	goto	l242
   797  00058C                     u4290:
   798  00058C  A680               	btfss	128,3,c	;volatile
   799  00058E  EFCB  F002         	goto	u4301
   800  000592  EFCD  F002         	goto	u4300
   801  000596                     u4301:
   802  000596  EFE8  F002         	goto	l242
   803  00059A                     u4300:
   804  00059A  A480               	btfss	128,2,c	;volatile
   805  00059C  EFD2  F002         	goto	u4311
   806  0005A0  EFD4  F002         	goto	u4310
   807  0005A4                     u4311:
   808  0005A4  EFE8  F002         	goto	l242
   809  0005A8                     u4310:
   810  0005A8                     
   811                           ;hachiko_0.c: 190:                     moverMotor('e','f',100);
   812  0005A8  0E66               	movlw	102
   813  0005AA  6E08               	movwf	moverMotor@sentido^0,c
   814  0005AC  0E00               	movlw	0
   815  0005AE  6E0A               	movwf	(moverMotor@velocidade+1)^0,c
   816  0005B0  0E64               	movlw	100
   817  0005B2  6E09               	movwf	moverMotor@velocidade^0,c
   818  0005B4  0E65               	movlw	101
   819  0005B6  EC0C  F012         	call	_moverMotor
   820                           
   821                           ;hachiko_0.c: 191:                     moverMotor('d','f',100);
   822  0005BA  0E66               	movlw	102
   823  0005BC  6E08               	movwf	moverMotor@sentido^0,c
   824  0005BE  0E00               	movlw	0
   825  0005C0  6E0A               	movwf	(moverMotor@velocidade+1)^0,c
   826  0005C2  0E64               	movlw	100
   827  0005C4  6E09               	movwf	moverMotor@velocidade^0,c
   828  0005C6  0E64               	movlw	100
   829  0005C8  EC0C  F012         	call	_moverMotor
   830                           
   831                           ;hachiko_0.c: 193:                 }
   832  0005CC  EF7B  F004         	goto	l2688
   833  0005D0                     l242:
   834  0005D0  A280               	btfss	128,1,c	;volatile
   835  0005D2  EFED  F002         	goto	u4321
   836  0005D6  EFEF  F002         	goto	u4320
   837  0005DA                     u4321:
   838  0005DA  EF1F  F003         	goto	l244
   839  0005DE                     u4320:
   840  0005DE  B880               	btfsc	128,4,c	;volatile
   841  0005E0  EFF4  F002         	goto	u4331
   842  0005E4  EFF6  F002         	goto	u4330
   843  0005E8                     u4331:
   844  0005E8  EF1F  F003         	goto	l244
   845  0005EC                     u4330:
   846  0005EC  A082               	btfss	130,0,c	;volatile
   847  0005EE  EFFB  F002         	goto	u4341
   848  0005F2  EFFD  F002         	goto	u4340
   849  0005F6                     u4341:
   850  0005F6  EF1F  F003         	goto	l244
   851  0005FA                     u4340:
   852  0005FA  B680               	btfsc	128,3,c	;volatile
   853  0005FC  EF02  F003         	goto	u4351
   854  000600  EF04  F003         	goto	u4350
   855  000604                     u4351:
   856  000604  EF1F  F003         	goto	l244
   857  000608                     u4350:
   858  000608  A480               	btfss	128,2,c	;volatile
   859  00060A  EF09  F003         	goto	u4361
   860  00060E  EF0B  F003         	goto	u4360
   861  000612                     u4361:
   862  000612  EF1F  F003         	goto	l244
   863  000616                     u4360:
   864  000616                     
   865                           ;hachiko_0.c: 195:                     moverMotor('e','f',100);
   866  000616  0E66               	movlw	102
   867  000618  6E08               	movwf	moverMotor@sentido^0,c
   868  00061A  0E00               	movlw	0
   869  00061C  6E0A               	movwf	(moverMotor@velocidade+1)^0,c
   870  00061E  0E64               	movlw	100
   871  000620  6E09               	movwf	moverMotor@velocidade^0,c
   872  000622  0E65               	movlw	101
   873  000624  EC0C  F012         	call	_moverMotor
   874                           
   875                           ;hachiko_0.c: 196:                     moverMotor('d','f',100);
   876  000628  0E66               	movlw	102
   877  00062A  6E08               	movwf	moverMotor@sentido^0,c
   878  00062C  0E00               	movlw	0
   879  00062E  6E0A               	movwf	(moverMotor@velocidade+1)^0,c
   880  000630  0E64               	movlw	100
   881  000632  6E09               	movwf	moverMotor@velocidade^0,c
   882  000634  0E64               	movlw	100
   883  000636  EC0C  F012         	call	_moverMotor
   884                           
   885                           ;hachiko_0.c: 198:                 }
   886  00063A  EF7B  F004         	goto	l2688
   887  00063E                     l244:
   888  00063E  A280               	btfss	128,1,c	;volatile
   889  000640  EF24  F003         	goto	u4371
   890  000644  EF26  F003         	goto	u4370
   891  000648                     u4371:
   892  000648  EF56  F003         	goto	l246
   893  00064C                     u4370:
   894  00064C  A880               	btfss	128,4,c	;volatile
   895  00064E  EF2B  F003         	goto	u4381
   896  000652  EF2D  F003         	goto	u4380
   897  000656                     u4381:
   898  000656  EF56  F003         	goto	l246
   899  00065A                     u4380:
   900  00065A  A082               	btfss	130,0,c	;volatile
   901  00065C  EF32  F003         	goto	u4391
   902  000660  EF34  F003         	goto	u4390
   903  000664                     u4391:
   904  000664  EF56  F003         	goto	l246
   905  000668                     u4390:
   906  000668  B680               	btfsc	128,3,c	;volatile
   907  00066A  EF39  F003         	goto	u4401
   908  00066E  EF3B  F003         	goto	u4400
   909  000672                     u4401:
   910  000672  EF56  F003         	goto	l246
   911  000676                     u4400:
   912  000676  A480               	btfss	128,2,c	;volatile
   913  000678  EF40  F003         	goto	u4411
   914  00067C  EF42  F003         	goto	u4410
   915  000680                     u4411:
   916  000680  EF56  F003         	goto	l246
   917  000684                     u4410:
   918  000684                     
   919                           ;hachiko_0.c: 200:                     moverMotor('e','f',70);
   920  000684  0E66               	movlw	102
   921  000686  6E08               	movwf	moverMotor@sentido^0,c
   922  000688  0E00               	movlw	0
   923  00068A  6E0A               	movwf	(moverMotor@velocidade+1)^0,c
   924  00068C  0E46               	movlw	70
   925  00068E  6E09               	movwf	moverMotor@velocidade^0,c
   926  000690  0E65               	movlw	101
   927  000692  EC0C  F012         	call	_moverMotor
   928                           
   929                           ;hachiko_0.c: 201:                     moverMotor('d','t',70);
   930  000696  0E74               	movlw	116
   931  000698  6E08               	movwf	moverMotor@sentido^0,c
   932  00069A  0E00               	movlw	0
   933  00069C  6E0A               	movwf	(moverMotor@velocidade+1)^0,c
   934  00069E  0E46               	movlw	70
   935  0006A0  6E09               	movwf	moverMotor@velocidade^0,c
   936  0006A2  0E64               	movlw	100
   937  0006A4  EC0C  F012         	call	_moverMotor
   938                           
   939                           ;hachiko_0.c: 202:                 }
   940  0006A8  EF7B  F004         	goto	l2688
   941  0006AC                     l246:
   942  0006AC  A280               	btfss	128,1,c	;volatile
   943  0006AE  EF5B  F003         	goto	u4421
   944  0006B2  EF5D  F003         	goto	u4420
   945  0006B6                     u4421:
   946  0006B6  EF8D  F003         	goto	l248
   947  0006BA                     u4420:
   948  0006BA  A880               	btfss	128,4,c	;volatile
   949  0006BC  EF62  F003         	goto	u4431
   950  0006C0  EF64  F003         	goto	u4430
   951  0006C4                     u4431:
   952  0006C4  EF8D  F003         	goto	l248
   953  0006C8                     u4430:
   954  0006C8  B082               	btfsc	130,0,c	;volatile
   955  0006CA  EF69  F003         	goto	u4441
   956  0006CE  EF6B  F003         	goto	u4440
   957  0006D2                     u4441:
   958  0006D2  EF8D  F003         	goto	l248
   959  0006D6                     u4440:
   960  0006D6  B680               	btfsc	128,3,c	;volatile
   961  0006D8  EF70  F003         	goto	u4451
   962  0006DC  EF72  F003         	goto	u4450
   963  0006E0                     u4451:
   964  0006E0  EF8D  F003         	goto	l248
   965  0006E4                     u4450:
   966  0006E4  A480               	btfss	128,2,c	;volatile
   967  0006E6  EF77  F003         	goto	u4461
   968  0006EA  EF79  F003         	goto	u4460
   969  0006EE                     u4461:
   970  0006EE  EF8D  F003         	goto	l248
   971  0006F2                     u4460:
   972  0006F2                     
   973                           ;hachiko_0.c: 204:                     moverMotor('e','f',70);
   974  0006F2  0E66               	movlw	102
   975  0006F4  6E08               	movwf	moverMotor@sentido^0,c
   976  0006F6  0E00               	movlw	0
   977  0006F8  6E0A               	movwf	(moverMotor@velocidade+1)^0,c
   978  0006FA  0E46               	movlw	70
   979  0006FC  6E09               	movwf	moverMotor@velocidade^0,c
   980  0006FE  0E65               	movlw	101
   981  000700  EC0C  F012         	call	_moverMotor
   982                           
   983                           ;hachiko_0.c: 205:                     moverMotor('d','t',70);
   984  000704  0E74               	movlw	116
   985  000706  6E08               	movwf	moverMotor@sentido^0,c
   986  000708  0E00               	movlw	0
   987  00070A  6E0A               	movwf	(moverMotor@velocidade+1)^0,c
   988  00070C  0E46               	movlw	70
   989  00070E  6E09               	movwf	moverMotor@velocidade^0,c
   990  000710  0E64               	movlw	100
   991  000712  EC0C  F012         	call	_moverMotor
   992                           
   993                           ;hachiko_0.c: 206:                 }
   994  000716  EF7B  F004         	goto	l2688
   995  00071A                     l248:
   996  00071A  A280               	btfss	128,1,c	;volatile
   997  00071C  EF92  F003         	goto	u4471
   998  000720  EF94  F003         	goto	u4470
   999  000724                     u4471:
  1000  000724  EFC4  F003         	goto	l250
  1001  000728                     u4470:
  1002  000728  B880               	btfsc	128,4,c	;volatile
  1003  00072A  EF99  F003         	goto	u4481
  1004  00072E  EF9B  F003         	goto	u4480
  1005  000732                     u4481:
  1006  000732  EFC4  F003         	goto	l250
  1007  000736                     u4480:
  1008  000736  A082               	btfss	130,0,c	;volatile
  1009  000738  EFA0  F003         	goto	u4491
  1010  00073C  EFA2  F003         	goto	u4490
  1011  000740                     u4491:
  1012  000740  EFC4  F003         	goto	l250
  1013  000744                     u4490:
  1014  000744  A680               	btfss	128,3,c	;volatile
  1015  000746  EFA7  F003         	goto	u4501
  1016  00074A  EFA9  F003         	goto	u4500
  1017  00074E                     u4501:
  1018  00074E  EFC4  F003         	goto	l250
  1019  000752                     u4500:
  1020  000752  A480               	btfss	128,2,c	;volatile
  1021  000754  EFAE  F003         	goto	u4511
  1022  000758  EFB0  F003         	goto	u4510
  1023  00075C                     u4511:
  1024  00075C  EFC4  F003         	goto	l250
  1025  000760                     u4510:
  1026  000760                     
  1027                           ;hachiko_0.c: 208:                     moverMotor('e','t',70);
  1028  000760  0E74               	movlw	116
  1029  000762  6E08               	movwf	moverMotor@sentido^0,c
  1030  000764  0E00               	movlw	0
  1031  000766  6E0A               	movwf	(moverMotor@velocidade+1)^0,c
  1032  000768  0E46               	movlw	70
  1033  00076A  6E09               	movwf	moverMotor@velocidade^0,c
  1034  00076C  0E65               	movlw	101
  1035  00076E  EC0C  F012         	call	_moverMotor
  1036                           
  1037                           ;hachiko_0.c: 209:                     moverMotor('d','f',70);
  1038  000772  0E66               	movlw	102
  1039  000774  6E08               	movwf	moverMotor@sentido^0,c
  1040  000776  0E00               	movlw	0
  1041  000778  6E0A               	movwf	(moverMotor@velocidade+1)^0,c
  1042  00077A  0E46               	movlw	70
  1043  00077C  6E09               	movwf	moverMotor@velocidade^0,c
  1044  00077E  0E64               	movlw	100
  1045  000780  EC0C  F012         	call	_moverMotor
  1046                           
  1047                           ;hachiko_0.c: 210:                 }
  1048  000784  EF7B  F004         	goto	l2688
  1049  000788                     l250:
  1050  000788  A280               	btfss	128,1,c	;volatile
  1051  00078A  EFC9  F003         	goto	u4521
  1052  00078E  EFCB  F003         	goto	u4520
  1053  000792                     u4521:
  1054  000792  EFFB  F003         	goto	l252
  1055  000796                     u4520:
  1056  000796  B880               	btfsc	128,4,c	;volatile
  1057  000798  EFD0  F003         	goto	u4531
  1058  00079C  EFD2  F003         	goto	u4530
  1059  0007A0                     u4531:
  1060  0007A0  EFFB  F003         	goto	l252
  1061  0007A4                     u4530:
  1062  0007A4  B082               	btfsc	130,0,c	;volatile
  1063  0007A6  EFD7  F003         	goto	u4541
  1064  0007AA  EFD9  F003         	goto	u4540
  1065  0007AE                     u4541:
  1066  0007AE  EFFB  F003         	goto	l252
  1067  0007B2                     u4540:
  1068  0007B2  A680               	btfss	128,3,c	;volatile
  1069  0007B4  EFDE  F003         	goto	u4551
  1070  0007B8  EFE0  F003         	goto	u4550
  1071  0007BC                     u4551:
  1072  0007BC  EFFB  F003         	goto	l252
  1073  0007C0                     u4550:
  1074  0007C0  A480               	btfss	128,2,c	;volatile
  1075  0007C2  EFE5  F003         	goto	u4561
  1076  0007C6  EFE7  F003         	goto	u4560
  1077  0007CA                     u4561:
  1078  0007CA  EFFB  F003         	goto	l252
  1079  0007CE                     u4560:
  1080  0007CE                     
  1081                           ;hachiko_0.c: 212:                     moverMotor('e','t',70);
  1082  0007CE  0E74               	movlw	116
  1083  0007D0  6E08               	movwf	moverMotor@sentido^0,c
  1084  0007D2  0E00               	movlw	0
  1085  0007D4  6E0A               	movwf	(moverMotor@velocidade+1)^0,c
  1086  0007D6  0E46               	movlw	70
  1087  0007D8  6E09               	movwf	moverMotor@velocidade^0,c
  1088  0007DA  0E65               	movlw	101
  1089  0007DC  EC0C  F012         	call	_moverMotor
  1090                           
  1091                           ;hachiko_0.c: 213:                     moverMotor('d','f',70);
  1092  0007E0  0E66               	movlw	102
  1093  0007E2  6E08               	movwf	moverMotor@sentido^0,c
  1094  0007E4  0E00               	movlw	0
  1095  0007E6  6E0A               	movwf	(moverMotor@velocidade+1)^0,c
  1096  0007E8  0E46               	movlw	70
  1097  0007EA  6E09               	movwf	moverMotor@velocidade^0,c
  1098  0007EC  0E64               	movlw	100
  1099  0007EE  EC0C  F012         	call	_moverMotor
  1100                           
  1101                           ;hachiko_0.c: 214:                 }
  1102  0007F2  EF7B  F004         	goto	l2688
  1103  0007F6                     l252:
  1104  0007F6  A280               	btfss	128,1,c	;volatile
  1105  0007F8  EF00  F004         	goto	u4571
  1106  0007FC  EF02  F004         	goto	u4570
  1107  000800                     u4571:
  1108  000800  EF32  F004         	goto	l254
  1109  000804                     u4570:
  1110  000804  A880               	btfss	128,4,c	;volatile
  1111  000806  EF07  F004         	goto	u4581
  1112  00080A  EF09  F004         	goto	u4580
  1113  00080E                     u4581:
  1114  00080E  EF32  F004         	goto	l254
  1115  000812                     u4580:
  1116  000812  A082               	btfss	130,0,c	;volatile
  1117  000814  EF0E  F004         	goto	u4591
  1118  000818  EF10  F004         	goto	u4590
  1119  00081C                     u4591:
  1120  00081C  EF32  F004         	goto	l254
  1121  000820                     u4590:
  1122  000820  A680               	btfss	128,3,c	;volatile
  1123  000822  EF15  F004         	goto	u4601
  1124  000826  EF17  F004         	goto	u4600
  1125  00082A                     u4601:
  1126  00082A  EF32  F004         	goto	l254
  1127  00082E                     u4600:
  1128  00082E  B480               	btfsc	128,2,c	;volatile
  1129  000830  EF1C  F004         	goto	u4611
  1130  000834  EF1E  F004         	goto	u4610
  1131  000838                     u4611:
  1132  000838  EF32  F004         	goto	l254
  1133  00083C                     u4610:
  1134  00083C                     
  1135                           ;hachiko_0.c: 216:                     moverMotor('e','f',70);
  1136  00083C  0E66               	movlw	102
  1137  00083E  6E08               	movwf	moverMotor@sentido^0,c
  1138  000840  0E00               	movlw	0
  1139  000842  6E0A               	movwf	(moverMotor@velocidade+1)^0,c
  1140  000844  0E46               	movlw	70
  1141  000846  6E09               	movwf	moverMotor@velocidade^0,c
  1142  000848  0E65               	movlw	101
  1143  00084A  EC0C  F012         	call	_moverMotor
  1144                           
  1145                           ;hachiko_0.c: 217:                     moverMotor('d','t',70);
  1146  00084E  0E74               	movlw	116
  1147  000850  6E08               	movwf	moverMotor@sentido^0,c
  1148  000852  0E00               	movlw	0
  1149  000854  6E0A               	movwf	(moverMotor@velocidade+1)^0,c
  1150  000856  0E46               	movlw	70
  1151  000858  6E09               	movwf	moverMotor@velocidade^0,c
  1152  00085A  0E64               	movlw	100
  1153  00085C  EC0C  F012         	call	_moverMotor
  1154                           
  1155                           ;hachiko_0.c: 218:                 }
  1156  000860  EF7B  F004         	goto	l2688
  1157  000864                     l254:
  1158  000864  A280               	btfss	128,1,c	;volatile
  1159  000866  EF37  F004         	goto	u4621
  1160  00086A  EF39  F004         	goto	u4620
  1161  00086E                     u4621:
  1162  00086E  EF69  F004         	goto	l2686
  1163  000872                     u4620:
  1164  000872  B880               	btfsc	128,4,c	;volatile
  1165  000874  EF3E  F004         	goto	u4631
  1166  000878  EF40  F004         	goto	u4630
  1167  00087C                     u4631:
  1168  00087C  EF69  F004         	goto	l2686
  1169  000880                     u4630:
  1170  000880  B082               	btfsc	130,0,c	;volatile
  1171  000882  EF45  F004         	goto	u4641
  1172  000886  EF47  F004         	goto	u4640
  1173  00088A                     u4641:
  1174  00088A  EF69  F004         	goto	l2686
  1175  00088E                     u4640:
  1176  00088E  B680               	btfsc	128,3,c	;volatile
  1177  000890  EF4C  F004         	goto	u4651
  1178  000894  EF4E  F004         	goto	u4650
  1179  000898                     u4651:
  1180  000898  EF69  F004         	goto	l2686
  1181  00089C                     u4650:
  1182  00089C  A480               	btfss	128,2,c	;volatile
  1183  00089E  EF53  F004         	goto	u4661
  1184  0008A2  EF55  F004         	goto	u4660
  1185  0008A6                     u4661:
  1186  0008A6  EF69  F004         	goto	l2686
  1187  0008AA                     u4660:
  1188  0008AA                     
  1189                           ;hachiko_0.c: 220:                     moverMotor('d','f',100);
  1190  0008AA  0E66               	movlw	102
  1191  0008AC  6E08               	movwf	moverMotor@sentido^0,c
  1192  0008AE  0E00               	movlw	0
  1193  0008B0  6E0A               	movwf	(moverMotor@velocidade+1)^0,c
  1194  0008B2  0E64               	movlw	100
  1195  0008B4  6E09               	movwf	moverMotor@velocidade^0,c
  1196  0008B6  0E64               	movlw	100
  1197  0008B8  EC0C  F012         	call	_moverMotor
  1198                           
  1199                           ;hachiko_0.c: 221:                     moverMotor('e','f',100);
  1200  0008BC  0E66               	movlw	102
  1201  0008BE  6E08               	movwf	moverMotor@sentido^0,c
  1202  0008C0  0E00               	movlw	0
  1203  0008C2  6E0A               	movwf	(moverMotor@velocidade+1)^0,c
  1204  0008C4  0E64               	movlw	100
  1205  0008C6  6E09               	movwf	moverMotor@velocidade^0,c
  1206  0008C8  0E65               	movlw	101
  1207  0008CA  EC0C  F012         	call	_moverMotor
  1208                           
  1209                           ;hachiko_0.c: 222:                 }
  1210  0008CE  EF7B  F004         	goto	l2688
  1211  0008D2                     l2686:
  1212                           
  1213                           ;hachiko_0.c: 224:                     moverMotor('d','f',70);
  1214  0008D2  0E66               	movlw	102
  1215  0008D4  6E08               	movwf	moverMotor@sentido^0,c
  1216  0008D6  0E00               	movlw	0
  1217  0008D8  6E0A               	movwf	(moverMotor@velocidade+1)^0,c
  1218  0008DA  0E46               	movlw	70
  1219  0008DC  6E09               	movwf	moverMotor@velocidade^0,c
  1220  0008DE  0E64               	movlw	100
  1221  0008E0  EC0C  F012         	call	_moverMotor
  1222                           
  1223                           ;hachiko_0.c: 225:                     moverMotor('e','f',70);
  1224  0008E4  0E66               	movlw	102
  1225  0008E6  6E08               	movwf	moverMotor@sentido^0,c
  1226  0008E8  0E00               	movlw	0
  1227  0008EA  6E0A               	movwf	(moverMotor@velocidade+1)^0,c
  1228  0008EC  0E46               	movlw	70
  1229  0008EE  6E09               	movwf	moverMotor@velocidade^0,c
  1230  0008F0  0E65               	movlw	101
  1231  0008F2  EC0C  F012         	call	_moverMotor
  1232  0008F6                     l2688:
  1233                           
  1234                           ;hachiko_0.c: 229:                 if(TMR0IF){
  1235  0008F6  A4F2               	btfss	4082,2,c	;volatile
  1236  0008F8  EF80  F004         	goto	u4671
  1237  0008FC  EF82  F004         	goto	u4670
  1238  000900                     u4671:
  1239  000900  EF88  F004         	goto	l2696
  1240  000904                     u4670:
  1241  000904                     
  1242                           ;hachiko_0.c: 230:                     TMR0IF = 0;
  1243  000904  94F2               	bcf	4082,2,c	;volatile
  1244  000906                     
  1245                           ;hachiko_0.c: 231:                     TMR0L = 0x78;
  1246  000906  0E78               	movlw	120
  1247  000908  6ED6               	movwf	214,c	;volatile
  1248                           
  1249                           ;hachiko_0.c: 232:                     TMR0H = 0xF8;
  1250  00090A  0EF8               	movlw	248
  1251  00090C  6ED7               	movwf	215,c	;volatile
  1252  00090E                     
  1253                           ;hachiko_0.c: 233:                     cont_tmr++;
  1254  00090E  2A12               	incf	main@cont_tmr^0,f,c
  1255  000910                     l2696:
  1256                           
  1257                           ;hachiko_0.c: 236:                 if(acao == "parar"){
  1258  000910  0E58               	movlw	low STR_16
  1259  000912  181C               	xorwf	_acao^0,w,c
  1260  000914  E107               	bnz	u4681
  1261  000916  0E03               	movlw	high STR_16
  1262  000918  181D               	xorwf	(_acao+1)^0,w,c
  1263  00091A  A4D8               	btfss	status,2,c
  1264  00091C  EF92  F004         	goto	u4681
  1265  000920  EF94  F004         	goto	u4680
  1266  000924                     u4681:
  1267  000924  EF98  F004         	goto	l2700
  1268  000928                     u4680:
  1269  000928                     
  1270                           ;hachiko_0.c: 237:                     pararMotor();
  1271  000928  ECF2  F012         	call	_pararMotor	;wreg free
  1272                           
  1273                           ;hachiko_0.c: 238:                     break;
  1274  00092C  EFA0  F004         	goto	l260
  1275  000930                     l2700:
  1276                           
  1277                           ;hachiko_0.c: 175:             while(cont_tmr < 0x64){
  1278  000930  0E63               	movlw	99
  1279  000932  6412               	cpfsgt	main@cont_tmr^0,c
  1280  000934  EF9E  F004         	goto	u4691
  1281  000938  EFA0  F004         	goto	u4690
  1282  00093C                     u4691:
  1283  00093C  EF31  F002         	goto	l233
  1284  000940                     u4690:
  1285  000940                     l260:
  1286                           
  1287                           ;hachiko_0.c: 241:             TMR0ON = 0;
  1288  000940  9ED5               	bcf	4053,7,c	;volatile
  1289  000942                     l2702:
  1290                           
  1291                           ;hachiko_0.c: 244:         if(acao == "toquinho"){
  1292  000942  0E1D               	movlw	low STR_3
  1293  000944  181C               	xorwf	_acao^0,w,c
  1294  000946  E107               	bnz	u4701
  1295  000948  0E03               	movlw	high STR_3
  1296  00094A  181D               	xorwf	(_acao+1)^0,w,c
  1297  00094C  A4D8               	btfss	status,2,c
  1298  00094E  EFAB  F004         	goto	u4701
  1299  000952  EFAD  F004         	goto	u4700
  1300  000956                     u4701:
  1301  000956  EF0C  F007         	goto	l2826
  1302  00095A                     u4700:
  1303  00095A                     
  1304                           ;hachiko_0.c: 248:             TMR1ON = 1;
  1305  00095A  80CD               	bsf	4045,0,c	;volatile
  1306  00095C                     
  1307                           ;hachiko_0.c: 249:             TMR1L = 0xDE;
  1308  00095C  0EDE               	movlw	222
  1309  00095E  6ECE               	movwf	206,c	;volatile
  1310                           
  1311                           ;hachiko_0.c: 250:             TMR1H = 0x0B;
  1312  000960  0E0B               	movlw	11
  1313  000962  6ECF               	movwf	207,c	;volatile
  1314                           
  1315                           ;hachiko_0.c: 251:             char aux = 0x00;
  1316  000964  0E00               	movlw	0
  1317  000966  6E16               	movwf	main@aux^0,c
  1318                           
  1319                           ;hachiko_0.c: 252:             int cont = 0;
  1320  000968  0E00               	movlw	0
  1321  00096A  6E15               	movwf	(main@cont+1)^0,c
  1322  00096C  0E00               	movlw	0
  1323  00096E  6E14               	movwf	main@cont^0,c
  1324                           
  1325                           ;hachiko_0.c: 253:             while(aux < 0x0A){
  1326  000970  EF03  F007         	goto	l2824
  1327  000974                     l263:
  1328                           
  1329                           ;hachiko_0.c: 254:                 if(TMR1IF){
  1330  000974  A09E               	btfss	3998,0,c	;volatile
  1331  000976  EFBF  F004         	goto	u4711
  1332  00097A  EFC1  F004         	goto	u4710
  1333  00097E                     u4711:
  1334  00097E  EFC8  F004         	goto	l2714
  1335  000982                     u4710:
  1336  000982                     
  1337                           ;hachiko_0.c: 255:                     TMR1IF = 0;
  1338  000982  909E               	bcf	3998,0,c	;volatile
  1339  000984                     
  1340                           ;hachiko_0.c: 256:                     TMR1L = 0xDE;
  1341  000984  0EDE               	movlw	222
  1342  000986  6ECE               	movwf	206,c	;volatile
  1343                           
  1344                           ;hachiko_0.c: 257:                     TMR1H = 0x0B;
  1345  000988  0E0B               	movlw	11
  1346  00098A  6ECF               	movwf	207,c	;volatile
  1347  00098C                     
  1348                           ;hachiko_0.c: 258:                     cont++;
  1349  00098C  4A14               	infsnz	main@cont^0,f,c
  1350  00098E  2A15               	incf	(main@cont+1)^0,f,c
  1351  000990                     l2714:
  1352                           
  1353                           ;hachiko_0.c: 260:                 if(cont < 10){
  1354  000990  BE15               	btfsc	(main@cont+1)^0,7,c
  1355  000992  EFD6  F004         	goto	u4720
  1356  000996  5015               	movf	(main@cont+1)^0,w,c
  1357  000998  E107               	bnz	u4721
  1358  00099A  0E0A               	movlw	10
  1359  00099C  5C14               	subwf	main@cont^0,w,c
  1360  00099E  B0D8               	btfsc	status,0,c
  1361  0009A0  EFD4  F004         	goto	u4721
  1362  0009A4  EFD6  F004         	goto	u4720
  1363  0009A8                     u4721:
  1364  0009A8  EFEA  F006         	goto	l2814
  1365  0009AC                     u4720:
  1366  0009AC                     
  1367                           ;hachiko_0.c: 261:                     if(!PORTAbits.RA1 && PORTAbits.RA4 && PORTCbits.R
      +                          C0 && PORTAbits.RA3 && PORTAbits.RA2){
  1368  0009AC  B280               	btfsc	128,1,c	;volatile
  1369  0009AE  EFDB  F004         	goto	u4731
  1370  0009B2  EFDD  F004         	goto	u4730
  1371  0009B6                     u4731:
  1372  0009B6  EF0D  F005         	goto	l266
  1373  0009BA                     u4730:
  1374  0009BA  A880               	btfss	128,4,c	;volatile
  1375  0009BC  EFE2  F004         	goto	u4741
  1376  0009C0  EFE4  F004         	goto	u4740
  1377  0009C4                     u4741:
  1378  0009C4  EF0D  F005         	goto	l266
  1379  0009C8                     u4740:
  1380  0009C8  A082               	btfss	130,0,c	;volatile
  1381  0009CA  EFE9  F004         	goto	u4751
  1382  0009CE  EFEB  F004         	goto	u4750
  1383  0009D2                     u4751:
  1384  0009D2  EF0D  F005         	goto	l266
  1385  0009D6                     u4750:
  1386  0009D6  A680               	btfss	128,3,c	;volatile
  1387  0009D8  EFF0  F004         	goto	u4761
  1388  0009DC  EFF2  F004         	goto	u4760
  1389  0009E0                     u4761:
  1390  0009E0  EF0D  F005         	goto	l266
  1391  0009E4                     u4760:
  1392  0009E4  A480               	btfss	128,2,c	;volatile
  1393  0009E6  EFF7  F004         	goto	u4771
  1394  0009EA  EFF9  F004         	goto	u4770
  1395  0009EE                     u4771:
  1396  0009EE  EF0D  F005         	goto	l266
  1397  0009F2                     u4770:
  1398  0009F2                     
  1399                           ;hachiko_0.c: 262:                         moverMotor('e','t',70);
  1400  0009F2  0E74               	movlw	116
  1401  0009F4  6E08               	movwf	moverMotor@sentido^0,c
  1402  0009F6  0E00               	movlw	0
  1403  0009F8  6E0A               	movwf	(moverMotor@velocidade+1)^0,c
  1404  0009FA  0E46               	movlw	70
  1405  0009FC  6E09               	movwf	moverMotor@velocidade^0,c
  1406  0009FE  0E65               	movlw	101
  1407  000A00  EC0C  F012         	call	_moverMotor
  1408                           
  1409                           ;hachiko_0.c: 263:                         moverMotor('d','f',70);
  1410  000A04  0E66               	movlw	102
  1411  000A06  6E08               	movwf	moverMotor@sentido^0,c
  1412  000A08  0E00               	movlw	0
  1413  000A0A  6E0A               	movwf	(moverMotor@velocidade+1)^0,c
  1414  000A0C  0E46               	movlw	70
  1415  000A0E  6E09               	movwf	moverMotor@velocidade^0,c
  1416  000A10  0E64               	movlw	100
  1417  000A12  EC0C  F012         	call	_moverMotor
  1418                           
  1419                           ;hachiko_0.c: 264:                     }
  1420  000A16  EFF3  F006         	goto	l2820
  1421  000A1A                     l266:
  1422  000A1A  A280               	btfss	128,1,c	;volatile
  1423  000A1C  EF12  F005         	goto	u4781
  1424  000A20  EF14  F005         	goto	u4780
  1425  000A24                     u4781:
  1426  000A24  EF44  F005         	goto	l268
  1427  000A28                     u4780:
  1428  000A28  A880               	btfss	128,4,c	;volatile
  1429  000A2A  EF19  F005         	goto	u4791
  1430  000A2E  EF1B  F005         	goto	u4790
  1431  000A32                     u4791:
  1432  000A32  EF44  F005         	goto	l268
  1433  000A36                     u4790:
  1434  000A36  B082               	btfsc	130,0,c	;volatile
  1435  000A38  EF20  F005         	goto	u4801
  1436  000A3C  EF22  F005         	goto	u4800
  1437  000A40                     u4801:
  1438  000A40  EF44  F005         	goto	l268
  1439  000A44                     u4800:
  1440  000A44  A680               	btfss	128,3,c	;volatile
  1441  000A46  EF27  F005         	goto	u4811
  1442  000A4A  EF29  F005         	goto	u4810
  1443  000A4E                     u4811:
  1444  000A4E  EF44  F005         	goto	l268
  1445  000A52                     u4810:
  1446  000A52  A480               	btfss	128,2,c	;volatile
  1447  000A54  EF2E  F005         	goto	u4821
  1448  000A58  EF30  F005         	goto	u4820
  1449  000A5C                     u4821:
  1450  000A5C  EF44  F005         	goto	l268
  1451  000A60                     u4820:
  1452  000A60                     
  1453                           ;hachiko_0.c: 266:                         moverMotor('e','f',100);
  1454  000A60  0E66               	movlw	102
  1455  000A62  6E08               	movwf	moverMotor@sentido^0,c
  1456  000A64  0E00               	movlw	0
  1457  000A66  6E0A               	movwf	(moverMotor@velocidade+1)^0,c
  1458  000A68  0E64               	movlw	100
  1459  000A6A  6E09               	movwf	moverMotor@velocidade^0,c
  1460  000A6C  0E65               	movlw	101
  1461  000A6E  EC0C  F012         	call	_moverMotor
  1462                           
  1463                           ;hachiko_0.c: 267:                         moverMotor('d','f',100);
  1464  000A72  0E66               	movlw	102
  1465  000A74  6E08               	movwf	moverMotor@sentido^0,c
  1466  000A76  0E00               	movlw	0
  1467  000A78  6E0A               	movwf	(moverMotor@velocidade+1)^0,c
  1468  000A7A  0E64               	movlw	100
  1469  000A7C  6E09               	movwf	moverMotor@velocidade^0,c
  1470  000A7E  0E64               	movlw	100
  1471  000A80  EC0C  F012         	call	_moverMotor
  1472                           
  1473                           ;hachiko_0.c: 269:                     }
  1474  000A84  EFF3  F006         	goto	l2820
  1475  000A88                     l268:
  1476  000A88  A280               	btfss	128,1,c	;volatile
  1477  000A8A  EF49  F005         	goto	u4831
  1478  000A8E  EF4B  F005         	goto	u4830
  1479  000A92                     u4831:
  1480  000A92  EF7B  F005         	goto	l270
  1481  000A96                     u4830:
  1482  000A96  B880               	btfsc	128,4,c	;volatile
  1483  000A98  EF50  F005         	goto	u4841
  1484  000A9C  EF52  F005         	goto	u4840
  1485  000AA0                     u4841:
  1486  000AA0  EF7B  F005         	goto	l270
  1487  000AA4                     u4840:
  1488  000AA4  A082               	btfss	130,0,c	;volatile
  1489  000AA6  EF57  F005         	goto	u4851
  1490  000AAA  EF59  F005         	goto	u4850
  1491  000AAE                     u4851:
  1492  000AAE  EF7B  F005         	goto	l270
  1493  000AB2                     u4850:
  1494  000AB2  B680               	btfsc	128,3,c	;volatile
  1495  000AB4  EF5E  F005         	goto	u4861
  1496  000AB8  EF60  F005         	goto	u4860
  1497  000ABC                     u4861:
  1498  000ABC  EF7B  F005         	goto	l270
  1499  000AC0                     u4860:
  1500  000AC0  A480               	btfss	128,2,c	;volatile
  1501  000AC2  EF65  F005         	goto	u4871
  1502  000AC6  EF67  F005         	goto	u4870
  1503  000ACA                     u4871:
  1504  000ACA  EF7B  F005         	goto	l270
  1505  000ACE                     u4870:
  1506  000ACE                     
  1507                           ;hachiko_0.c: 271:                         moverMotor('e','f',100);
  1508  000ACE  0E66               	movlw	102
  1509  000AD0  6E08               	movwf	moverMotor@sentido^0,c
  1510  000AD2  0E00               	movlw	0
  1511  000AD4  6E0A               	movwf	(moverMotor@velocidade+1)^0,c
  1512  000AD6  0E64               	movlw	100
  1513  000AD8  6E09               	movwf	moverMotor@velocidade^0,c
  1514  000ADA  0E65               	movlw	101
  1515  000ADC  EC0C  F012         	call	_moverMotor
  1516                           
  1517                           ;hachiko_0.c: 272:                         moverMotor('d','f',100);
  1518  000AE0  0E66               	movlw	102
  1519  000AE2  6E08               	movwf	moverMotor@sentido^0,c
  1520  000AE4  0E00               	movlw	0
  1521  000AE6  6E0A               	movwf	(moverMotor@velocidade+1)^0,c
  1522  000AE8  0E64               	movlw	100
  1523  000AEA  6E09               	movwf	moverMotor@velocidade^0,c
  1524  000AEC  0E64               	movlw	100
  1525  000AEE  EC0C  F012         	call	_moverMotor
  1526                           
  1527                           ;hachiko_0.c: 274:                     }
  1528  000AF2  EFF3  F006         	goto	l2820
  1529  000AF6                     l270:
  1530  000AF6  A280               	btfss	128,1,c	;volatile
  1531  000AF8  EF80  F005         	goto	u4881
  1532  000AFC  EF82  F005         	goto	u4880
  1533  000B00                     u4881:
  1534  000B00  EFB2  F005         	goto	l272
  1535  000B04                     u4880:
  1536  000B04  A880               	btfss	128,4,c	;volatile
  1537  000B06  EF87  F005         	goto	u4891
  1538  000B0A  EF89  F005         	goto	u4890
  1539  000B0E                     u4891:
  1540  000B0E  EFB2  F005         	goto	l272
  1541  000B12                     u4890:
  1542  000B12  A082               	btfss	130,0,c	;volatile
  1543  000B14  EF8E  F005         	goto	u4901
  1544  000B18  EF90  F005         	goto	u4900
  1545  000B1C                     u4901:
  1546  000B1C  EFB2  F005         	goto	l272
  1547  000B20                     u4900:
  1548  000B20  B680               	btfsc	128,3,c	;volatile
  1549  000B22  EF95  F005         	goto	u4911
  1550  000B26  EF97  F005         	goto	u4910
  1551  000B2A                     u4911:
  1552  000B2A  EFB2  F005         	goto	l272
  1553  000B2E                     u4910:
  1554  000B2E  A480               	btfss	128,2,c	;volatile
  1555  000B30  EF9C  F005         	goto	u4921
  1556  000B34  EF9E  F005         	goto	u4920
  1557  000B38                     u4921:
  1558  000B38  EFB2  F005         	goto	l272
  1559  000B3C                     u4920:
  1560  000B3C                     
  1561                           ;hachiko_0.c: 276:                         moverMotor('e','f',70);
  1562  000B3C  0E66               	movlw	102
  1563  000B3E  6E08               	movwf	moverMotor@sentido^0,c
  1564  000B40  0E00               	movlw	0
  1565  000B42  6E0A               	movwf	(moverMotor@velocidade+1)^0,c
  1566  000B44  0E46               	movlw	70
  1567  000B46  6E09               	movwf	moverMotor@velocidade^0,c
  1568  000B48  0E65               	movlw	101
  1569  000B4A  EC0C  F012         	call	_moverMotor
  1570                           
  1571                           ;hachiko_0.c: 277:                         moverMotor('d','t',70);
  1572  000B4E  0E74               	movlw	116
  1573  000B50  6E08               	movwf	moverMotor@sentido^0,c
  1574  000B52  0E00               	movlw	0
  1575  000B54  6E0A               	movwf	(moverMotor@velocidade+1)^0,c
  1576  000B56  0E46               	movlw	70
  1577  000B58  6E09               	movwf	moverMotor@velocidade^0,c
  1578  000B5A  0E64               	movlw	100
  1579  000B5C  EC0C  F012         	call	_moverMotor
  1580                           
  1581                           ;hachiko_0.c: 278:                     }
  1582  000B60  EFF3  F006         	goto	l2820
  1583  000B64                     l272:
  1584  000B64  A280               	btfss	128,1,c	;volatile
  1585  000B66  EFB7  F005         	goto	u4931
  1586  000B6A  EFB9  F005         	goto	u4930
  1587  000B6E                     u4931:
  1588  000B6E  EFE9  F005         	goto	l274
  1589  000B72                     u4930:
  1590  000B72  A880               	btfss	128,4,c	;volatile
  1591  000B74  EFBE  F005         	goto	u4941
  1592  000B78  EFC0  F005         	goto	u4940
  1593  000B7C                     u4941:
  1594  000B7C  EFE9  F005         	goto	l274
  1595  000B80                     u4940:
  1596  000B80  B082               	btfsc	130,0,c	;volatile
  1597  000B82  EFC5  F005         	goto	u4951
  1598  000B86  EFC7  F005         	goto	u4950
  1599  000B8A                     u4951:
  1600  000B8A  EFE9  F005         	goto	l274
  1601  000B8E                     u4950:
  1602  000B8E  B680               	btfsc	128,3,c	;volatile
  1603  000B90  EFCC  F005         	goto	u4961
  1604  000B94  EFCE  F005         	goto	u4960
  1605  000B98                     u4961:
  1606  000B98  EFE9  F005         	goto	l274
  1607  000B9C                     u4960:
  1608  000B9C  A480               	btfss	128,2,c	;volatile
  1609  000B9E  EFD3  F005         	goto	u4971
  1610  000BA2  EFD5  F005         	goto	u4970
  1611  000BA6                     u4971:
  1612  000BA6  EFE9  F005         	goto	l274
  1613  000BAA                     u4970:
  1614  000BAA                     
  1615                           ;hachiko_0.c: 280:                         moverMotor('e','f',70);
  1616  000BAA  0E66               	movlw	102
  1617  000BAC  6E08               	movwf	moverMotor@sentido^0,c
  1618  000BAE  0E00               	movlw	0
  1619  000BB0  6E0A               	movwf	(moverMotor@velocidade+1)^0,c
  1620  000BB2  0E46               	movlw	70
  1621  000BB4  6E09               	movwf	moverMotor@velocidade^0,c
  1622  000BB6  0E65               	movlw	101
  1623  000BB8  EC0C  F012         	call	_moverMotor
  1624                           
  1625                           ;hachiko_0.c: 281:                         moverMotor('d','t',70);
  1626  000BBC  0E74               	movlw	116
  1627  000BBE  6E08               	movwf	moverMotor@sentido^0,c
  1628  000BC0  0E00               	movlw	0
  1629  000BC2  6E0A               	movwf	(moverMotor@velocidade+1)^0,c
  1630  000BC4  0E46               	movlw	70
  1631  000BC6  6E09               	movwf	moverMotor@velocidade^0,c
  1632  000BC8  0E64               	movlw	100
  1633  000BCA  EC0C  F012         	call	_moverMotor
  1634                           
  1635                           ;hachiko_0.c: 282:                     }
  1636  000BCE  EFF3  F006         	goto	l2820
  1637  000BD2                     l274:
  1638  000BD2  A280               	btfss	128,1,c	;volatile
  1639  000BD4  EFEE  F005         	goto	u4981
  1640  000BD8  EFF0  F005         	goto	u4980
  1641  000BDC                     u4981:
  1642  000BDC  EF20  F006         	goto	l276
  1643  000BE0                     u4980:
  1644  000BE0  B880               	btfsc	128,4,c	;volatile
  1645  000BE2  EFF5  F005         	goto	u4991
  1646  000BE6  EFF7  F005         	goto	u4990
  1647  000BEA                     u4991:
  1648  000BEA  EF20  F006         	goto	l276
  1649  000BEE                     u4990:
  1650  000BEE  A082               	btfss	130,0,c	;volatile
  1651  000BF0  EFFC  F005         	goto	u5001
  1652  000BF4  EFFE  F005         	goto	u5000
  1653  000BF8                     u5001:
  1654  000BF8  EF20  F006         	goto	l276
  1655  000BFC                     u5000:
  1656  000BFC  A680               	btfss	128,3,c	;volatile
  1657  000BFE  EF03  F006         	goto	u5011
  1658  000C02  EF05  F006         	goto	u5010
  1659  000C06                     u5011:
  1660  000C06  EF20  F006         	goto	l276
  1661  000C0A                     u5010:
  1662  000C0A  A480               	btfss	128,2,c	;volatile
  1663  000C0C  EF0A  F006         	goto	u5021
  1664  000C10  EF0C  F006         	goto	u5020
  1665  000C14                     u5021:
  1666  000C14  EF20  F006         	goto	l276
  1667  000C18                     u5020:
  1668  000C18                     
  1669                           ;hachiko_0.c: 284:                         moverMotor('e','t',70);
  1670  000C18  0E74               	movlw	116
  1671  000C1A  6E08               	movwf	moverMotor@sentido^0,c
  1672  000C1C  0E00               	movlw	0
  1673  000C1E  6E0A               	movwf	(moverMotor@velocidade+1)^0,c
  1674  000C20  0E46               	movlw	70
  1675  000C22  6E09               	movwf	moverMotor@velocidade^0,c
  1676  000C24  0E65               	movlw	101
  1677  000C26  EC0C  F012         	call	_moverMotor
  1678                           
  1679                           ;hachiko_0.c: 285:                         moverMotor('d','f',70);
  1680  000C2A  0E66               	movlw	102
  1681  000C2C  6E08               	movwf	moverMotor@sentido^0,c
  1682  000C2E  0E00               	movlw	0
  1683  000C30  6E0A               	movwf	(moverMotor@velocidade+1)^0,c
  1684  000C32  0E46               	movlw	70
  1685  000C34  6E09               	movwf	moverMotor@velocidade^0,c
  1686  000C36  0E64               	movlw	100
  1687  000C38  EC0C  F012         	call	_moverMotor
  1688                           
  1689                           ;hachiko_0.c: 286:                     }
  1690  000C3C  EFF3  F006         	goto	l2820
  1691  000C40                     l276:
  1692  000C40  A280               	btfss	128,1,c	;volatile
  1693  000C42  EF25  F006         	goto	u5031
  1694  000C46  EF27  F006         	goto	u5030
  1695  000C4A                     u5031:
  1696  000C4A  EF57  F006         	goto	l278
  1697  000C4E                     u5030:
  1698  000C4E  B880               	btfsc	128,4,c	;volatile
  1699  000C50  EF2C  F006         	goto	u5041
  1700  000C54  EF2E  F006         	goto	u5040
  1701  000C58                     u5041:
  1702  000C58  EF57  F006         	goto	l278
  1703  000C5C                     u5040:
  1704  000C5C  B082               	btfsc	130,0,c	;volatile
  1705  000C5E  EF33  F006         	goto	u5051
  1706  000C62  EF35  F006         	goto	u5050
  1707  000C66                     u5051:
  1708  000C66  EF57  F006         	goto	l278
  1709  000C6A                     u5050:
  1710  000C6A  A680               	btfss	128,3,c	;volatile
  1711  000C6C  EF3A  F006         	goto	u5061
  1712  000C70  EF3C  F006         	goto	u5060
  1713  000C74                     u5061:
  1714  000C74  EF57  F006         	goto	l278
  1715  000C78                     u5060:
  1716  000C78  A480               	btfss	128,2,c	;volatile
  1717  000C7A  EF41  F006         	goto	u5071
  1718  000C7E  EF43  F006         	goto	u5070
  1719  000C82                     u5071:
  1720  000C82  EF57  F006         	goto	l278
  1721  000C86                     u5070:
  1722  000C86                     
  1723                           ;hachiko_0.c: 288:                         moverMotor('e','t',70);
  1724  000C86  0E74               	movlw	116
  1725  000C88  6E08               	movwf	moverMotor@sentido^0,c
  1726  000C8A  0E00               	movlw	0
  1727  000C8C  6E0A               	movwf	(moverMotor@velocidade+1)^0,c
  1728  000C8E  0E46               	movlw	70
  1729  000C90  6E09               	movwf	moverMotor@velocidade^0,c
  1730  000C92  0E65               	movlw	101
  1731  000C94  EC0C  F012         	call	_moverMotor
  1732                           
  1733                           ;hachiko_0.c: 289:                         moverMotor('d','f',70);
  1734  000C98  0E66               	movlw	102
  1735  000C9A  6E08               	movwf	moverMotor@sentido^0,c
  1736  000C9C  0E00               	movlw	0
  1737  000C9E  6E0A               	movwf	(moverMotor@velocidade+1)^0,c
  1738  000CA0  0E46               	movlw	70
  1739  000CA2  6E09               	movwf	moverMotor@velocidade^0,c
  1740  000CA4  0E64               	movlw	100
  1741  000CA6  EC0C  F012         	call	_moverMotor
  1742                           
  1743                           ;hachiko_0.c: 290:                     }
  1744  000CAA  EFF3  F006         	goto	l2820
  1745  000CAE                     l278:
  1746  000CAE  A280               	btfss	128,1,c	;volatile
  1747  000CB0  EF5C  F006         	goto	u5081
  1748  000CB4  EF5E  F006         	goto	u5080
  1749  000CB8                     u5081:
  1750  000CB8  EF8E  F006         	goto	l280
  1751  000CBC                     u5080:
  1752  000CBC  A880               	btfss	128,4,c	;volatile
  1753  000CBE  EF63  F006         	goto	u5091
  1754  000CC2  EF65  F006         	goto	u5090
  1755  000CC6                     u5091:
  1756  000CC6  EF8E  F006         	goto	l280
  1757  000CCA                     u5090:
  1758  000CCA  A082               	btfss	130,0,c	;volatile
  1759  000CCC  EF6A  F006         	goto	u5101
  1760  000CD0  EF6C  F006         	goto	u5100
  1761  000CD4                     u5101:
  1762  000CD4  EF8E  F006         	goto	l280
  1763  000CD8                     u5100:
  1764  000CD8  A680               	btfss	128,3,c	;volatile
  1765  000CDA  EF71  F006         	goto	u5111
  1766  000CDE  EF73  F006         	goto	u5110
  1767  000CE2                     u5111:
  1768  000CE2  EF8E  F006         	goto	l280
  1769  000CE6                     u5110:
  1770  000CE6  B480               	btfsc	128,2,c	;volatile
  1771  000CE8  EF78  F006         	goto	u5121
  1772  000CEC  EF7A  F006         	goto	u5120
  1773  000CF0                     u5121:
  1774  000CF0  EF8E  F006         	goto	l280
  1775  000CF4                     u5120:
  1776  000CF4                     
  1777                           ;hachiko_0.c: 292:                         moverMotor('e','f',70);
  1778  000CF4  0E66               	movlw	102
  1779  000CF6  6E08               	movwf	moverMotor@sentido^0,c
  1780  000CF8  0E00               	movlw	0
  1781  000CFA  6E0A               	movwf	(moverMotor@velocidade+1)^0,c
  1782  000CFC  0E46               	movlw	70
  1783  000CFE  6E09               	movwf	moverMotor@velocidade^0,c
  1784  000D00  0E65               	movlw	101
  1785  000D02  EC0C  F012         	call	_moverMotor
  1786                           
  1787                           ;hachiko_0.c: 293:                         moverMotor('d','t',70);
  1788  000D06  0E74               	movlw	116
  1789  000D08  6E08               	movwf	moverMotor@sentido^0,c
  1790  000D0A  0E00               	movlw	0
  1791  000D0C  6E0A               	movwf	(moverMotor@velocidade+1)^0,c
  1792  000D0E  0E46               	movlw	70
  1793  000D10  6E09               	movwf	moverMotor@velocidade^0,c
  1794  000D12  0E64               	movlw	100
  1795  000D14  EC0C  F012         	call	_moverMotor
  1796                           
  1797                           ;hachiko_0.c: 294:                     }
  1798  000D18  EFF3  F006         	goto	l2820
  1799  000D1C                     l280:
  1800  000D1C  A280               	btfss	128,1,c	;volatile
  1801  000D1E  EF93  F006         	goto	u5131
  1802  000D22  EF95  F006         	goto	u5130
  1803  000D26                     u5131:
  1804  000D26  EFC5  F006         	goto	l2808
  1805  000D2A                     u5130:
  1806  000D2A  B880               	btfsc	128,4,c	;volatile
  1807  000D2C  EF9A  F006         	goto	u5141
  1808  000D30  EF9C  F006         	goto	u5140
  1809  000D34                     u5141:
  1810  000D34  EFC5  F006         	goto	l2808
  1811  000D38                     u5140:
  1812  000D38  B082               	btfsc	130,0,c	;volatile
  1813  000D3A  EFA1  F006         	goto	u5151
  1814  000D3E  EFA3  F006         	goto	u5150
  1815  000D42                     u5151:
  1816  000D42  EFC5  F006         	goto	l2808
  1817  000D46                     u5150:
  1818  000D46  B680               	btfsc	128,3,c	;volatile
  1819  000D48  EFA8  F006         	goto	u5161
  1820  000D4C  EFAA  F006         	goto	u5160
  1821  000D50                     u5161:
  1822  000D50  EFC5  F006         	goto	l2808
  1823  000D54                     u5160:
  1824  000D54  A480               	btfss	128,2,c	;volatile
  1825  000D56  EFAF  F006         	goto	u5171
  1826  000D5A  EFB1  F006         	goto	u5170
  1827  000D5E                     u5171:
  1828  000D5E  EFC5  F006         	goto	l2808
  1829  000D62                     u5170:
  1830  000D62                     
  1831                           ;hachiko_0.c: 296:                         moverMotor('d','f',100);
  1832  000D62  0E66               	movlw	102
  1833  000D64  6E08               	movwf	moverMotor@sentido^0,c
  1834  000D66  0E00               	movlw	0
  1835  000D68  6E0A               	movwf	(moverMotor@velocidade+1)^0,c
  1836  000D6A  0E64               	movlw	100
  1837  000D6C  6E09               	movwf	moverMotor@velocidade^0,c
  1838  000D6E  0E64               	movlw	100
  1839  000D70  EC0C  F012         	call	_moverMotor
  1840                           
  1841                           ;hachiko_0.c: 297:                         moverMotor('e','f',100);
  1842  000D74  0E66               	movlw	102
  1843  000D76  6E08               	movwf	moverMotor@sentido^0,c
  1844  000D78  0E00               	movlw	0
  1845  000D7A  6E0A               	movwf	(moverMotor@velocidade+1)^0,c
  1846  000D7C  0E64               	movlw	100
  1847  000D7E  6E09               	movwf	moverMotor@velocidade^0,c
  1848  000D80  0E65               	movlw	101
  1849  000D82  EC0C  F012         	call	_moverMotor
  1850                           
  1851                           ;hachiko_0.c: 298:                     }
  1852  000D86  EFF3  F006         	goto	l2820
  1853  000D8A                     l2808:
  1854                           
  1855                           ;hachiko_0.c: 300:                         if(cont < 1){
  1856  000D8A  BE15               	btfsc	(main@cont+1)^0,7,c
  1857  000D8C  EFD2  F006         	goto	u5180
  1858  000D90  5015               	movf	(main@cont+1)^0,w,c
  1859  000D92  E106               	bnz	u5181
  1860  000D94  0414               	decf	main@cont^0,w,c
  1861  000D96  B0D8               	btfsc	status,0,c
  1862  000D98  EFD0  F006         	goto	u5181
  1863  000D9C  EFD2  F006         	goto	u5180
  1864  000DA0                     u5181:
  1865  000DA0  EFE6  F006         	goto	l2812
  1866  000DA4                     u5180:
  1867  000DA4                     
  1868                           ;hachiko_0.c: 301:                             moverMotor('d','f',60);
  1869  000DA4  0E66               	movlw	102
  1870  000DA6  6E08               	movwf	moverMotor@sentido^0,c
  1871  000DA8  0E00               	movlw	0
  1872  000DAA  6E0A               	movwf	(moverMotor@velocidade+1)^0,c
  1873  000DAC  0E3C               	movlw	60
  1874  000DAE  6E09               	movwf	moverMotor@velocidade^0,c
  1875  000DB0  0E64               	movlw	100
  1876  000DB2  EC0C  F012         	call	_moverMotor
  1877                           
  1878                           ;hachiko_0.c: 302:                             moverMotor('e','f',60);
  1879  000DB6  0E66               	movlw	102
  1880  000DB8  6E08               	movwf	moverMotor@sentido^0,c
  1881  000DBA  0E00               	movlw	0
  1882  000DBC  6E0A               	movwf	(moverMotor@velocidade+1)^0,c
  1883  000DBE  0E3C               	movlw	60
  1884  000DC0  6E09               	movwf	moverMotor@velocidade^0,c
  1885  000DC2  0E65               	movlw	101
  1886  000DC4  EC0C  F012         	call	_moverMotor
  1887                           
  1888                           ;hachiko_0.c: 303:                         }
  1889  000DC8  EFF3  F006         	goto	l2820
  1890  000DCC                     l2812:
  1891                           
  1892                           ;hachiko_0.c: 305:                             pararMotor();
  1893  000DCC  ECF2  F012         	call	_pararMotor	;wreg free
  1894  000DD0  EFF3  F006         	goto	l2820
  1895  000DD4                     l2814:
  1896                           
  1897                           ;hachiko_0.c: 310:                     cont = 0;
  1898  000DD4  0E00               	movlw	0
  1899  000DD6  6E15               	movwf	(main@cont+1)^0,c
  1900  000DD8  0E00               	movlw	0
  1901  000DDA  6E14               	movwf	main@cont^0,c
  1902  000DDC                     
  1903                           ;hachiko_0.c: 311:                     aux++;
  1904  000DDC  2A16               	incf	main@aux^0,f,c
  1905  000DDE                     
  1906                           ;hachiko_0.c: 312:                     picUSART(aux + 48);
  1907  000DDE  5016               	movf	main@aux^0,w,c
  1908  000DE0  0F30               	addlw	48
  1909  000DE2  EC2B  F013         	call	_picUSART
  1910  000DE6                     l2820:
  1911                           
  1912                           ;hachiko_0.c: 315:                 if(acao == "parar"){
  1913  000DE6  0E58               	movlw	low STR_16
  1914  000DE8  181C               	xorwf	_acao^0,w,c
  1915  000DEA  E107               	bnz	u5191
  1916  000DEC  0E03               	movlw	high STR_16
  1917  000DEE  181D               	xorwf	(_acao+1)^0,w,c
  1918  000DF0  A4D8               	btfss	status,2,c
  1919  000DF2  EFFD  F006         	goto	u5191
  1920  000DF6  EFFF  F006         	goto	u5190
  1921  000DFA                     u5191:
  1922  000DFA  EF03  F007         	goto	l2824
  1923  000DFE                     u5190:
  1924  000DFE                     
  1925                           ;hachiko_0.c: 316:                     pararMotor();
  1926  000DFE  ECF2  F012         	call	_pararMotor	;wreg free
  1927                           
  1928                           ;hachiko_0.c: 317:                     break;
  1929  000E02  EF0B  F007         	goto	l288
  1930  000E06                     l2824:
  1931                           
  1932                           ;hachiko_0.c: 253:             while(aux < 0x0A){
  1933  000E06  0E09               	movlw	9
  1934  000E08  6416               	cpfsgt	main@aux^0,c
  1935  000E0A  EF09  F007         	goto	u5201
  1936  000E0E  EF0B  F007         	goto	u5200
  1937  000E12                     u5201:
  1938  000E12  EFBA  F004         	goto	l263
  1939  000E16                     u5200:
  1940  000E16                     l288:
  1941                           
  1942                           ;hachiko_0.c: 320:             TMR1ON = 0;
  1943  000E16  90CD               	bcf	4045,0,c	;volatile
  1944  000E18                     l2826:
  1945                           
  1946                           ;hachiko_0.c: 323:         if(acao == "estrela"){
  1947  000E18  0E26               	movlw	low STR_6
  1948  000E1A  181C               	xorwf	_acao^0,w,c
  1949  000E1C  E107               	bnz	u5211
  1950  000E1E  0E03               	movlw	high STR_6
  1951  000E20  181D               	xorwf	(_acao+1)^0,w,c
  1952  000E22  A4D8               	btfss	status,2,c
  1953  000E24  EF16  F007         	goto	u5211
  1954  000E28  EF18  F007         	goto	u5210
  1955  000E2C                     u5211:
  1956  000E2C  EF28  F007         	goto	l2834
  1957  000E30                     u5210:
  1958  000E30                     l2828:
  1959                           
  1960                           ;hachiko_0.c: 325:                 estrela();
  1961  000E30  ECBD  F010         	call	_estrela	;wreg free
  1962  000E34                     
  1963                           ;hachiko_0.c: 327:                 if(acao == "parar"){
  1964  000E34  0E58               	movlw	low STR_16
  1965  000E36  181C               	xorwf	_acao^0,w,c
  1966  000E38  E107               	bnz	u5221
  1967  000E3A  0E03               	movlw	high STR_16
  1968  000E3C  181D               	xorwf	(_acao+1)^0,w,c
  1969  000E3E  A4D8               	btfss	status,2,c
  1970  000E40  EF24  F007         	goto	u5221
  1971  000E44  EF26  F007         	goto	u5220
  1972  000E48                     u5221:
  1973  000E48  EF18  F007         	goto	l2828
  1974  000E4C                     u5220:
  1975  000E4C                     
  1976                           ;hachiko_0.c: 328:                     pararMotor();
  1977  000E4C  ECF2  F012         	call	_pararMotor	;wreg free
  1978  000E50                     l2834:
  1979                           
  1980                           ;hachiko_0.c: 334:         if(acao == "fEstrela"){
  1981  000E50  0E0B               	movlw	low STR_5
  1982  000E52  181C               	xorwf	_acao^0,w,c
  1983  000E54  E107               	bnz	u5231
  1984  000E56  0E03               	movlw	high STR_5
  1985  000E58  181D               	xorwf	(_acao+1)^0,w,c
  1986  000E5A  A4D8               	btfss	status,2,c
  1987  000E5C  EF32  F007         	goto	u5231
  1988  000E60  EF34  F007         	goto	u5230
  1989  000E64                     u5231:
  1990  000E64  EF6B  F007         	goto	l2850
  1991  000E68                     u5230:
  1992  000E68                     l2836:
  1993                           
  1994                           ;hachiko_0.c: 337:                 if(flag == 1){
  1995  000E68  0420               	decf	_flag^0,w,c
  1996  000E6A  1021               	iorwf	(_flag+1)^0,w,c
  1997  000E6C  A4D8               	btfss	status,2,c
  1998  000E6E  EF3B  F007         	goto	u5241
  1999  000E72  EF3D  F007         	goto	u5240
  2000  000E76                     u5241:
  2001  000E76  EF5B  F007         	goto	l2844
  2002  000E7A                     u5240:
  2003  000E7A                     
  2004                           ;hachiko_0.c: 338:                     moverMotor('d','f',100);
  2005  000E7A  0E66               	movlw	102
  2006  000E7C  6E08               	movwf	moverMotor@sentido^0,c
  2007  000E7E  0E00               	movlw	0
  2008  000E80  6E0A               	movwf	(moverMotor@velocidade+1)^0,c
  2009  000E82  0E64               	movlw	100
  2010  000E84  6E09               	movwf	moverMotor@velocidade^0,c
  2011  000E86  0E64               	movlw	100
  2012  000E88  EC0C  F012         	call	_moverMotor
  2013                           
  2014                           ;hachiko_0.c: 339:                     moverMotor('e','f',100);
  2015  000E8C  0E66               	movlw	102
  2016  000E8E  6E08               	movwf	moverMotor@sentido^0,c
  2017  000E90  0E00               	movlw	0
  2018  000E92  6E0A               	movwf	(moverMotor@velocidade+1)^0,c
  2019  000E94  0E64               	movlw	100
  2020  000E96  6E09               	movwf	moverMotor@velocidade^0,c
  2021  000E98  0E65               	movlw	101
  2022  000E9A  EC0C  F012         	call	_moverMotor
  2023  000E9E                     
  2024                           ;hachiko_0.c: 340:                     _delay((unsigned long)((30)*(20000000/4000.0)));
  2025  000E9E  0EC3               	movlw	195
  2026  000EA0  6E10               	movwf	??_main^0,c
  2027  000EA2  0ECD               	movlw	205
  2028  000EA4                     u6397:
  2029  000EA4  2EE8               	decfsz	wreg,f,c
  2030  000EA6  D7FE               	bra	u6397
  2031  000EA8  2E10               	decfsz	??_main^0,f,c
  2032  000EAA  D7FC               	bra	u6397
  2033  000EAC  F000               	nop	
  2034  000EAE                     
  2035                           ;hachiko_0.c: 341:                     flag = 0;
  2036  000EAE  0E00               	movlw	0
  2037  000EB0  6E21               	movwf	(_flag+1)^0,c
  2038  000EB2  0E00               	movlw	0
  2039  000EB4  6E20               	movwf	_flag^0,c
  2040  000EB6                     l2844:
  2041                           
  2042                           ;hachiko_0.c: 344:                 estrela();
  2043  000EB6  ECBD  F010         	call	_estrela	;wreg free
  2044  000EBA                     
  2045                           ;hachiko_0.c: 346:                 if(acao == "parar"){
  2046  000EBA  0E58               	movlw	low STR_16
  2047  000EBC  181C               	xorwf	_acao^0,w,c
  2048  000EBE  E107               	bnz	u5251
  2049  000EC0  0E03               	movlw	high STR_16
  2050  000EC2  181D               	xorwf	(_acao+1)^0,w,c
  2051  000EC4  A4D8               	btfss	status,2,c
  2052  000EC6  EF67  F007         	goto	u5251
  2053  000ECA  EF69  F007         	goto	u5250
  2054  000ECE                     u5251:
  2055  000ECE  EF34  F007         	goto	l2836
  2056  000ED2                     u5250:
  2057  000ED2                     
  2058                           ;hachiko_0.c: 347:                     pararMotor();
  2059  000ED2  ECF2  F012         	call	_pararMotor	;wreg free
  2060  000ED6                     l2850:
  2061                           
  2062                           ;hachiko_0.c: 353:         if(acao == "zigzag"){
  2063  000ED6  0E45               	movlw	low STR_7
  2064  000ED8  181C               	xorwf	_acao^0,w,c
  2065  000EDA  E107               	bnz	u5261
  2066  000EDC  0E03               	movlw	high STR_7
  2067  000EDE  181D               	xorwf	(_acao+1)^0,w,c
  2068  000EE0  A4D8               	btfss	status,2,c
  2069  000EE2  EF75  F007         	goto	u5261
  2070  000EE6  EF77  F007         	goto	u5260
  2071  000EEA                     u5261:
  2072  000EEA  EFCE  F00B         	goto	l300
  2073  000EEE                     u5260:
  2074  000EEE                     
  2075                           ;hachiko_0.c: 365:             char cont_zig = 0x00;
  2076  000EEE  0E00               	movlw	0
  2077  000EF0  6E13               	movwf	main@cont_zig^0,c
  2078                           
  2079                           ;hachiko_0.c: 366:             char cont_tmr = 0x00;
  2080  000EF2  0E00               	movlw	0
  2081  000EF4  6E17               	movwf	main@cont_tmr_710^0,c
  2082  000EF6                     
  2083                           ;hachiko_0.c: 367:             moverMotor('d','f',60);
  2084  000EF6  0E66               	movlw	102
  2085  000EF8  6E08               	movwf	moverMotor@sentido^0,c
  2086  000EFA  0E00               	movlw	0
  2087  000EFC  6E0A               	movwf	(moverMotor@velocidade+1)^0,c
  2088  000EFE  0E3C               	movlw	60
  2089  000F00  6E09               	movwf	moverMotor@velocidade^0,c
  2090  000F02  0E64               	movlw	100
  2091  000F04  EC0C  F012         	call	_moverMotor
  2092  000F08                     
  2093                           ;hachiko_0.c: 368:             moverMotor('e','t',60);
  2094  000F08  0E74               	movlw	116
  2095  000F0A  6E08               	movwf	moverMotor@sentido^0,c
  2096  000F0C  0E00               	movlw	0
  2097  000F0E  6E0A               	movwf	(moverMotor@velocidade+1)^0,c
  2098  000F10  0E3C               	movlw	60
  2099  000F12  6E09               	movwf	moverMotor@velocidade^0,c
  2100  000F14  0E65               	movlw	101
  2101  000F16  EC0C  F012         	call	_moverMotor
  2102  000F1A                     
  2103                           ;hachiko_0.c: 369:             _delay((unsigned long)((70)*(20000000/4000.0)));
  2104  000F1A  0E02               	movlw	2
  2105  000F1C  6E11               	movwf	(??_main+1)^0,c
  2106  000F1E  0EC7               	movlw	199
  2107  000F20  6E10               	movwf	??_main^0,c
  2108  000F22  0E88               	movlw	136
  2109  000F24                     u6407:
  2110  000F24  2EE8               	decfsz	wreg,f,c
  2111  000F26  D7FE               	bra	u6407
  2112  000F28  2E10               	decfsz	??_main^0,f,c
  2113  000F2A  D7FC               	bra	u6407
  2114  000F2C  2E11               	decfsz	(??_main+1)^0,f,c
  2115  000F2E  D7FA               	bra	u6407
  2116  000F30  F000 F000          	nop2	
  2117  000F34                     
  2118                           ;hachiko_0.c: 373:             TMR1ON = 1;
  2119  000F34  80CD               	bsf	4045,0,c	;volatile
  2120  000F36                     
  2121                           ;hachiko_0.c: 374:             TMR1L = 0xDE;
  2122  000F36  0EDE               	movlw	222
  2123  000F38  6ECE               	movwf	206,c	;volatile
  2124  000F3A                     
  2125                           ;hachiko_0.c: 375:             TMR1H = 0x0B;
  2126  000F3A  0E0B               	movlw	11
  2127  000F3C  6ECF               	movwf	207,c	;volatile
  2128                           
  2129                           ;hachiko_0.c: 376:             while(cont_zig < 0x0C){
  2130  000F3E  EFC1  F00B         	goto	l3076
  2131  000F42                     l304:
  2132                           
  2133                           ;hachiko_0.c: 378:                     if(TMR1IF){
  2134  000F42  A09E               	btfss	3998,0,c	;volatile
  2135  000F44  EFA6  F007         	goto	u5271
  2136  000F48  EFA8  F007         	goto	u5270
  2137  000F4C                     u5271:
  2138  000F4C  EFAE  F007         	goto	l2872
  2139  000F50                     u5270:
  2140  000F50                     
  2141                           ;hachiko_0.c: 382:                         TMR1IF = 0;
  2142  000F50  909E               	bcf	3998,0,c	;volatile
  2143  000F52                     
  2144                           ;hachiko_0.c: 383:                         TMR1L = 0xDE;
  2145  000F52  0EDE               	movlw	222
  2146  000F54  6ECE               	movwf	206,c	;volatile
  2147                           
  2148                           ;hachiko_0.c: 384:                         TMR1H = 0x0B;
  2149  000F56  0E0B               	movlw	11
  2150  000F58  6ECF               	movwf	207,c	;volatile
  2151  000F5A                     
  2152                           ;hachiko_0.c: 385:                         cont_tmr++;
  2153  000F5A  2A17               	incf	main@cont_tmr_710^0,f,c
  2154  000F5C                     l2872:
  2155                           
  2156                           ;hachiko_0.c: 387:                     if(!PORTAbits.RA1 && PORTAbits.RA4 && PORTCbits.R
      +                          C0 && PORTAbits.RA3 && PORTAbits.RA2){
  2157  000F5C  B280               	btfsc	128,1,c	;volatile
  2158  000F5E  EFB3  F007         	goto	u5281
  2159  000F62  EFB5  F007         	goto	u5280
  2160  000F66                     u5281:
  2161  000F66  EFE5  F007         	goto	l306
  2162  000F6A                     u5280:
  2163  000F6A  A880               	btfss	128,4,c	;volatile
  2164  000F6C  EFBA  F007         	goto	u5291
  2165  000F70  EFBC  F007         	goto	u5290
  2166  000F74                     u5291:
  2167  000F74  EFE5  F007         	goto	l306
  2168  000F78                     u5290:
  2169  000F78  A082               	btfss	130,0,c	;volatile
  2170  000F7A  EFC1  F007         	goto	u5301
  2171  000F7E  EFC3  F007         	goto	u5300
  2172  000F82                     u5301:
  2173  000F82  EFE5  F007         	goto	l306
  2174  000F86                     u5300:
  2175  000F86  A680               	btfss	128,3,c	;volatile
  2176  000F88  EFC8  F007         	goto	u5311
  2177  000F8C  EFCA  F007         	goto	u5310
  2178  000F90                     u5311:
  2179  000F90  EFE5  F007         	goto	l306
  2180  000F94                     u5310:
  2181  000F94  A480               	btfss	128,2,c	;volatile
  2182  000F96  EFCF  F007         	goto	u5321
  2183  000F9A  EFD1  F007         	goto	u5320
  2184  000F9E                     u5321:
  2185  000F9E  EFE5  F007         	goto	l306
  2186  000FA2                     u5320:
  2187  000FA2                     
  2188                           ;hachiko_0.c: 388:                         moverMotor('e','t',60);
  2189  000FA2  0E74               	movlw	116
  2190  000FA4  6E08               	movwf	moverMotor@sentido^0,c
  2191  000FA6  0E00               	movlw	0
  2192  000FA8  6E0A               	movwf	(moverMotor@velocidade+1)^0,c
  2193  000FAA  0E3C               	movlw	60
  2194  000FAC  6E09               	movwf	moverMotor@velocidade^0,c
  2195  000FAE  0E65               	movlw	101
  2196  000FB0  EC0C  F012         	call	_moverMotor
  2197                           
  2198                           ;hachiko_0.c: 389:                         moverMotor('d','f',60);
  2199  000FB4  0E66               	movlw	102
  2200  000FB6  6E08               	movwf	moverMotor@sentido^0,c
  2201  000FB8  0E00               	movlw	0
  2202  000FBA  6E0A               	movwf	(moverMotor@velocidade+1)^0,c
  2203  000FBC  0E3C               	movlw	60
  2204  000FBE  6E09               	movwf	moverMotor@velocidade^0,c
  2205  000FC0  0E64               	movlw	100
  2206  000FC2  EC0C  F012         	call	_moverMotor
  2207                           
  2208                           ;hachiko_0.c: 390:                     }
  2209  000FC6  EFAF  F009         	goto	l2966
  2210  000FCA                     l306:
  2211  000FCA  A280               	btfss	128,1,c	;volatile
  2212  000FCC  EFEA  F007         	goto	u5331
  2213  000FD0  EFEC  F007         	goto	u5330
  2214  000FD4                     u5331:
  2215  000FD4  EF1C  F008         	goto	l308
  2216  000FD8                     u5330:
  2217  000FD8  A880               	btfss	128,4,c	;volatile
  2218  000FDA  EFF1  F007         	goto	u5341
  2219  000FDE  EFF3  F007         	goto	u5340
  2220  000FE2                     u5341:
  2221  000FE2  EF1C  F008         	goto	l308
  2222  000FE6                     u5340:
  2223  000FE6  B082               	btfsc	130,0,c	;volatile
  2224  000FE8  EFF8  F007         	goto	u5351
  2225  000FEC  EFFA  F007         	goto	u5350
  2226  000FF0                     u5351:
  2227  000FF0  EF1C  F008         	goto	l308
  2228  000FF4                     u5350:
  2229  000FF4  A680               	btfss	128,3,c	;volatile
  2230  000FF6  EFFF  F007         	goto	u5361
  2231  000FFA  EF01  F008         	goto	u5360
  2232  000FFE                     u5361:
  2233  000FFE  EF1C  F008         	goto	l308
  2234  001002                     u5360:
  2235  001002  A480               	btfss	128,2,c	;volatile
  2236  001004  EF06  F008         	goto	u5371
  2237  001008  EF08  F008         	goto	u5370
  2238  00100C                     u5371:
  2239  00100C  EF1C  F008         	goto	l308
  2240  001010                     u5370:
  2241  001010                     
  2242                           ;hachiko_0.c: 392:                         moverMotor('e','f',60);
  2243  001010  0E66               	movlw	102
  2244  001012  6E08               	movwf	moverMotor@sentido^0,c
  2245  001014  0E00               	movlw	0
  2246  001016  6E0A               	movwf	(moverMotor@velocidade+1)^0,c
  2247  001018  0E3C               	movlw	60
  2248  00101A  6E09               	movwf	moverMotor@velocidade^0,c
  2249  00101C  0E65               	movlw	101
  2250  00101E  EC0C  F012         	call	_moverMotor
  2251                           
  2252                           ;hachiko_0.c: 393:                         moverMotor('d','f',60);
  2253  001022  0E66               	movlw	102
  2254  001024  6E08               	movwf	moverMotor@sentido^0,c
  2255  001026  0E00               	movlw	0
  2256  001028  6E0A               	movwf	(moverMotor@velocidade+1)^0,c
  2257  00102A  0E3C               	movlw	60
  2258  00102C  6E09               	movwf	moverMotor@velocidade^0,c
  2259  00102E  0E64               	movlw	100
  2260  001030  EC0C  F012         	call	_moverMotor
  2261                           
  2262                           ;hachiko_0.c: 395:                     }
  2263  001034  EFAF  F009         	goto	l2966
  2264  001038                     l308:
  2265  001038  A280               	btfss	128,1,c	;volatile
  2266  00103A  EF21  F008         	goto	u5381
  2267  00103E  EF23  F008         	goto	u5380
  2268  001042                     u5381:
  2269  001042  EF53  F008         	goto	l310
  2270  001046                     u5380:
  2271  001046  B880               	btfsc	128,4,c	;volatile
  2272  001048  EF28  F008         	goto	u5391
  2273  00104C  EF2A  F008         	goto	u5390
  2274  001050                     u5391:
  2275  001050  EF53  F008         	goto	l310
  2276  001054                     u5390:
  2277  001054  A082               	btfss	130,0,c	;volatile
  2278  001056  EF2F  F008         	goto	u5401
  2279  00105A  EF31  F008         	goto	u5400
  2280  00105E                     u5401:
  2281  00105E  EF53  F008         	goto	l310
  2282  001062                     u5400:
  2283  001062  B680               	btfsc	128,3,c	;volatile
  2284  001064  EF36  F008         	goto	u5411
  2285  001068  EF38  F008         	goto	u5410
  2286  00106C                     u5411:
  2287  00106C  EF53  F008         	goto	l310
  2288  001070                     u5410:
  2289  001070  A480               	btfss	128,2,c	;volatile
  2290  001072  EF3D  F008         	goto	u5421
  2291  001076  EF3F  F008         	goto	u5420
  2292  00107A                     u5421:
  2293  00107A  EF53  F008         	goto	l310
  2294  00107E                     u5420:
  2295  00107E                     
  2296                           ;hachiko_0.c: 397:                         moverMotor('e','f',60);
  2297  00107E  0E66               	movlw	102
  2298  001080  6E08               	movwf	moverMotor@sentido^0,c
  2299  001082  0E00               	movlw	0
  2300  001084  6E0A               	movwf	(moverMotor@velocidade+1)^0,c
  2301  001086  0E3C               	movlw	60
  2302  001088  6E09               	movwf	moverMotor@velocidade^0,c
  2303  00108A  0E65               	movlw	101
  2304  00108C  EC0C  F012         	call	_moverMotor
  2305                           
  2306                           ;hachiko_0.c: 398:                         moverMotor('d','f',60);
  2307  001090  0E66               	movlw	102
  2308  001092  6E08               	movwf	moverMotor@sentido^0,c
  2309  001094  0E00               	movlw	0
  2310  001096  6E0A               	movwf	(moverMotor@velocidade+1)^0,c
  2311  001098  0E3C               	movlw	60
  2312  00109A  6E09               	movwf	moverMotor@velocidade^0,c
  2313  00109C  0E64               	movlw	100
  2314  00109E  EC0C  F012         	call	_moverMotor
  2315                           
  2316                           ;hachiko_0.c: 400:                     }
  2317  0010A2  EFAF  F009         	goto	l2966
  2318  0010A6                     l310:
  2319  0010A6  A280               	btfss	128,1,c	;volatile
  2320  0010A8  EF58  F008         	goto	u5431
  2321  0010AC  EF5A  F008         	goto	u5430
  2322  0010B0                     u5431:
  2323  0010B0  EF8A  F008         	goto	l312
  2324  0010B4                     u5430:
  2325  0010B4  A880               	btfss	128,4,c	;volatile
  2326  0010B6  EF5F  F008         	goto	u5441
  2327  0010BA  EF61  F008         	goto	u5440
  2328  0010BE                     u5441:
  2329  0010BE  EF8A  F008         	goto	l312
  2330  0010C2                     u5440:
  2331  0010C2  A082               	btfss	130,0,c	;volatile
  2332  0010C4  EF66  F008         	goto	u5451
  2333  0010C8  EF68  F008         	goto	u5450
  2334  0010CC                     u5451:
  2335  0010CC  EF8A  F008         	goto	l312
  2336  0010D0                     u5450:
  2337  0010D0  B680               	btfsc	128,3,c	;volatile
  2338  0010D2  EF6D  F008         	goto	u5461
  2339  0010D6  EF6F  F008         	goto	u5460
  2340  0010DA                     u5461:
  2341  0010DA  EF8A  F008         	goto	l312
  2342  0010DE                     u5460:
  2343  0010DE  A480               	btfss	128,2,c	;volatile
  2344  0010E0  EF74  F008         	goto	u5471
  2345  0010E4  EF76  F008         	goto	u5470
  2346  0010E8                     u5471:
  2347  0010E8  EF8A  F008         	goto	l312
  2348  0010EC                     u5470:
  2349  0010EC                     
  2350                           ;hachiko_0.c: 402:                         moverMotor('e','f',60);
  2351  0010EC  0E66               	movlw	102
  2352  0010EE  6E08               	movwf	moverMotor@sentido^0,c
  2353  0010F0  0E00               	movlw	0
  2354  0010F2  6E0A               	movwf	(moverMotor@velocidade+1)^0,c
  2355  0010F4  0E3C               	movlw	60
  2356  0010F6  6E09               	movwf	moverMotor@velocidade^0,c
  2357  0010F8  0E65               	movlw	101
  2358  0010FA  EC0C  F012         	call	_moverMotor
  2359                           
  2360                           ;hachiko_0.c: 403:                         moverMotor('d','t',60);
  2361  0010FE  0E74               	movlw	116
  2362  001100  6E08               	movwf	moverMotor@sentido^0,c
  2363  001102  0E00               	movlw	0
  2364  001104  6E0A               	movwf	(moverMotor@velocidade+1)^0,c
  2365  001106  0E3C               	movlw	60
  2366  001108  6E09               	movwf	moverMotor@velocidade^0,c
  2367  00110A  0E64               	movlw	100
  2368  00110C  EC0C  F012         	call	_moverMotor
  2369                           
  2370                           ;hachiko_0.c: 404:                     }
  2371  001110  EFAF  F009         	goto	l2966
  2372  001114                     l312:
  2373  001114  A280               	btfss	128,1,c	;volatile
  2374  001116  EF8F  F008         	goto	u5481
  2375  00111A  EF91  F008         	goto	u5480
  2376  00111E                     u5481:
  2377  00111E  EFC1  F008         	goto	l314
  2378  001122                     u5480:
  2379  001122  A880               	btfss	128,4,c	;volatile
  2380  001124  EF96  F008         	goto	u5491
  2381  001128  EF98  F008         	goto	u5490
  2382  00112C                     u5491:
  2383  00112C  EFC1  F008         	goto	l314
  2384  001130                     u5490:
  2385  001130  B082               	btfsc	130,0,c	;volatile
  2386  001132  EF9D  F008         	goto	u5501
  2387  001136  EF9F  F008         	goto	u5500
  2388  00113A                     u5501:
  2389  00113A  EFC1  F008         	goto	l314
  2390  00113E                     u5500:
  2391  00113E  B680               	btfsc	128,3,c	;volatile
  2392  001140  EFA4  F008         	goto	u5511
  2393  001144  EFA6  F008         	goto	u5510
  2394  001148                     u5511:
  2395  001148  EFC1  F008         	goto	l314
  2396  00114C                     u5510:
  2397  00114C  A480               	btfss	128,2,c	;volatile
  2398  00114E  EFAB  F008         	goto	u5521
  2399  001152  EFAD  F008         	goto	u5520
  2400  001156                     u5521:
  2401  001156  EFC1  F008         	goto	l314
  2402  00115A                     u5520:
  2403  00115A                     
  2404                           ;hachiko_0.c: 406:                         moverMotor('e','f',60);
  2405  00115A  0E66               	movlw	102
  2406  00115C  6E08               	movwf	moverMotor@sentido^0,c
  2407  00115E  0E00               	movlw	0
  2408  001160  6E0A               	movwf	(moverMotor@velocidade+1)^0,c
  2409  001162  0E3C               	movlw	60
  2410  001164  6E09               	movwf	moverMotor@velocidade^0,c
  2411  001166  0E65               	movlw	101
  2412  001168  EC0C  F012         	call	_moverMotor
  2413                           
  2414                           ;hachiko_0.c: 407:                         moverMotor('d','t',60);
  2415  00116C  0E74               	movlw	116
  2416  00116E  6E08               	movwf	moverMotor@sentido^0,c
  2417  001170  0E00               	movlw	0
  2418  001172  6E0A               	movwf	(moverMotor@velocidade+1)^0,c
  2419  001174  0E3C               	movlw	60
  2420  001176  6E09               	movwf	moverMotor@velocidade^0,c
  2421  001178  0E64               	movlw	100
  2422  00117A  EC0C  F012         	call	_moverMotor
  2423                           
  2424                           ;hachiko_0.c: 408:                     }
  2425  00117E  EFAF  F009         	goto	l2966
  2426  001182                     l314:
  2427  001182  A280               	btfss	128,1,c	;volatile
  2428  001184  EFC6  F008         	goto	u5531
  2429  001188  EFC8  F008         	goto	u5530
  2430  00118C                     u5531:
  2431  00118C  EFF8  F008         	goto	l316
  2432  001190                     u5530:
  2433  001190  B880               	btfsc	128,4,c	;volatile
  2434  001192  EFCD  F008         	goto	u5541
  2435  001196  EFCF  F008         	goto	u5540
  2436  00119A                     u5541:
  2437  00119A  EFF8  F008         	goto	l316
  2438  00119E                     u5540:
  2439  00119E  A082               	btfss	130,0,c	;volatile
  2440  0011A0  EFD4  F008         	goto	u5551
  2441  0011A4  EFD6  F008         	goto	u5550
  2442  0011A8                     u5551:
  2443  0011A8  EFF8  F008         	goto	l316
  2444  0011AC                     u5550:
  2445  0011AC  A680               	btfss	128,3,c	;volatile
  2446  0011AE  EFDB  F008         	goto	u5561
  2447  0011B2  EFDD  F008         	goto	u5560
  2448  0011B6                     u5561:
  2449  0011B6  EFF8  F008         	goto	l316
  2450  0011BA                     u5560:
  2451  0011BA  A480               	btfss	128,2,c	;volatile
  2452  0011BC  EFE2  F008         	goto	u5571
  2453  0011C0  EFE4  F008         	goto	u5570
  2454  0011C4                     u5571:
  2455  0011C4  EFF8  F008         	goto	l316
  2456  0011C8                     u5570:
  2457  0011C8                     
  2458                           ;hachiko_0.c: 410:                         moverMotor('e','t',60);
  2459  0011C8  0E74               	movlw	116
  2460  0011CA  6E08               	movwf	moverMotor@sentido^0,c
  2461  0011CC  0E00               	movlw	0
  2462  0011CE  6E0A               	movwf	(moverMotor@velocidade+1)^0,c
  2463  0011D0  0E3C               	movlw	60
  2464  0011D2  6E09               	movwf	moverMotor@velocidade^0,c
  2465  0011D4  0E65               	movlw	101
  2466  0011D6  EC0C  F012         	call	_moverMotor
  2467                           
  2468                           ;hachiko_0.c: 411:                         moverMotor('d','f',60);
  2469  0011DA  0E66               	movlw	102
  2470  0011DC  6E08               	movwf	moverMotor@sentido^0,c
  2471  0011DE  0E00               	movlw	0
  2472  0011E0  6E0A               	movwf	(moverMotor@velocidade+1)^0,c
  2473  0011E2  0E3C               	movlw	60
  2474  0011E4  6E09               	movwf	moverMotor@velocidade^0,c
  2475  0011E6  0E64               	movlw	100
  2476  0011E8  EC0C  F012         	call	_moverMotor
  2477                           
  2478                           ;hachiko_0.c: 412:                     }
  2479  0011EC  EFAF  F009         	goto	l2966
  2480  0011F0                     l316:
  2481  0011F0  A280               	btfss	128,1,c	;volatile
  2482  0011F2  EFFD  F008         	goto	u5581
  2483  0011F6  EFFF  F008         	goto	u5580
  2484  0011FA                     u5581:
  2485  0011FA  EF2F  F009         	goto	l318
  2486  0011FE                     u5580:
  2487  0011FE  B880               	btfsc	128,4,c	;volatile
  2488  001200  EF04  F009         	goto	u5591
  2489  001204  EF06  F009         	goto	u5590
  2490  001208                     u5591:
  2491  001208  EF2F  F009         	goto	l318
  2492  00120C                     u5590:
  2493  00120C  B082               	btfsc	130,0,c	;volatile
  2494  00120E  EF0B  F009         	goto	u5601
  2495  001212  EF0D  F009         	goto	u5600
  2496  001216                     u5601:
  2497  001216  EF2F  F009         	goto	l318
  2498  00121A                     u5600:
  2499  00121A  A680               	btfss	128,3,c	;volatile
  2500  00121C  EF12  F009         	goto	u5611
  2501  001220  EF14  F009         	goto	u5610
  2502  001224                     u5611:
  2503  001224  EF2F  F009         	goto	l318
  2504  001228                     u5610:
  2505  001228  A480               	btfss	128,2,c	;volatile
  2506  00122A  EF19  F009         	goto	u5621
  2507  00122E  EF1B  F009         	goto	u5620
  2508  001232                     u5621:
  2509  001232  EF2F  F009         	goto	l318
  2510  001236                     u5620:
  2511  001236                     
  2512                           ;hachiko_0.c: 414:                         moverMotor('e','t',60);
  2513  001236  0E74               	movlw	116
  2514  001238  6E08               	movwf	moverMotor@sentido^0,c
  2515  00123A  0E00               	movlw	0
  2516  00123C  6E0A               	movwf	(moverMotor@velocidade+1)^0,c
  2517  00123E  0E3C               	movlw	60
  2518  001240  6E09               	movwf	moverMotor@velocidade^0,c
  2519  001242  0E65               	movlw	101
  2520  001244  EC0C  F012         	call	_moverMotor
  2521                           
  2522                           ;hachiko_0.c: 415:                         moverMotor('d','f',60);
  2523  001248  0E66               	movlw	102
  2524  00124A  6E08               	movwf	moverMotor@sentido^0,c
  2525  00124C  0E00               	movlw	0
  2526  00124E  6E0A               	movwf	(moverMotor@velocidade+1)^0,c
  2527  001250  0E3C               	movlw	60
  2528  001252  6E09               	movwf	moverMotor@velocidade^0,c
  2529  001254  0E64               	movlw	100
  2530  001256  EC0C  F012         	call	_moverMotor
  2531                           
  2532                           ;hachiko_0.c: 416:                     }
  2533  00125A  EFAF  F009         	goto	l2966
  2534  00125E                     l318:
  2535  00125E  A280               	btfss	128,1,c	;volatile
  2536  001260  EF34  F009         	goto	u5631
  2537  001264  EF36  F009         	goto	u5630
  2538  001268                     u5631:
  2539  001268  EF66  F009         	goto	l320
  2540  00126C                     u5630:
  2541  00126C  A880               	btfss	128,4,c	;volatile
  2542  00126E  EF3B  F009         	goto	u5641
  2543  001272  EF3D  F009         	goto	u5640
  2544  001276                     u5641:
  2545  001276  EF66  F009         	goto	l320
  2546  00127A                     u5640:
  2547  00127A  A082               	btfss	130,0,c	;volatile
  2548  00127C  EF42  F009         	goto	u5651
  2549  001280  EF44  F009         	goto	u5650
  2550  001284                     u5651:
  2551  001284  EF66  F009         	goto	l320
  2552  001288                     u5650:
  2553  001288  A680               	btfss	128,3,c	;volatile
  2554  00128A  EF49  F009         	goto	u5661
  2555  00128E  EF4B  F009         	goto	u5660
  2556  001292                     u5661:
  2557  001292  EF66  F009         	goto	l320
  2558  001296                     u5660:
  2559  001296  B480               	btfsc	128,2,c	;volatile
  2560  001298  EF50  F009         	goto	u5671
  2561  00129C  EF52  F009         	goto	u5670
  2562  0012A0                     u5671:
  2563  0012A0  EF66  F009         	goto	l320
  2564  0012A4                     u5670:
  2565  0012A4                     
  2566                           ;hachiko_0.c: 418:                         moverMotor('e','f',60);
  2567  0012A4  0E66               	movlw	102
  2568  0012A6  6E08               	movwf	moverMotor@sentido^0,c
  2569  0012A8  0E00               	movlw	0
  2570  0012AA  6E0A               	movwf	(moverMotor@velocidade+1)^0,c
  2571  0012AC  0E3C               	movlw	60
  2572  0012AE  6E09               	movwf	moverMotor@velocidade^0,c
  2573  0012B0  0E65               	movlw	101
  2574  0012B2  EC0C  F012         	call	_moverMotor
  2575                           
  2576                           ;hachiko_0.c: 419:                         moverMotor('d','t',60);
  2577  0012B6  0E74               	movlw	116
  2578  0012B8  6E08               	movwf	moverMotor@sentido^0,c
  2579  0012BA  0E00               	movlw	0
  2580  0012BC  6E0A               	movwf	(moverMotor@velocidade+1)^0,c
  2581  0012BE  0E3C               	movlw	60
  2582  0012C0  6E09               	movwf	moverMotor@velocidade^0,c
  2583  0012C2  0E64               	movlw	100
  2584  0012C4  EC0C  F012         	call	_moverMotor
  2585                           
  2586                           ;hachiko_0.c: 420:                     }
  2587  0012C8  EFAF  F009         	goto	l2966
  2588  0012CC                     l320:
  2589  0012CC  A280               	btfss	128,1,c	;volatile
  2590  0012CE  EF6B  F009         	goto	u5681
  2591  0012D2  EF6D  F009         	goto	u5680
  2592  0012D6                     u5681:
  2593  0012D6  EF9D  F009         	goto	l2964
  2594  0012DA                     u5680:
  2595  0012DA  B880               	btfsc	128,4,c	;volatile
  2596  0012DC  EF72  F009         	goto	u5691
  2597  0012E0  EF74  F009         	goto	u5690
  2598  0012E4                     u5691:
  2599  0012E4  EF9D  F009         	goto	l2964
  2600  0012E8                     u5690:
  2601  0012E8  B082               	btfsc	130,0,c	;volatile
  2602  0012EA  EF79  F009         	goto	u5701
  2603  0012EE  EF7B  F009         	goto	u5700
  2604  0012F2                     u5701:
  2605  0012F2  EF9D  F009         	goto	l2964
  2606  0012F6                     u5700:
  2607  0012F6  B680               	btfsc	128,3,c	;volatile
  2608  0012F8  EF80  F009         	goto	u5711
  2609  0012FC  EF82  F009         	goto	u5710
  2610  001300                     u5711:
  2611  001300  EF9D  F009         	goto	l2964
  2612  001304                     u5710:
  2613  001304  A480               	btfss	128,2,c	;volatile
  2614  001306  EF87  F009         	goto	u5721
  2615  00130A  EF89  F009         	goto	u5720
  2616  00130E                     u5721:
  2617  00130E  EF9D  F009         	goto	l2964
  2618  001312                     u5720:
  2619  001312                     
  2620                           ;hachiko_0.c: 422:                         moverMotor('d','f',60);
  2621  001312  0E66               	movlw	102
  2622  001314  6E08               	movwf	moverMotor@sentido^0,c
  2623  001316  0E00               	movlw	0
  2624  001318  6E0A               	movwf	(moverMotor@velocidade+1)^0,c
  2625  00131A  0E3C               	movlw	60
  2626  00131C  6E09               	movwf	moverMotor@velocidade^0,c
  2627  00131E  0E64               	movlw	100
  2628  001320  EC0C  F012         	call	_moverMotor
  2629                           
  2630                           ;hachiko_0.c: 423:                         moverMotor('e','f',60);
  2631  001324  0E66               	movlw	102
  2632  001326  6E08               	movwf	moverMotor@sentido^0,c
  2633  001328  0E00               	movlw	0
  2634  00132A  6E0A               	movwf	(moverMotor@velocidade+1)^0,c
  2635  00132C  0E3C               	movlw	60
  2636  00132E  6E09               	movwf	moverMotor@velocidade^0,c
  2637  001330  0E65               	movlw	101
  2638  001332  EC0C  F012         	call	_moverMotor
  2639                           
  2640                           ;hachiko_0.c: 424:                     }
  2641  001336  EFAF  F009         	goto	l2966
  2642  00133A                     l2964:
  2643                           
  2644                           ;hachiko_0.c: 426:                         moverMotor('d','f',60);
  2645  00133A  0E66               	movlw	102
  2646  00133C  6E08               	movwf	moverMotor@sentido^0,c
  2647  00133E  0E00               	movlw	0
  2648  001340  6E0A               	movwf	(moverMotor@velocidade+1)^0,c
  2649  001342  0E3C               	movlw	60
  2650  001344  6E09               	movwf	moverMotor@velocidade^0,c
  2651  001346  0E64               	movlw	100
  2652  001348  EC0C  F012         	call	_moverMotor
  2653                           
  2654                           ;hachiko_0.c: 427:                         moverMotor('e','f',60);
  2655  00134C  0E66               	movlw	102
  2656  00134E  6E08               	movwf	moverMotor@sentido^0,c
  2657  001350  0E00               	movlw	0
  2658  001352  6E0A               	movwf	(moverMotor@velocidade+1)^0,c
  2659  001354  0E3C               	movlw	60
  2660  001356  6E09               	movwf	moverMotor@velocidade^0,c
  2661  001358  0E65               	movlw	101
  2662  00135A  EC0C  F012         	call	_moverMotor
  2663  00135E                     l2966:
  2664                           
  2665                           ;hachiko_0.c: 377:                 while(cont_tmr < 0x19){
  2666  00135E  0E18               	movlw	24
  2667  001360  6417               	cpfsgt	main@cont_tmr_710^0,c
  2668  001362  EFB5  F009         	goto	u5731
  2669  001366  EFB7  F009         	goto	u5730
  2670  00136A                     u5731:
  2671  00136A  EFA1  F007         	goto	l304
  2672  00136E                     u5730:
  2673  00136E                     
  2674                           ;hachiko_0.c: 430:                 cont_tmr = 0x00;
  2675  00136E  0E00               	movlw	0
  2676  001370  6E17               	movwf	main@cont_tmr_710^0,c
  2677  001372                     
  2678                           ;hachiko_0.c: 431:                 pararMotor();
  2679  001372  ECF2  F012         	call	_pararMotor	;wreg free
  2680  001376                     
  2681                           ;hachiko_0.c: 432:                 _delay((unsigned long)((10)*(20000000/4000.0)));
  2682  001376  0E41               	movlw	65
  2683  001378  6E10               	movwf	??_main^0,c
  2684  00137A  0EEE               	movlw	238
  2685  00137C                     u6417:
  2686  00137C  2EE8               	decfsz	wreg,f,c
  2687  00137E  D7FE               	bra	u6417
  2688  001380  2E10               	decfsz	??_main^0,f,c
  2689  001382  D7FC               	bra	u6417
  2690  001384  F000 F000          	nop2	
  2691                           
  2692                           ;hachiko_0.c: 433:                 while(cont_tmr < 0x07){
  2693  001388  EF9D  F00B         	goto	l3064
  2694  00138C                     l326:
  2695                           
  2696                           ;hachiko_0.c: 434:                     if(TMR1IF){
  2697  00138C  A09E               	btfss	3998,0,c	;volatile
  2698  00138E  EFCB  F009         	goto	u5741
  2699  001392  EFCD  F009         	goto	u5740
  2700  001396                     u5741:
  2701  001396  EFD3  F009         	goto	l2980
  2702  00139A                     u5740:
  2703  00139A                     
  2704                           ;hachiko_0.c: 438:                         TMR1IF = 0;
  2705  00139A  909E               	bcf	3998,0,c	;volatile
  2706  00139C                     
  2707                           ;hachiko_0.c: 439:                         TMR1L = 0xDE;
  2708  00139C  0EDE               	movlw	222
  2709  00139E  6ECE               	movwf	206,c	;volatile
  2710                           
  2711                           ;hachiko_0.c: 440:                         TMR1H = 0x0B;
  2712  0013A0  0E0B               	movlw	11
  2713  0013A2  6ECF               	movwf	207,c	;volatile
  2714  0013A4                     
  2715                           ;hachiko_0.c: 441:                         cont_tmr++;
  2716  0013A4  2A17               	incf	main@cont_tmr_710^0,f,c
  2717  0013A6                     l2980:
  2718                           
  2719                           ;hachiko_0.c: 443:                     if(!PORTAbits.RA1 && PORTAbits.RA4 && PORTCbits.R
      +                          C0 && PORTAbits.RA3 && PORTAbits.RA2){
  2720  0013A6  B280               	btfsc	128,1,c	;volatile
  2721  0013A8  EFD8  F009         	goto	u5751
  2722  0013AC  EFDA  F009         	goto	u5750
  2723  0013B0                     u5751:
  2724  0013B0  EF0A  F00A         	goto	l328
  2725  0013B4                     u5750:
  2726  0013B4  A880               	btfss	128,4,c	;volatile
  2727  0013B6  EFDF  F009         	goto	u5761
  2728  0013BA  EFE1  F009         	goto	u5760
  2729  0013BE                     u5761:
  2730  0013BE  EF0A  F00A         	goto	l328
  2731  0013C2                     u5760:
  2732  0013C2  A082               	btfss	130,0,c	;volatile
  2733  0013C4  EFE6  F009         	goto	u5771
  2734  0013C8  EFE8  F009         	goto	u5770
  2735  0013CC                     u5771:
  2736  0013CC  EF0A  F00A         	goto	l328
  2737  0013D0                     u5770:
  2738  0013D0  A680               	btfss	128,3,c	;volatile
  2739  0013D2  EFED  F009         	goto	u5781
  2740  0013D6  EFEF  F009         	goto	u5780
  2741  0013DA                     u5781:
  2742  0013DA  EF0A  F00A         	goto	l328
  2743  0013DE                     u5780:
  2744  0013DE  A480               	btfss	128,2,c	;volatile
  2745  0013E0  EFF4  F009         	goto	u5791
  2746  0013E4  EFF6  F009         	goto	u5790
  2747  0013E8                     u5791:
  2748  0013E8  EF0A  F00A         	goto	l328
  2749  0013EC                     u5790:
  2750  0013EC                     
  2751                           ;hachiko_0.c: 444:                         moverMotor('e','t',60);
  2752  0013EC  0E74               	movlw	116
  2753  0013EE  6E08               	movwf	moverMotor@sentido^0,c
  2754  0013F0  0E00               	movlw	0
  2755  0013F2  6E0A               	movwf	(moverMotor@velocidade+1)^0,c
  2756  0013F4  0E3C               	movlw	60
  2757  0013F6  6E09               	movwf	moverMotor@velocidade^0,c
  2758  0013F8  0E65               	movlw	101
  2759  0013FA  EC0C  F012         	call	_moverMotor
  2760                           
  2761                           ;hachiko_0.c: 445:                         moverMotor('d','f',60);
  2762  0013FE  0E66               	movlw	102
  2763  001400  6E08               	movwf	moverMotor@sentido^0,c
  2764  001402  0E00               	movlw	0
  2765  001404  6E0A               	movwf	(moverMotor@velocidade+1)^0,c
  2766  001406  0E3C               	movlw	60
  2767  001408  6E09               	movwf	moverMotor@velocidade^0,c
  2768  00140A  0E64               	movlw	100
  2769  00140C  EC0C  F012         	call	_moverMotor
  2770                           
  2771                           ;hachiko_0.c: 446:                     }
  2772  001410  EF9D  F00B         	goto	l3064
  2773  001414                     l328:
  2774  001414  A280               	btfss	128,1,c	;volatile
  2775  001416  EF0F  F00A         	goto	u5801
  2776  00141A  EF11  F00A         	goto	u5800
  2777  00141E                     u5801:
  2778  00141E  EF41  F00A         	goto	l330
  2779  001422                     u5800:
  2780  001422  A880               	btfss	128,4,c	;volatile
  2781  001424  EF16  F00A         	goto	u5811
  2782  001428  EF18  F00A         	goto	u5810
  2783  00142C                     u5811:
  2784  00142C  EF41  F00A         	goto	l330
  2785  001430                     u5810:
  2786  001430  B082               	btfsc	130,0,c	;volatile
  2787  001432  EF1D  F00A         	goto	u5821
  2788  001436  EF1F  F00A         	goto	u5820
  2789  00143A                     u5821:
  2790  00143A  EF41  F00A         	goto	l330
  2791  00143E                     u5820:
  2792  00143E  A680               	btfss	128,3,c	;volatile
  2793  001440  EF24  F00A         	goto	u5831
  2794  001444  EF26  F00A         	goto	u5830
  2795  001448                     u5831:
  2796  001448  EF41  F00A         	goto	l330
  2797  00144C                     u5830:
  2798  00144C  A480               	btfss	128,2,c	;volatile
  2799  00144E  EF2B  F00A         	goto	u5841
  2800  001452  EF2D  F00A         	goto	u5840
  2801  001456                     u5841:
  2802  001456  EF41  F00A         	goto	l330
  2803  00145A                     u5840:
  2804  00145A                     
  2805                           ;hachiko_0.c: 448:                         moverMotor('e','f',60);
  2806  00145A  0E66               	movlw	102
  2807  00145C  6E08               	movwf	moverMotor@sentido^0,c
  2808  00145E  0E00               	movlw	0
  2809  001460  6E0A               	movwf	(moverMotor@velocidade+1)^0,c
  2810  001462  0E3C               	movlw	60
  2811  001464  6E09               	movwf	moverMotor@velocidade^0,c
  2812  001466  0E65               	movlw	101
  2813  001468  EC0C  F012         	call	_moverMotor
  2814                           
  2815                           ;hachiko_0.c: 449:                         moverMotor('d','f',60);
  2816  00146C  0E66               	movlw	102
  2817  00146E  6E08               	movwf	moverMotor@sentido^0,c
  2818  001470  0E00               	movlw	0
  2819  001472  6E0A               	movwf	(moverMotor@velocidade+1)^0,c
  2820  001474  0E3C               	movlw	60
  2821  001476  6E09               	movwf	moverMotor@velocidade^0,c
  2822  001478  0E64               	movlw	100
  2823  00147A  EC0C  F012         	call	_moverMotor
  2824                           
  2825                           ;hachiko_0.c: 451:                     }
  2826  00147E  EF9D  F00B         	goto	l3064
  2827  001482                     l330:
  2828  001482  A280               	btfss	128,1,c	;volatile
  2829  001484  EF46  F00A         	goto	u5851
  2830  001488  EF48  F00A         	goto	u5850
  2831  00148C                     u5851:
  2832  00148C  EF78  F00A         	goto	l332
  2833  001490                     u5850:
  2834  001490  B880               	btfsc	128,4,c	;volatile
  2835  001492  EF4D  F00A         	goto	u5861
  2836  001496  EF4F  F00A         	goto	u5860
  2837  00149A                     u5861:
  2838  00149A  EF78  F00A         	goto	l332
  2839  00149E                     u5860:
  2840  00149E  A082               	btfss	130,0,c	;volatile
  2841  0014A0  EF54  F00A         	goto	u5871
  2842  0014A4  EF56  F00A         	goto	u5870
  2843  0014A8                     u5871:
  2844  0014A8  EF78  F00A         	goto	l332
  2845  0014AC                     u5870:
  2846  0014AC  B680               	btfsc	128,3,c	;volatile
  2847  0014AE  EF5B  F00A         	goto	u5881
  2848  0014B2  EF5D  F00A         	goto	u5880
  2849  0014B6                     u5881:
  2850  0014B6  EF78  F00A         	goto	l332
  2851  0014BA                     u5880:
  2852  0014BA  A480               	btfss	128,2,c	;volatile
  2853  0014BC  EF62  F00A         	goto	u5891
  2854  0014C0  EF64  F00A         	goto	u5890
  2855  0014C4                     u5891:
  2856  0014C4  EF78  F00A         	goto	l332
  2857  0014C8                     u5890:
  2858  0014C8                     
  2859                           ;hachiko_0.c: 453:                         moverMotor('e','f',60);
  2860  0014C8  0E66               	movlw	102
  2861  0014CA  6E08               	movwf	moverMotor@sentido^0,c
  2862  0014CC  0E00               	movlw	0
  2863  0014CE  6E0A               	movwf	(moverMotor@velocidade+1)^0,c
  2864  0014D0  0E3C               	movlw	60
  2865  0014D2  6E09               	movwf	moverMotor@velocidade^0,c
  2866  0014D4  0E65               	movlw	101
  2867  0014D6  EC0C  F012         	call	_moverMotor
  2868                           
  2869                           ;hachiko_0.c: 454:                         moverMotor('d','f',60);
  2870  0014DA  0E66               	movlw	102
  2871  0014DC  6E08               	movwf	moverMotor@sentido^0,c
  2872  0014DE  0E00               	movlw	0
  2873  0014E0  6E0A               	movwf	(moverMotor@velocidade+1)^0,c
  2874  0014E2  0E3C               	movlw	60
  2875  0014E4  6E09               	movwf	moverMotor@velocidade^0,c
  2876  0014E6  0E64               	movlw	100
  2877  0014E8  EC0C  F012         	call	_moverMotor
  2878                           
  2879                           ;hachiko_0.c: 456:                     }
  2880  0014EC  EF9D  F00B         	goto	l3064
  2881  0014F0                     l332:
  2882  0014F0  A280               	btfss	128,1,c	;volatile
  2883  0014F2  EF7D  F00A         	goto	u5901
  2884  0014F6  EF7F  F00A         	goto	u5900
  2885  0014FA                     u5901:
  2886  0014FA  EFAF  F00A         	goto	l334
  2887  0014FE                     u5900:
  2888  0014FE  A880               	btfss	128,4,c	;volatile
  2889  001500  EF84  F00A         	goto	u5911
  2890  001504  EF86  F00A         	goto	u5910
  2891  001508                     u5911:
  2892  001508  EFAF  F00A         	goto	l334
  2893  00150C                     u5910:
  2894  00150C  A082               	btfss	130,0,c	;volatile
  2895  00150E  EF8B  F00A         	goto	u5921
  2896  001512  EF8D  F00A         	goto	u5920
  2897  001516                     u5921:
  2898  001516  EFAF  F00A         	goto	l334
  2899  00151A                     u5920:
  2900  00151A  B680               	btfsc	128,3,c	;volatile
  2901  00151C  EF92  F00A         	goto	u5931
  2902  001520  EF94  F00A         	goto	u5930
  2903  001524                     u5931:
  2904  001524  EFAF  F00A         	goto	l334
  2905  001528                     u5930:
  2906  001528  A480               	btfss	128,2,c	;volatile
  2907  00152A  EF99  F00A         	goto	u5941
  2908  00152E  EF9B  F00A         	goto	u5940
  2909  001532                     u5941:
  2910  001532  EFAF  F00A         	goto	l334
  2911  001536                     u5940:
  2912  001536                     
  2913                           ;hachiko_0.c: 458:                         moverMotor('e','f',60);
  2914  001536  0E66               	movlw	102
  2915  001538  6E08               	movwf	moverMotor@sentido^0,c
  2916  00153A  0E00               	movlw	0
  2917  00153C  6E0A               	movwf	(moverMotor@velocidade+1)^0,c
  2918  00153E  0E3C               	movlw	60
  2919  001540  6E09               	movwf	moverMotor@velocidade^0,c
  2920  001542  0E65               	movlw	101
  2921  001544  EC0C  F012         	call	_moverMotor
  2922                           
  2923                           ;hachiko_0.c: 459:                         moverMotor('d','t',60);
  2924  001548  0E74               	movlw	116
  2925  00154A  6E08               	movwf	moverMotor@sentido^0,c
  2926  00154C  0E00               	movlw	0
  2927  00154E  6E0A               	movwf	(moverMotor@velocidade+1)^0,c
  2928  001550  0E3C               	movlw	60
  2929  001552  6E09               	movwf	moverMotor@velocidade^0,c
  2930  001554  0E64               	movlw	100
  2931  001556  EC0C  F012         	call	_moverMotor
  2932                           
  2933                           ;hachiko_0.c: 460:                     }
  2934  00155A  EF9D  F00B         	goto	l3064
  2935  00155E                     l334:
  2936  00155E  A280               	btfss	128,1,c	;volatile
  2937  001560  EFB4  F00A         	goto	u5951
  2938  001564  EFB6  F00A         	goto	u5950
  2939  001568                     u5951:
  2940  001568  EFE6  F00A         	goto	l336
  2941  00156C                     u5950:
  2942  00156C  A880               	btfss	128,4,c	;volatile
  2943  00156E  EFBB  F00A         	goto	u5961
  2944  001572  EFBD  F00A         	goto	u5960
  2945  001576                     u5961:
  2946  001576  EFE6  F00A         	goto	l336
  2947  00157A                     u5960:
  2948  00157A  B082               	btfsc	130,0,c	;volatile
  2949  00157C  EFC2  F00A         	goto	u5971
  2950  001580  EFC4  F00A         	goto	u5970
  2951  001584                     u5971:
  2952  001584  EFE6  F00A         	goto	l336
  2953  001588                     u5970:
  2954  001588  B680               	btfsc	128,3,c	;volatile
  2955  00158A  EFC9  F00A         	goto	u5981
  2956  00158E  EFCB  F00A         	goto	u5980
  2957  001592                     u5981:
  2958  001592  EFE6  F00A         	goto	l336
  2959  001596                     u5980:
  2960  001596  A480               	btfss	128,2,c	;volatile
  2961  001598  EFD0  F00A         	goto	u5991
  2962  00159C  EFD2  F00A         	goto	u5990
  2963  0015A0                     u5991:
  2964  0015A0  EFE6  F00A         	goto	l336
  2965  0015A4                     u5990:
  2966  0015A4                     
  2967                           ;hachiko_0.c: 462:                         moverMotor('e','f',60);
  2968  0015A4  0E66               	movlw	102
  2969  0015A6  6E08               	movwf	moverMotor@sentido^0,c
  2970  0015A8  0E00               	movlw	0
  2971  0015AA  6E0A               	movwf	(moverMotor@velocidade+1)^0,c
  2972  0015AC  0E3C               	movlw	60
  2973  0015AE  6E09               	movwf	moverMotor@velocidade^0,c
  2974  0015B0  0E65               	movlw	101
  2975  0015B2  EC0C  F012         	call	_moverMotor
  2976                           
  2977                           ;hachiko_0.c: 463:                         moverMotor('d','t',60);
  2978  0015B6  0E74               	movlw	116
  2979  0015B8  6E08               	movwf	moverMotor@sentido^0,c
  2980  0015BA  0E00               	movlw	0
  2981  0015BC  6E0A               	movwf	(moverMotor@velocidade+1)^0,c
  2982  0015BE  0E3C               	movlw	60
  2983  0015C0  6E09               	movwf	moverMotor@velocidade^0,c
  2984  0015C2  0E64               	movlw	100
  2985  0015C4  EC0C  F012         	call	_moverMotor
  2986                           
  2987                           ;hachiko_0.c: 464:                     }
  2988  0015C8  EF9D  F00B         	goto	l3064
  2989  0015CC                     l336:
  2990  0015CC  A280               	btfss	128,1,c	;volatile
  2991  0015CE  EFEB  F00A         	goto	u6001
  2992  0015D2  EFED  F00A         	goto	u6000
  2993  0015D6                     u6001:
  2994  0015D6  EF1D  F00B         	goto	l338
  2995  0015DA                     u6000:
  2996  0015DA  B880               	btfsc	128,4,c	;volatile
  2997  0015DC  EFF2  F00A         	goto	u6011
  2998  0015E0  EFF4  F00A         	goto	u6010
  2999  0015E4                     u6011:
  3000  0015E4  EF1D  F00B         	goto	l338
  3001  0015E8                     u6010:
  3002  0015E8  A082               	btfss	130,0,c	;volatile
  3003  0015EA  EFF9  F00A         	goto	u6021
  3004  0015EE  EFFB  F00A         	goto	u6020
  3005  0015F2                     u6021:
  3006  0015F2  EF1D  F00B         	goto	l338
  3007  0015F6                     u6020:
  3008  0015F6  A680               	btfss	128,3,c	;volatile
  3009  0015F8  EF00  F00B         	goto	u6031
  3010  0015FC  EF02  F00B         	goto	u6030
  3011  001600                     u6031:
  3012  001600  EF1D  F00B         	goto	l338
  3013  001604                     u6030:
  3014  001604  A480               	btfss	128,2,c	;volatile
  3015  001606  EF07  F00B         	goto	u6041
  3016  00160A  EF09  F00B         	goto	u6040
  3017  00160E                     u6041:
  3018  00160E  EF1D  F00B         	goto	l338
  3019  001612                     u6040:
  3020  001612                     
  3021                           ;hachiko_0.c: 466:                         moverMotor('e','t',60);
  3022  001612  0E74               	movlw	116
  3023  001614  6E08               	movwf	moverMotor@sentido^0,c
  3024  001616  0E00               	movlw	0
  3025  001618  6E0A               	movwf	(moverMotor@velocidade+1)^0,c
  3026  00161A  0E3C               	movlw	60
  3027  00161C  6E09               	movwf	moverMotor@velocidade^0,c
  3028  00161E  0E65               	movlw	101
  3029  001620  EC0C  F012         	call	_moverMotor
  3030                           
  3031                           ;hachiko_0.c: 467:                         moverMotor('d','f',60);
  3032  001624  0E66               	movlw	102
  3033  001626  6E08               	movwf	moverMotor@sentido^0,c
  3034  001628  0E00               	movlw	0
  3035  00162A  6E0A               	movwf	(moverMotor@velocidade+1)^0,c
  3036  00162C  0E3C               	movlw	60
  3037  00162E  6E09               	movwf	moverMotor@velocidade^0,c
  3038  001630  0E64               	movlw	100
  3039  001632  EC0C  F012         	call	_moverMotor
  3040                           
  3041                           ;hachiko_0.c: 468:                     }
  3042  001636  EF9D  F00B         	goto	l3064
  3043  00163A                     l338:
  3044  00163A  A280               	btfss	128,1,c	;volatile
  3045  00163C  EF22  F00B         	goto	u6051
  3046  001640  EF24  F00B         	goto	u6050
  3047  001644                     u6051:
  3048  001644  EF54  F00B         	goto	l340
  3049  001648                     u6050:
  3050  001648  B880               	btfsc	128,4,c	;volatile
  3051  00164A  EF29  F00B         	goto	u6061
  3052  00164E  EF2B  F00B         	goto	u6060
  3053  001652                     u6061:
  3054  001652  EF54  F00B         	goto	l340
  3055  001656                     u6060:
  3056  001656  B082               	btfsc	130,0,c	;volatile
  3057  001658  EF30  F00B         	goto	u6071
  3058  00165C  EF32  F00B         	goto	u6070
  3059  001660                     u6071:
  3060  001660  EF54  F00B         	goto	l340
  3061  001664                     u6070:
  3062  001664  A680               	btfss	128,3,c	;volatile
  3063  001666  EF37  F00B         	goto	u6081
  3064  00166A  EF39  F00B         	goto	u6080
  3065  00166E                     u6081:
  3066  00166E  EF54  F00B         	goto	l340
  3067  001672                     u6080:
  3068  001672  A480               	btfss	128,2,c	;volatile
  3069  001674  EF3E  F00B         	goto	u6091
  3070  001678  EF40  F00B         	goto	u6090
  3071  00167C                     u6091:
  3072  00167C  EF54  F00B         	goto	l340
  3073  001680                     u6090:
  3074  001680                     
  3075                           ;hachiko_0.c: 470:                         moverMotor('e','t',60);
  3076  001680  0E74               	movlw	116
  3077  001682  6E08               	movwf	moverMotor@sentido^0,c
  3078  001684  0E00               	movlw	0
  3079  001686  6E0A               	movwf	(moverMotor@velocidade+1)^0,c
  3080  001688  0E3C               	movlw	60
  3081  00168A  6E09               	movwf	moverMotor@velocidade^0,c
  3082  00168C  0E65               	movlw	101
  3083  00168E  EC0C  F012         	call	_moverMotor
  3084                           
  3085                           ;hachiko_0.c: 471:                         moverMotor('d','f',60);
  3086  001692  0E66               	movlw	102
  3087  001694  6E08               	movwf	moverMotor@sentido^0,c
  3088  001696  0E00               	movlw	0
  3089  001698  6E0A               	movwf	(moverMotor@velocidade+1)^0,c
  3090  00169A  0E3C               	movlw	60
  3091  00169C  6E09               	movwf	moverMotor@velocidade^0,c
  3092  00169E  0E64               	movlw	100
  3093  0016A0  EC0C  F012         	call	_moverMotor
  3094                           
  3095                           ;hachiko_0.c: 472:                     }
  3096  0016A4  EF9D  F00B         	goto	l3064
  3097  0016A8                     l340:
  3098  0016A8  A280               	btfss	128,1,c	;volatile
  3099  0016AA  EF59  F00B         	goto	u6101
  3100  0016AE  EF5B  F00B         	goto	u6100
  3101  0016B2                     u6101:
  3102  0016B2  EF8B  F00B         	goto	l3062
  3103  0016B6                     u6100:
  3104  0016B6  A880               	btfss	128,4,c	;volatile
  3105  0016B8  EF60  F00B         	goto	u6111
  3106  0016BC  EF62  F00B         	goto	u6110
  3107  0016C0                     u6111:
  3108  0016C0  EF8B  F00B         	goto	l3062
  3109  0016C4                     u6110:
  3110  0016C4  A082               	btfss	130,0,c	;volatile
  3111  0016C6  EF67  F00B         	goto	u6121
  3112  0016CA  EF69  F00B         	goto	u6120
  3113  0016CE                     u6121:
  3114  0016CE  EF8B  F00B         	goto	l3062
  3115  0016D2                     u6120:
  3116  0016D2  A680               	btfss	128,3,c	;volatile
  3117  0016D4  EF6E  F00B         	goto	u6131
  3118  0016D8  EF70  F00B         	goto	u6130
  3119  0016DC                     u6131:
  3120  0016DC  EF8B  F00B         	goto	l3062
  3121  0016E0                     u6130:
  3122  0016E0  B480               	btfsc	128,2,c	;volatile
  3123  0016E2  EF75  F00B         	goto	u6141
  3124  0016E6  EF77  F00B         	goto	u6140
  3125  0016EA                     u6141:
  3126  0016EA  EF8B  F00B         	goto	l3062
  3127  0016EE                     u6140:
  3128  0016EE                     
  3129                           ;hachiko_0.c: 474:                         moverMotor('e','f',60);
  3130  0016EE  0E66               	movlw	102
  3131  0016F0  6E08               	movwf	moverMotor@sentido^0,c
  3132  0016F2  0E00               	movlw	0
  3133  0016F4  6E0A               	movwf	(moverMotor@velocidade+1)^0,c
  3134  0016F6  0E3C               	movlw	60
  3135  0016F8  6E09               	movwf	moverMotor@velocidade^0,c
  3136  0016FA  0E65               	movlw	101
  3137  0016FC  EC0C  F012         	call	_moverMotor
  3138                           
  3139                           ;hachiko_0.c: 475:                         moverMotor('d','t',60);
  3140  001700  0E74               	movlw	116
  3141  001702  6E08               	movwf	moverMotor@sentido^0,c
  3142  001704  0E00               	movlw	0
  3143  001706  6E0A               	movwf	(moverMotor@velocidade+1)^0,c
  3144  001708  0E3C               	movlw	60
  3145  00170A  6E09               	movwf	moverMotor@velocidade^0,c
  3146  00170C  0E64               	movlw	100
  3147  00170E  EC0C  F012         	call	_moverMotor
  3148                           
  3149                           ;hachiko_0.c: 476:                     }
  3150  001712  EF9D  F00B         	goto	l3064
  3151  001716                     l3062:
  3152                           
  3153                           ;hachiko_0.c: 478:                         moverMotor('d','t',60);
  3154  001716  0E74               	movlw	116
  3155  001718  6E08               	movwf	moverMotor@sentido^0,c
  3156  00171A  0E00               	movlw	0
  3157  00171C  6E0A               	movwf	(moverMotor@velocidade+1)^0,c
  3158  00171E  0E3C               	movlw	60
  3159  001720  6E09               	movwf	moverMotor@velocidade^0,c
  3160  001722  0E64               	movlw	100
  3161  001724  EC0C  F012         	call	_moverMotor
  3162                           
  3163                           ;hachiko_0.c: 479:                         moverMotor('e','f',60);
  3164  001728  0E66               	movlw	102
  3165  00172A  6E08               	movwf	moverMotor@sentido^0,c
  3166  00172C  0E00               	movlw	0
  3167  00172E  6E0A               	movwf	(moverMotor@velocidade+1)^0,c
  3168  001730  0E3C               	movlw	60
  3169  001732  6E09               	movwf	moverMotor@velocidade^0,c
  3170  001734  0E65               	movlw	101
  3171  001736  EC0C  F012         	call	_moverMotor
  3172  00173A                     l3064:
  3173                           
  3174                           ;hachiko_0.c: 433:                 while(cont_tmr < 0x07){
  3175  00173A  0E06               	movlw	6
  3176  00173C  6417               	cpfsgt	main@cont_tmr_710^0,c
  3177  00173E  EFA3  F00B         	goto	u6151
  3178  001742  EFA5  F00B         	goto	u6150
  3179  001746                     u6151:
  3180  001746  EFC6  F009         	goto	l326
  3181  00174A                     u6150:
  3182  00174A                     
  3183                           ;hachiko_0.c: 482:                 pararMotor();
  3184  00174A  ECF2  F012         	call	_pararMotor	;wreg free
  3185  00174E                     
  3186                           ;hachiko_0.c: 483:                 _delay((unsigned long)((10)*(20000000/4000.0)));
  3187  00174E  0E41               	movlw	65
  3188  001750  6E10               	movwf	??_main^0,c
  3189  001752  0EEE               	movlw	238
  3190  001754                     u6427:
  3191  001754  2EE8               	decfsz	wreg,f,c
  3192  001756  D7FE               	bra	u6427
  3193  001758  2E10               	decfsz	??_main^0,f,c
  3194  00175A  D7FC               	bra	u6427
  3195  00175C  F000 F000          	nop2	
  3196  001760                     
  3197                           ;hachiko_0.c: 485:                 if(acao == "parar"){
  3198  001760  0E58               	movlw	low STR_16
  3199  001762  181C               	xorwf	_acao^0,w,c
  3200  001764  E107               	bnz	u6161
  3201  001766  0E03               	movlw	high STR_16
  3202  001768  181D               	xorwf	(_acao+1)^0,w,c
  3203  00176A  A4D8               	btfss	status,2,c
  3204  00176C  EFBA  F00B         	goto	u6161
  3205  001770  EFBC  F00B         	goto	u6160
  3206  001774                     u6161:
  3207  001774  EFC0  F00B         	goto	l3074
  3208  001778                     u6160:
  3209  001778                     
  3210                           ;hachiko_0.c: 486:                     pararMotor();
  3211  001778  ECF2  F012         	call	_pararMotor	;wreg free
  3212                           
  3213                           ;hachiko_0.c: 487:                     break;
  3214  00177C  EFC9  F00B         	goto	l346
  3215  001780                     l3074:
  3216                           
  3217                           ;hachiko_0.c: 489:                 cont_zig++;
  3218  001780  2A13               	incf	main@cont_zig^0,f,c
  3219  001782                     l3076:
  3220                           
  3221                           ;hachiko_0.c: 376:             while(cont_zig < 0x0C){
  3222  001782  0E0B               	movlw	11
  3223  001784  6413               	cpfsgt	main@cont_zig^0,c
  3224  001786  EFC7  F00B         	goto	u6171
  3225  00178A  EFC9  F00B         	goto	u6170
  3226  00178E                     u6171:
  3227  00178E  EFAF  F009         	goto	l2966
  3228  001792                     u6170:
  3229  001792                     l346:
  3230                           
  3231                           ;hachiko_0.c: 491:             TMR1ON = 0;
  3232  001792  90CD               	bcf	4045,0,c	;volatile
  3233  001794                     
  3234                           ;hachiko_0.c: 492:             acao = " ";
  3235  001794  0E74               	movlw	low STR_32
  3236  001796  6E1C               	movwf	_acao^0,c
  3237  001798  0E03               	movlw	high STR_32
  3238  00179A  6E1D               	movwf	(_acao+1)^0,c
  3239  00179C                     l300:
  3240                           
  3241                           ;hachiko_0.c: 496:         if(acao == "esquerdo"){
  3242  00179C  0E14               	movlw	low STR_12
  3243  00179E  181C               	xorwf	_acao^0,w,c
  3244  0017A0  E107               	bnz	u6181
  3245  0017A2  0E03               	movlw	high STR_12
  3246  0017A4  181D               	xorwf	(_acao+1)^0,w,c
  3247  0017A6  A4D8               	btfss	status,2,c
  3248  0017A8  EFD8  F00B         	goto	u6181
  3249  0017AC  EFDA  F00B         	goto	u6180
  3250  0017B0                     u6181:
  3251  0017B0  EF15  F00C         	goto	l3100
  3252  0017B4                     u6180:
  3253  0017B4                     
  3254                           ;hachiko_0.c: 497:             velocidade = 10*600/100;
  3255  0017B4  0E00               	movlw	0
  3256  0017B6  6E1B               	movwf	(_velocidade+1)^0,c
  3257  0017B8  0E3C               	movlw	60
  3258  0017BA  6E1A               	movwf	_velocidade^0,c
  3259  0017BC                     
  3260                           ;hachiko_0.c: 498:             PORTBbits.RB7 = 1;
  3261  0017BC  8E81               	bsf	129,7,c	;volatile
  3262  0017BE                     l3084:
  3263                           
  3264                           ;hachiko_0.c: 500:                 if(acao == "tras"){
  3265  0017BE  0E69               	movlw	low STR_14
  3266  0017C0  181C               	xorwf	_acao^0,w,c
  3267  0017C2  E107               	bnz	u6191
  3268  0017C4  0E03               	movlw	high STR_14
  3269  0017C6  181D               	xorwf	(_acao+1)^0,w,c
  3270  0017C8  A4D8               	btfss	status,2,c
  3271  0017CA  EFE9  F00B         	goto	u6191
  3272  0017CE  EFEB  F00B         	goto	u6190
  3273  0017D2                     u6191:
  3274  0017D2  EFF5  F00B         	goto	l3090
  3275  0017D6                     u6190:
  3276  0017D6                     
  3277                           ;hachiko_0.c: 501:                     PDC1L = 0x00;
  3278  0017D6  0E00               	movlw	0
  3279  0017D8  6E77               	movwf	119,c	;volatile
  3280                           
  3281                           ;hachiko_0.c: 502:                     PDC1H = 0x00;
  3282  0017DA  0E00               	movlw	0
  3283  0017DC  6E76               	movwf	118,c	;volatile
  3284  0017DE                     
  3285                           ;hachiko_0.c: 503:                     PDC2L = velocidade & 0xFF;
  3286  0017DE  C01A  FF75         	movff	_velocidade,3957	;volatile
  3287                           
  3288                           ;hachiko_0.c: 504:                     PDC2H = (velocidade >> 8) & 0xFF;
  3289  0017E2  501B               	movf	(_velocidade+1)^0,w,c
  3290  0017E4  6E74               	movwf	116,c	;volatile
  3291                           
  3292                           ;hachiko_0.c: 505:                 }
  3293  0017E6  EF09  F00C         	goto	l3096
  3294  0017EA                     l3090:
  3295  0017EA  0E3E               	movlw	low STR_13
  3296  0017EC  181C               	xorwf	_acao^0,w,c
  3297  0017EE  E107               	bnz	u6201
  3298  0017F0  0E03               	movlw	high STR_13
  3299  0017F2  181D               	xorwf	(_acao+1)^0,w,c
  3300  0017F4  A4D8               	btfss	status,2,c
  3301  0017F6  EFFF  F00B         	goto	u6201
  3302  0017FA  EF01  F00C         	goto	u6200
  3303  0017FE                     u6201:
  3304  0017FE  EF09  F00C         	goto	l3096
  3305  001802                     u6200:
  3306  001802                     
  3307                           ;hachiko_0.c: 507:                     PDC1L = velocidade & 0xFF;
  3308  001802  C01A  FF77         	movff	_velocidade,3959	;volatile
  3309  001806                     
  3310                           ;hachiko_0.c: 508:                     PDC1H = (velocidade >> 8) & 0xFF;
  3311  001806  501B               	movf	(_velocidade+1)^0,w,c
  3312  001808  6E76               	movwf	118,c	;volatile
  3313                           
  3314                           ;hachiko_0.c: 509:                     PDC2L = 0x00;
  3315  00180A  0E00               	movlw	0
  3316  00180C  6E75               	movwf	117,c	;volatile
  3317                           
  3318                           ;hachiko_0.c: 510:                     PDC2H = 0x00;
  3319  00180E  0E00               	movlw	0
  3320  001810  6E74               	movwf	116,c	;volatile
  3321  001812                     l3096:
  3322                           
  3323                           ;hachiko_0.c: 512:                 if(acao == "parar") break;
  3324  001812  0E58               	movlw	low STR_16
  3325  001814  181C               	xorwf	_acao^0,w,c
  3326  001816  E107               	bnz	u6211
  3327  001818  0E03               	movlw	high STR_16
  3328  00181A  181D               	xorwf	(_acao+1)^0,w,c
  3329  00181C  A4D8               	btfss	status,2,c
  3330  00181E  EF13  F00C         	goto	u6211
  3331  001822  EF15  F00C         	goto	u6210
  3332  001826                     u6211:
  3333  001826  EFDF  F00B         	goto	l3084
  3334  00182A                     u6210:
  3335  00182A                     l3100:
  3336                           
  3337                           ;hachiko_0.c: 516:         if(acao == "direito"){
  3338  00182A  0E2E               	movlw	low STR_11
  3339  00182C  181C               	xorwf	_acao^0,w,c
  3340  00182E  E107               	bnz	u6221
  3341  001830  0E03               	movlw	high STR_11
  3342  001832  181D               	xorwf	(_acao+1)^0,w,c
  3343  001834  A4D8               	btfss	status,2,c
  3344  001836  EF1F  F00C         	goto	u6221
  3345  00183A  EF21  F00C         	goto	u6220
  3346  00183E                     u6221:
  3347  00183E  EF5C  F00C         	goto	l3122
  3348  001842                     u6220:
  3349  001842                     
  3350                           ;hachiko_0.c: 517:             velocidade = 10*600/100;
  3351  001842  0E00               	movlw	0
  3352  001844  6E1B               	movwf	(_velocidade+1)^0,c
  3353  001846  0E3C               	movlw	60
  3354  001848  6E1A               	movwf	_velocidade^0,c
  3355  00184A                     
  3356                           ;hachiko_0.c: 518:             PORTBbits.RB6 = 1;
  3357  00184A  8C81               	bsf	129,6,c	;volatile
  3358  00184C                     l3106:
  3359                           
  3360                           ;hachiko_0.c: 520:                 if(acao == "frente"){
  3361  00184C  0E3E               	movlw	low STR_13
  3362  00184E  181C               	xorwf	_acao^0,w,c
  3363  001850  E107               	bnz	u6231
  3364  001852  0E03               	movlw	high STR_13
  3365  001854  181D               	xorwf	(_acao+1)^0,w,c
  3366  001856  A4D8               	btfss	status,2,c
  3367  001858  EF30  F00C         	goto	u6231
  3368  00185C  EF32  F00C         	goto	u6230
  3369  001860                     u6231:
  3370  001860  EF3C  F00C         	goto	l3112
  3371  001864                     u6230:
  3372  001864                     
  3373                           ;hachiko_0.c: 521:                     PDC0L = velocidade & 0xFF;
  3374  001864  C01A  FF79         	movff	_velocidade,3961	;volatile
  3375  001868                     
  3376                           ;hachiko_0.c: 522:                     PDC0H = (velocidade >> 8) & 0xFF;
  3377  001868  501B               	movf	(_velocidade+1)^0,w,c
  3378  00186A  6E78               	movwf	120,c	;volatile
  3379                           
  3380                           ;hachiko_0.c: 523:                     PDC3L = 0x00;
  3381  00186C  0E00               	movlw	0
  3382  00186E  6E73               	movwf	115,c	;volatile
  3383                           
  3384                           ;hachiko_0.c: 524:                     PDC3H = 0x00;
  3385  001870  0E00               	movlw	0
  3386  001872  6E72               	movwf	114,c	;volatile
  3387                           
  3388                           ;hachiko_0.c: 525:                 }
  3389  001874  EF50  F00C         	goto	l3118
  3390  001878                     l3112:
  3391  001878  0E69               	movlw	low STR_14
  3392  00187A  181C               	xorwf	_acao^0,w,c
  3393  00187C  E107               	bnz	u6241
  3394  00187E  0E03               	movlw	high STR_14
  3395  001880  181D               	xorwf	(_acao+1)^0,w,c
  3396  001882  A4D8               	btfss	status,2,c
  3397  001884  EF46  F00C         	goto	u6241
  3398  001888  EF48  F00C         	goto	u6240
  3399  00188C                     u6241:
  3400  00188C  EF50  F00C         	goto	l3118
  3401  001890                     u6240:
  3402  001890                     
  3403                           ;hachiko_0.c: 527:                     PDC0L = 0x00;
  3404  001890  0E00               	movlw	0
  3405  001892  6E79               	movwf	121,c	;volatile
  3406                           
  3407                           ;hachiko_0.c: 528:                     PDC0H = 0x00;
  3408  001894  0E00               	movlw	0
  3409  001896  6E78               	movwf	120,c	;volatile
  3410  001898                     
  3411                           ;hachiko_0.c: 529:                     PDC3L = velocidade & 0xFF;
  3412  001898  C01A  FF73         	movff	_velocidade,3955	;volatile
  3413                           
  3414                           ;hachiko_0.c: 530:                     PDC3H = (velocidade >> 8) & 0xFF;
  3415  00189C  501B               	movf	(_velocidade+1)^0,w,c
  3416  00189E  6E72               	movwf	114,c	;volatile
  3417  0018A0                     l3118:
  3418                           
  3419                           ;hachiko_0.c: 532:                 if(acao == "parar") break;
  3420  0018A0  0E58               	movlw	low STR_16
  3421  0018A2  181C               	xorwf	_acao^0,w,c
  3422  0018A4  E107               	bnz	u6251
  3423  0018A6  0E03               	movlw	high STR_16
  3424  0018A8  181D               	xorwf	(_acao+1)^0,w,c
  3425  0018AA  A4D8               	btfss	status,2,c
  3426  0018AC  EF5A  F00C         	goto	u6251
  3427  0018B0  EF5C  F00C         	goto	u6250
  3428  0018B4                     u6251:
  3429  0018B4  EF26  F00C         	goto	l3106
  3430  0018B8                     u6250:
  3431  0018B8                     l3122:
  3432                           
  3433                           ;hachiko_0.c: 536:         if(acao == "motor"){
  3434  0018B8  0E5E               	movlw	low STR_15
  3435  0018BA  181C               	xorwf	_acao^0,w,c
  3436  0018BC  E107               	bnz	u6261
  3437  0018BE  0E03               	movlw	high STR_15
  3438  0018C0  181D               	xorwf	(_acao+1)^0,w,c
  3439  0018C2  A4D8               	btfss	status,2,c
  3440  0018C4  EF66  F00C         	goto	u6261
  3441  0018C8  EF68  F00C         	goto	u6260
  3442  0018CC                     u6261:
  3443  0018CC  EFB6  F00C         	goto	l3150
  3444  0018D0                     u6260:
  3445  0018D0                     
  3446                           ;hachiko_0.c: 537:             velocidade = 10*600/100;
  3447  0018D0  0E00               	movlw	0
  3448  0018D2  6E1B               	movwf	(_velocidade+1)^0,c
  3449  0018D4  0E3C               	movlw	60
  3450  0018D6  6E1A               	movwf	_velocidade^0,c
  3451  0018D8                     
  3452                           ;hachiko_0.c: 538:             PORTBbits.RB6 = 1;
  3453  0018D8  8C81               	bsf	129,6,c	;volatile
  3454  0018DA                     
  3455                           ;hachiko_0.c: 539:             PORTBbits.RB7 = 1;
  3456  0018DA  8E81               	bsf	129,7,c	;volatile
  3457  0018DC                     l3130:
  3458                           
  3459                           ;hachiko_0.c: 541:                 if(acao == "frente"){
  3460  0018DC  0E3E               	movlw	low STR_13
  3461  0018DE  181C               	xorwf	_acao^0,w,c
  3462  0018E0  E107               	bnz	u6271
  3463  0018E2  0E03               	movlw	high STR_13
  3464  0018E4  181D               	xorwf	(_acao+1)^0,w,c
  3465  0018E6  A4D8               	btfss	status,2,c
  3466  0018E8  EF78  F00C         	goto	u6271
  3467  0018EC  EF7A  F00C         	goto	u6270
  3468  0018F0                     u6271:
  3469  0018F0  EF8C  F00C         	goto	l3138
  3470  0018F4                     u6270:
  3471  0018F4                     
  3472                           ;hachiko_0.c: 542:                     PDC0L = velocidade & 0xFF;
  3473  0018F4  C01A  FF79         	movff	_velocidade,3961	;volatile
  3474  0018F8                     
  3475                           ;hachiko_0.c: 543:                     PDC0H = (velocidade >> 8) & 0xFF;
  3476  0018F8  501B               	movf	(_velocidade+1)^0,w,c
  3477  0018FA  6E78               	movwf	120,c	;volatile
  3478                           
  3479                           ;hachiko_0.c: 544:                     PDC3L = 0x00;
  3480  0018FC  0E00               	movlw	0
  3481  0018FE  6E73               	movwf	115,c	;volatile
  3482                           
  3483                           ;hachiko_0.c: 545:                     PDC3H = 0x00;
  3484  001900  0E00               	movlw	0
  3485  001902  6E72               	movwf	114,c	;volatile
  3486  001904                     
  3487                           ;hachiko_0.c: 547:                     PDC1L = velocidade & 0xFF;
  3488  001904  C01A  FF77         	movff	_velocidade,3959	;volatile
  3489                           
  3490                           ;hachiko_0.c: 548:                     PDC1H = (velocidade >> 8) & 0xFF;
  3491  001908  501B               	movf	(_velocidade+1)^0,w,c
  3492  00190A  6E76               	movwf	118,c	;volatile
  3493                           
  3494                           ;hachiko_0.c: 549:                     PDC2L = 0x00;
  3495  00190C  0E00               	movlw	0
  3496  00190E  6E75               	movwf	117,c	;volatile
  3497                           
  3498                           ;hachiko_0.c: 550:                     PDC2H = 0x00;
  3499  001910  0E00               	movlw	0
  3500  001912  6E74               	movwf	116,c	;volatile
  3501                           
  3502                           ;hachiko_0.c: 551:                 }
  3503  001914  EFA8  F00C         	goto	l3146
  3504  001918                     l3138:
  3505  001918  0E69               	movlw	low STR_14
  3506  00191A  181C               	xorwf	_acao^0,w,c
  3507  00191C  E107               	bnz	u6281
  3508  00191E  0E03               	movlw	high STR_14
  3509  001920  181D               	xorwf	(_acao+1)^0,w,c
  3510  001922  A4D8               	btfss	status,2,c
  3511  001924  EF96  F00C         	goto	u6281
  3512  001928  EF98  F00C         	goto	u6280
  3513  00192C                     u6281:
  3514  00192C  EFA8  F00C         	goto	l3146
  3515  001930                     u6280:
  3516  001930                     
  3517                           ;hachiko_0.c: 553:                     PDC0L = 0x00;
  3518  001930  0E00               	movlw	0
  3519  001932  6E79               	movwf	121,c	;volatile
  3520                           
  3521                           ;hachiko_0.c: 554:                     PDC0H = 0x00;
  3522  001934  0E00               	movlw	0
  3523  001936  6E78               	movwf	120,c	;volatile
  3524  001938                     
  3525                           ;hachiko_0.c: 555:                     PDC3L = velocidade & 0xFF;
  3526  001938  C01A  FF73         	movff	_velocidade,3955	;volatile
  3527                           
  3528                           ;hachiko_0.c: 556:                     PDC3H = (velocidade >> 8) & 0xFF;
  3529  00193C  501B               	movf	(_velocidade+1)^0,w,c
  3530  00193E  6E72               	movwf	114,c	;volatile
  3531                           
  3532                           ;hachiko_0.c: 558:                     PDC1L = 0x00;
  3533  001940  0E00               	movlw	0
  3534  001942  6E77               	movwf	119,c	;volatile
  3535                           
  3536                           ;hachiko_0.c: 559:                     PDC1H = 0x00;
  3537  001944  0E00               	movlw	0
  3538  001946  6E76               	movwf	118,c	;volatile
  3539  001948                     
  3540                           ;hachiko_0.c: 560:                     PDC2L = velocidade & 0xFF;
  3541  001948  C01A  FF75         	movff	_velocidade,3957	;volatile
  3542                           
  3543                           ;hachiko_0.c: 561:                     PDC2H = (velocidade >> 8) & 0xFF;
  3544  00194C  501B               	movf	(_velocidade+1)^0,w,c
  3545  00194E  6E74               	movwf	116,c	;volatile
  3546  001950                     l3146:
  3547                           
  3548                           ;hachiko_0.c: 563:                 if(acao == "parar"){
  3549  001950  0E58               	movlw	low STR_16
  3550  001952  181C               	xorwf	_acao^0,w,c
  3551  001954  E107               	bnz	u6291
  3552  001956  0E03               	movlw	high STR_16
  3553  001958  181D               	xorwf	(_acao+1)^0,w,c
  3554  00195A  A4D8               	btfss	status,2,c
  3555  00195C  EFB2  F00C         	goto	u6291
  3556  001960  EFB4  F00C         	goto	u6290
  3557  001964                     u6291:
  3558  001964  EF6E  F00C         	goto	l3130
  3559  001968                     u6290:
  3560  001968                     
  3561                           ;hachiko_0.c: 564:                     pararMotor();
  3562  001968  ECF2  F012         	call	_pararMotor	;wreg free
  3563  00196C                     l3150:
  3564                           
  3565                           ;hachiko_0.c: 570:         if(acao == "teste"){
  3566  00196C  0E52               	movlw	low STR_8
  3567  00196E  181C               	xorwf	_acao^0,w,c
  3568  001970  E107               	bnz	u6301
  3569  001972  0E03               	movlw	high STR_8
  3570  001974  181D               	xorwf	(_acao+1)^0,w,c
  3571  001976  A4D8               	btfss	status,2,c
  3572  001978  EFC0  F00C         	goto	u6301
  3573  00197C  EFC2  F00C         	goto	u6300
  3574  001980                     u6301:
  3575  001980  EF25  F00D         	goto	l3170
  3576  001984                     u6300:
  3577  001984                     
  3578                           ;hachiko_0.c: 572:             PORTBbits.RB7 = 1;
  3579  001984  8E81               	bsf	129,7,c	;volatile
  3580                           
  3581                           ;hachiko_0.c: 573:             PORTBbits.RB6 = 1;
  3582  001986  8C81               	bsf	129,6,c	;volatile
  3583  001988                     
  3584                           ;hachiko_0.c: 589:             moverMotor('d','f',80);
  3585  001988  0E66               	movlw	102
  3586  00198A  6E08               	movwf	moverMotor@sentido^0,c
  3587  00198C  0E00               	movlw	0
  3588  00198E  6E0A               	movwf	(moverMotor@velocidade+1)^0,c
  3589  001990  0E50               	movlw	80
  3590  001992  6E09               	movwf	moverMotor@velocidade^0,c
  3591  001994  0E64               	movlw	100
  3592  001996  EC0C  F012         	call	_moverMotor
  3593                           
  3594                           ;hachiko_0.c: 590:             moverMotor('e','f',80);
  3595  00199A  0E66               	movlw	102
  3596  00199C  6E08               	movwf	moverMotor@sentido^0,c
  3597  00199E  0E00               	movlw	0
  3598  0019A0  6E0A               	movwf	(moverMotor@velocidade+1)^0,c
  3599  0019A2  0E50               	movlw	80
  3600  0019A4  6E09               	movwf	moverMotor@velocidade^0,c
  3601  0019A6  0E65               	movlw	101
  3602  0019A8  EC0C  F012         	call	_moverMotor
  3603  0019AC                     
  3604                           ;hachiko_0.c: 591:             _delay((unsigned long)((500)*(20000000/4000.0)));
  3605  0019AC  0E0D               	movlw	13
  3606  0019AE  6E11               	movwf	(??_main+1)^0,c
  3607  0019B0  0EAF               	movlw	175
  3608  0019B2  6E10               	movwf	??_main^0,c
  3609  0019B4  0EB6               	movlw	182
  3610  0019B6                     u6437:
  3611  0019B6  2EE8               	decfsz	wreg,f,c
  3612  0019B8  D7FE               	bra	u6437
  3613  0019BA  2E10               	decfsz	??_main^0,f,c
  3614  0019BC  D7FC               	bra	u6437
  3615  0019BE  2E11               	decfsz	(??_main+1)^0,f,c
  3616  0019C0  D7FA               	bra	u6437
  3617  0019C2  F000 F000          	nop2	
  3618  0019C6                     
  3619                           ;hachiko_0.c: 593:             moverMotor('d','f',0);
  3620  0019C6  0E66               	movlw	102
  3621  0019C8  6E08               	movwf	moverMotor@sentido^0,c
  3622  0019CA  0E00               	movlw	0
  3623  0019CC  6E0A               	movwf	(moverMotor@velocidade+1)^0,c
  3624  0019CE  0E00               	movlw	0
  3625  0019D0  6E09               	movwf	moverMotor@velocidade^0,c
  3626  0019D2  0E64               	movlw	100
  3627  0019D4  EC0C  F012         	call	_moverMotor
  3628  0019D8                     
  3629                           ;hachiko_0.c: 594:             moverMotor('e','f',0);
  3630  0019D8  0E66               	movlw	102
  3631  0019DA  6E08               	movwf	moverMotor@sentido^0,c
  3632  0019DC  0E00               	movlw	0
  3633  0019DE  6E0A               	movwf	(moverMotor@velocidade+1)^0,c
  3634  0019E0  0E00               	movlw	0
  3635  0019E2  6E09               	movwf	moverMotor@velocidade^0,c
  3636  0019E4  0E65               	movlw	101
  3637  0019E6  EC0C  F012         	call	_moverMotor
  3638  0019EA                     
  3639                           ;hachiko_0.c: 595:             _delay((unsigned long)((2000)*(20000000/4000.0)));
  3640  0019EA  0E33               	movlw	51
  3641  0019EC  6E11               	movwf	(??_main+1)^0,c
  3642  0019EE  0EBB               	movlw	187
  3643  0019F0  6E10               	movwf	??_main^0,c
  3644  0019F2  0EE0               	movlw	224
  3645  0019F4                     u6447:
  3646  0019F4  2EE8               	decfsz	wreg,f,c
  3647  0019F6  D7FE               	bra	u6447
  3648  0019F8  2E10               	decfsz	??_main^0,f,c
  3649  0019FA  D7FC               	bra	u6447
  3650  0019FC  2E11               	decfsz	(??_main+1)^0,f,c
  3651  0019FE  D7FA               	bra	u6447
  3652                           
  3653                           ;hachiko_0.c: 596:             moverMotor('d','t',80);
  3654  001A00  0E74               	movlw	116
  3655  001A02  6E08               	movwf	moverMotor@sentido^0,c
  3656  001A04  0E00               	movlw	0
  3657  001A06  6E0A               	movwf	(moverMotor@velocidade+1)^0,c
  3658  001A08  0E50               	movlw	80
  3659  001A0A  6E09               	movwf	moverMotor@velocidade^0,c
  3660  001A0C  0E64               	movlw	100
  3661  001A0E  EC0C  F012         	call	_moverMotor
  3662                           
  3663                           ;hachiko_0.c: 597:             moverMotor('e','t',80);
  3664  001A12  0E74               	movlw	116
  3665  001A14  6E08               	movwf	moverMotor@sentido^0,c
  3666  001A16  0E00               	movlw	0
  3667  001A18  6E0A               	movwf	(moverMotor@velocidade+1)^0,c
  3668  001A1A  0E50               	movlw	80
  3669  001A1C  6E09               	movwf	moverMotor@velocidade^0,c
  3670  001A1E  0E65               	movlw	101
  3671  001A20  EC0C  F012         	call	_moverMotor
  3672  001A24                     
  3673                           ;hachiko_0.c: 598:             _delay((unsigned long)((500)*(20000000/4000.0)));
  3674  001A24  0E0D               	movlw	13
  3675  001A26  6E11               	movwf	(??_main+1)^0,c
  3676  001A28  0EAF               	movlw	175
  3677  001A2A  6E10               	movwf	??_main^0,c
  3678  001A2C  0EB6               	movlw	182
  3679  001A2E                     u6457:
  3680  001A2E  2EE8               	decfsz	wreg,f,c
  3681  001A30  D7FE               	bra	u6457
  3682  001A32  2E10               	decfsz	??_main^0,f,c
  3683  001A34  D7FC               	bra	u6457
  3684  001A36  2E11               	decfsz	(??_main+1)^0,f,c
  3685  001A38  D7FA               	bra	u6457
  3686  001A3A  F000 F000          	nop2	
  3687  001A3E                     
  3688                           ;hachiko_0.c: 599:             pararMotor();
  3689  001A3E  ECF2  F012         	call	_pararMotor	;wreg free
  3690  001A42                     
  3691                           ;hachiko_0.c: 600:             acao = ' ';
  3692  001A42  0E20               	movlw	32
  3693  001A44  6E1C               	movwf	_acao^0,c
  3694  001A46  0E00               	movlw	0
  3695  001A48  6E1D               	movwf	(_acao+1)^0,c
  3696  001A4A                     l3170:
  3697                           
  3698                           ;hachiko_0.c: 604:         if(acao == "gd"){
  3699  001A4A  0E6E               	movlw	low STR_9
  3700  001A4C  181C               	xorwf	_acao^0,w,c
  3701  001A4E  E107               	bnz	u6311
  3702  001A50  0E03               	movlw	high STR_9
  3703  001A52  181D               	xorwf	(_acao+1)^0,w,c
  3704  001A54  A4D8               	btfss	status,2,c
  3705  001A56  EF2F  F00D         	goto	u6311
  3706  001A5A  EF31  F00D         	goto	u6310
  3707  001A5E                     u6311:
  3708  001A5E  EF54  F00D         	goto	l3180
  3709  001A62                     u6310:
  3710  001A62                     
  3711                           ;hachiko_0.c: 605:             moverMotor('e','f',60);
  3712  001A62  0E66               	movlw	102
  3713  001A64  6E08               	movwf	moverMotor@sentido^0,c
  3714  001A66  0E00               	movlw	0
  3715  001A68  6E0A               	movwf	(moverMotor@velocidade+1)^0,c
  3716  001A6A  0E3C               	movlw	60
  3717  001A6C  6E09               	movwf	moverMotor@velocidade^0,c
  3718  001A6E  0E65               	movlw	101
  3719  001A70  EC0C  F012         	call	_moverMotor
  3720                           
  3721                           ;hachiko_0.c: 606:             moverMotor('d','t',60);
  3722  001A74  0E74               	movlw	116
  3723  001A76  6E08               	movwf	moverMotor@sentido^0,c
  3724  001A78  0E00               	movlw	0
  3725  001A7A  6E0A               	movwf	(moverMotor@velocidade+1)^0,c
  3726  001A7C  0E3C               	movlw	60
  3727  001A7E  6E09               	movwf	moverMotor@velocidade^0,c
  3728  001A80  0E64               	movlw	100
  3729  001A82  EC0C  F012         	call	_moverMotor
  3730  001A86                     
  3731                           ;hachiko_0.c: 607:             _delay((unsigned long)((300)*(20000000/4000.0)));
  3732  001A86  0E08               	movlw	8
  3733  001A88  6E11               	movwf	(??_main+1)^0,c
  3734  001A8A  0E9D               	movlw	157
  3735  001A8C  6E10               	movwf	??_main^0,c
  3736  001A8E  0E06               	movlw	6
  3737  001A90                     u6467:
  3738  001A90  2EE8               	decfsz	wreg,f,c
  3739  001A92  D7FE               	bra	u6467
  3740  001A94  2E10               	decfsz	??_main^0,f,c
  3741  001A96  D7FC               	bra	u6467
  3742  001A98  2E11               	decfsz	(??_main+1)^0,f,c
  3743  001A9A  D7FA               	bra	u6467
  3744  001A9C                     
  3745                           ;hachiko_0.c: 608:             pararMotor();
  3746  001A9C  ECF2  F012         	call	_pararMotor	;wreg free
  3747  001AA0                     
  3748                           ;hachiko_0.c: 609:             acao = ' ';
  3749  001AA0  0E20               	movlw	32
  3750  001AA2  6E1C               	movwf	_acao^0,c
  3751  001AA4  0E00               	movlw	0
  3752  001AA6  6E1D               	movwf	(_acao+1)^0,c
  3753  001AA8                     l3180:
  3754                           
  3755                           ;hachiko_0.c: 613:         if(acao == "ge"){
  3756  001AA8  0E71               	movlw	low STR_10
  3757  001AAA  181C               	xorwf	_acao^0,w,c
  3758  001AAC  E107               	bnz	u6321
  3759  001AAE  0E03               	movlw	high STR_10
  3760  001AB0  181D               	xorwf	(_acao+1)^0,w,c
  3761  001AB2  A4D8               	btfss	status,2,c
  3762  001AB4  EF5E  F00D         	goto	u6321
  3763  001AB8  EF60  F00D         	goto	u6320
  3764  001ABC                     u6321:
  3765  001ABC  EF83  F00D         	goto	l3190
  3766  001AC0                     u6320:
  3767  001AC0                     
  3768                           ;hachiko_0.c: 614:             moverMotor('e','t',60);
  3769  001AC0  0E74               	movlw	116
  3770  001AC2  6E08               	movwf	moverMotor@sentido^0,c
  3771  001AC4  0E00               	movlw	0
  3772  001AC6  6E0A               	movwf	(moverMotor@velocidade+1)^0,c
  3773  001AC8  0E3C               	movlw	60
  3774  001ACA  6E09               	movwf	moverMotor@velocidade^0,c
  3775  001ACC  0E65               	movlw	101
  3776  001ACE  EC0C  F012         	call	_moverMotor
  3777                           
  3778                           ;hachiko_0.c: 615:             moverMotor('d','f',60);
  3779  001AD2  0E66               	movlw	102
  3780  001AD4  6E08               	movwf	moverMotor@sentido^0,c
  3781  001AD6  0E00               	movlw	0
  3782  001AD8  6E0A               	movwf	(moverMotor@velocidade+1)^0,c
  3783  001ADA  0E3C               	movlw	60
  3784  001ADC  6E09               	movwf	moverMotor@velocidade^0,c
  3785  001ADE  0E64               	movlw	100
  3786  001AE0  EC0C  F012         	call	_moverMotor
  3787  001AE4                     
  3788                           ;hachiko_0.c: 616:             _delay((unsigned long)((300)*(20000000/4000.0)));
  3789  001AE4  0E08               	movlw	8
  3790  001AE6  6E11               	movwf	(??_main+1)^0,c
  3791  001AE8  0E9D               	movlw	157
  3792  001AEA  6E10               	movwf	??_main^0,c
  3793  001AEC  0E06               	movlw	6
  3794  001AEE                     u6477:
  3795  001AEE  2EE8               	decfsz	wreg,f,c
  3796  001AF0  D7FE               	bra	u6477
  3797  001AF2  2E10               	decfsz	??_main^0,f,c
  3798  001AF4  D7FC               	bra	u6477
  3799  001AF6  2E11               	decfsz	(??_main+1)^0,f,c
  3800  001AF8  D7FA               	bra	u6477
  3801  001AFA                     
  3802                           ;hachiko_0.c: 617:             pararMotor();
  3803  001AFA  ECF2  F012         	call	_pararMotor	;wreg free
  3804  001AFE                     
  3805                           ;hachiko_0.c: 618:             acao = ' ';
  3806  001AFE  0E20               	movlw	32
  3807  001B00  6E1C               	movwf	_acao^0,c
  3808  001B02  0E00               	movlw	0
  3809  001B04  6E1D               	movwf	(_acao+1)^0,c
  3810  001B06                     l3190:
  3811                           
  3812                           ;hachiko_0.c: 622:         if(!PORTAbits.RA2){
  3813  001B06  B480               	btfsc	128,2,c	;volatile
  3814  001B08  EF88  F00D         	goto	u6331
  3815  001B0C  EF8A  F00D         	goto	u6330
  3816  001B10                     u6331:
  3817  001B10  EF98  F00D         	goto	l3196
  3818  001B14                     u6330:
  3819  001B14                     
  3820                           ;hachiko_0.c: 623:             _delay((unsigned long)((100)*(20000000/4000.0)));
  3821  001B14  0E03               	movlw	3
  3822  001B16  6E11               	movwf	(??_main+1)^0,c
  3823  001B18  0E8A               	movlw	138
  3824  001B1A  6E10               	movwf	??_main^0,c
  3825  001B1C  0E56               	movlw	86
  3826  001B1E                     u6487:
  3827  001B1E  2EE8               	decfsz	wreg,f,c
  3828  001B20  D7FE               	bra	u6487
  3829  001B22  2E10               	decfsz	??_main^0,f,c
  3830  001B24  D7FC               	bra	u6487
  3831  001B26  2E11               	decfsz	(??_main+1)^0,f,c
  3832  001B28  D7FA               	bra	u6487
  3833  001B2A                     
  3834                           ;hachiko_0.c: 624:             picUSART('0');
  3835  001B2A  0E30               	movlw	48
  3836  001B2C  EC2B  F013         	call	_picUSART
  3837  001B30                     l3196:
  3838                           
  3839                           ;hachiko_0.c: 626:         if(!PORTAbits.RA3){
  3840  001B30  B680               	btfsc	128,3,c	;volatile
  3841  001B32  EF9D  F00D         	goto	u6341
  3842  001B36  EF9F  F00D         	goto	u6340
  3843  001B3A                     u6341:
  3844  001B3A  EFAD  F00D         	goto	l3202
  3845  001B3E                     u6340:
  3846  001B3E                     
  3847                           ;hachiko_0.c: 627:             _delay((unsigned long)((100)*(20000000/4000.0)));
  3848  001B3E  0E03               	movlw	3
  3849  001B40  6E11               	movwf	(??_main+1)^0,c
  3850  001B42  0E8A               	movlw	138
  3851  001B44  6E10               	movwf	??_main^0,c
  3852  001B46  0E56               	movlw	86
  3853  001B48                     u6497:
  3854  001B48  2EE8               	decfsz	wreg,f,c
  3855  001B4A  D7FE               	bra	u6497
  3856  001B4C  2E10               	decfsz	??_main^0,f,c
  3857  001B4E  D7FC               	bra	u6497
  3858  001B50  2E11               	decfsz	(??_main+1)^0,f,c
  3859  001B52  D7FA               	bra	u6497
  3860  001B54                     
  3861                           ;hachiko_0.c: 628:             picUSART('1');
  3862  001B54  0E31               	movlw	49
  3863  001B56  EC2B  F013         	call	_picUSART
  3864  001B5A                     l3202:
  3865                           
  3866                           ;hachiko_0.c: 630:         if(!PORTCbits.RC0){
  3867  001B5A  B082               	btfsc	130,0,c	;volatile
  3868  001B5C  EFB2  F00D         	goto	u6351
  3869  001B60  EFB4  F00D         	goto	u6350
  3870  001B64                     u6351:
  3871  001B64  EFC2  F00D         	goto	l3208
  3872  001B68                     u6350:
  3873  001B68                     
  3874                           ;hachiko_0.c: 631:             _delay((unsigned long)((100)*(20000000/4000.0)));
  3875  001B68  0E03               	movlw	3
  3876  001B6A  6E11               	movwf	(??_main+1)^0,c
  3877  001B6C  0E8A               	movlw	138
  3878  001B6E  6E10               	movwf	??_main^0,c
  3879  001B70  0E56               	movlw	86
  3880  001B72                     u6507:
  3881  001B72  2EE8               	decfsz	wreg,f,c
  3882  001B74  D7FE               	bra	u6507
  3883  001B76  2E10               	decfsz	??_main^0,f,c
  3884  001B78  D7FC               	bra	u6507
  3885  001B7A  2E11               	decfsz	(??_main+1)^0,f,c
  3886  001B7C  D7FA               	bra	u6507
  3887  001B7E                     
  3888                           ;hachiko_0.c: 632:             picUSART('2');
  3889  001B7E  0E32               	movlw	50
  3890  001B80  EC2B  F013         	call	_picUSART
  3891  001B84                     l3208:
  3892                           
  3893                           ;hachiko_0.c: 634:         if(!PORTAbits.RA4){
  3894  001B84  B880               	btfsc	128,4,c	;volatile
  3895  001B86  EFC7  F00D         	goto	u6361
  3896  001B8A  EFC9  F00D         	goto	u6360
  3897  001B8E                     u6361:
  3898  001B8E  EFD7  F00D         	goto	l3214
  3899  001B92                     u6360:
  3900  001B92                     
  3901                           ;hachiko_0.c: 635:             _delay((unsigned long)((100)*(20000000/4000.0)));
  3902  001B92  0E03               	movlw	3
  3903  001B94  6E11               	movwf	(??_main+1)^0,c
  3904  001B96  0E8A               	movlw	138
  3905  001B98  6E10               	movwf	??_main^0,c
  3906  001B9A  0E56               	movlw	86
  3907  001B9C                     u6517:
  3908  001B9C  2EE8               	decfsz	wreg,f,c
  3909  001B9E  D7FE               	bra	u6517
  3910  001BA0  2E10               	decfsz	??_main^0,f,c
  3911  001BA2  D7FC               	bra	u6517
  3912  001BA4  2E11               	decfsz	(??_main+1)^0,f,c
  3913  001BA6  D7FA               	bra	u6517
  3914  001BA8                     
  3915                           ;hachiko_0.c: 636:             picUSART('3');
  3916  001BA8  0E33               	movlw	51
  3917  001BAA  EC2B  F013         	call	_picUSART
  3918  001BAE                     l3214:
  3919                           
  3920                           ;hachiko_0.c: 638:         if(!PORTAbits.RA1){
  3921  001BAE  B280               	btfsc	128,1,c	;volatile
  3922  001BB0  EFDC  F00D         	goto	u6371
  3923  001BB4  EFDE  F00D         	goto	u6370
  3924  001BB8                     u6371:
  3925  001BB8  EFE4  F001         	goto	l2560
  3926  001BBC                     u6370:
  3927  001BBC                     
  3928                           ;hachiko_0.c: 639:             _delay((unsigned long)((100)*(20000000/4000.0)));
  3929  001BBC  0E03               	movlw	3
  3930  001BBE  6E11               	movwf	(??_main+1)^0,c
  3931  001BC0  0E8A               	movlw	138
  3932  001BC2  6E10               	movwf	??_main^0,c
  3933  001BC4  0E56               	movlw	86
  3934  001BC6                     u6527:
  3935  001BC6  2EE8               	decfsz	wreg,f,c
  3936  001BC8  D7FE               	bra	u6527
  3937  001BCA  2E10               	decfsz	??_main^0,f,c
  3938  001BCC  D7FC               	bra	u6527
  3939  001BCE  2E11               	decfsz	(??_main+1)^0,f,c
  3940  001BD0  D7FA               	bra	u6527
  3941  001BD2                     
  3942                           ;hachiko_0.c: 640:             picUSART('4');
  3943  001BD2  0E34               	movlw	52
  3944  001BD4  EC2B  F013         	call	_picUSART
  3945  001BD8  EFE4  F001         	goto	l2560
  3946  001BDC  EF4B  F001         	goto	start
  3947  001BE0                     __end_of_main:
  3948                           	callstack 0
  3949                           
  3950 ;; *************** function _testarLinha *****************
  3951 ;; Defined at:
  3952 ;;		line 786 in file "hachiko_0.c"
  3953 ;; Parameters:    Size  Location     Type
  3954 ;;		None
  3955 ;; Auto vars:     Size  Location     Type
  3956 ;;  velTest         2    0        int 
  3957 ;; Return value:  Size  Location     Type
  3958 ;;                  1    wreg      void 
  3959 ;; Registers used:
  3960 ;;		wreg, status,2, status,0, prodl, prodh, cstack
  3961 ;; Tracked objects:
  3962 ;;		On entry : 0/0
  3963 ;;		On exit  : 0/0
  3964 ;;		Unchanged: 0/0
  3965 ;; Data sizes:     COMRAM   BANK0   BANK1   BANK2
  3966 ;;      Params:         0       0       0       0
  3967 ;;      Locals:         0       0       0       0
  3968 ;;      Temps:          2       0       0       0
  3969 ;;      Totals:         2       0       0       0
  3970 ;;Total ram usage:        2 bytes
  3971 ;; Hardware stack levels used: 1
  3972 ;; Hardware stack levels required when called: 4
  3973 ;; This function calls:
  3974 ;;		_moverMotor
  3975 ;;		_pararMotor
  3976 ;; This function is called by:
  3977 ;;		_main
  3978 ;; This function uses a non-reentrant model
  3979 ;;
  3980                           
  3981                           	psect	text1
  3982  001FEC                     __ptext1:
  3983                           	callstack 0
  3984  001FEC                     _testarLinha:
  3985                           	callstack 26
  3986  001FEC                     
  3987                           ;hachiko_0.c: 788:     if(PORTCbits.RC3 && PORTCbits.RC4){
  3988  001FEC  A682               	btfss	130,3,c	;volatile
  3989  001FEE  EFFB  F00F         	goto	u3871
  3990  001FF2  EFFD  F00F         	goto	u3870
  3991  001FF6                     u3871:
  3992  001FF6  EF18  F010         	goto	l428
  3993  001FFA                     u3870:
  3994  001FFA  A882               	btfss	130,4,c	;volatile
  3995  001FFC  EF02  F010         	goto	u3881
  3996  002000  EF04  F010         	goto	u3880
  3997  002004                     u3881:
  3998  002004  EF18  F010         	goto	l428
  3999  002008                     u3880:
  4000  002008                     
  4001                           ;hachiko_0.c: 789:         moverMotor('d','f',velTest);
  4002  002008  0E66               	movlw	102
  4003  00200A  6E08               	movwf	moverMotor@sentido^0,c
  4004  00200C  0E00               	movlw	0
  4005  00200E  6E0A               	movwf	(moverMotor@velocidade+1)^0,c
  4006  002010  0E32               	movlw	50
  4007  002012  6E09               	movwf	moverMotor@velocidade^0,c
  4008  002014  0E64               	movlw	100
  4009  002016  EC0C  F012         	call	_moverMotor
  4010                           
  4011                           ;hachiko_0.c: 790:         moverMotor('e','f',velTest);
  4012  00201A  0E66               	movlw	102
  4013  00201C  6E08               	movwf	moverMotor@sentido^0,c
  4014  00201E  0E00               	movlw	0
  4015  002020  6E0A               	movwf	(moverMotor@velocidade+1)^0,c
  4016  002022  0E32               	movlw	50
  4017  002024  6E09               	movwf	moverMotor@velocidade^0,c
  4018  002026  0E65               	movlw	101
  4019  002028  EC0C  F012         	call	_moverMotor
  4020                           
  4021                           ;hachiko_0.c: 792:     }
  4022  00202C  EFBC  F010         	goto	l435
  4023  002030                     l428:
  4024  002030  A682               	btfss	130,3,c	;volatile
  4025  002032  EF1D  F010         	goto	u3891
  4026  002036  EF1F  F010         	goto	u3890
  4027  00203A                     u3891:
  4028  00203A  EF45  F010         	goto	l430
  4029  00203E                     u3890:
  4030  00203E  B882               	btfsc	130,4,c	;volatile
  4031  002040  EF24  F010         	goto	u3901
  4032  002044  EF26  F010         	goto	u3900
  4033  002048                     u3901:
  4034  002048  EF45  F010         	goto	l430
  4035  00204C                     u3900:
  4036  00204C                     
  4037                           ;hachiko_0.c: 794:         moverMotor('d','f',velTest);
  4038  00204C  0E66               	movlw	102
  4039  00204E  6E08               	movwf	moverMotor@sentido^0,c
  4040  002050  0E00               	movlw	0
  4041  002052  6E0A               	movwf	(moverMotor@velocidade+1)^0,c
  4042  002054  0E32               	movlw	50
  4043  002056  6E09               	movwf	moverMotor@velocidade^0,c
  4044  002058  0E64               	movlw	100
  4045  00205A  EC0C  F012         	call	_moverMotor
  4046                           
  4047                           ;hachiko_0.c: 795:         moverMotor('e','t',velTest);
  4048  00205E  0E74               	movlw	116
  4049  002060  6E08               	movwf	moverMotor@sentido^0,c
  4050  002062  0E00               	movlw	0
  4051  002064  6E0A               	movwf	(moverMotor@velocidade+1)^0,c
  4052  002066  0E32               	movlw	50
  4053  002068  6E09               	movwf	moverMotor@velocidade^0,c
  4054  00206A  0E65               	movlw	101
  4055  00206C  EC0C  F012         	call	_moverMotor
  4056  002070                     l2448:
  4057                           
  4058                           ;hachiko_0.c: 796:         _delay((unsigned long)((300)*(20000000/4000.0)));
  4059  002070  0E08               	movlw	8
  4060  002072  6E0D               	movwf	(??_testarLinha+1)^0,c
  4061  002074  0E9D               	movlw	157
  4062  002076  6E0C               	movwf	??_testarLinha^0,c
  4063  002078  0E06               	movlw	6
  4064  00207A                     u6537:
  4065  00207A  2EE8               	decfsz	wreg,f,c
  4066  00207C  D7FE               	bra	u6537
  4067  00207E  2E0C               	decfsz	??_testarLinha^0,f,c
  4068  002080  D7FC               	bra	u6537
  4069  002082  2E0D               	decfsz	(??_testarLinha+1)^0,f,c
  4070  002084  D7FA               	bra	u6537
  4071                           
  4072                           ;hachiko_0.c: 798:     }
  4073  002086  EFBC  F010         	goto	l435
  4074  00208A                     l430:
  4075  00208A  B682               	btfsc	130,3,c	;volatile
  4076  00208C  EF4A  F010         	goto	u3911
  4077  002090  EF4C  F010         	goto	u3910
  4078  002094                     u3911:
  4079  002094  EF67  F010         	goto	l432
  4080  002098                     u3910:
  4081  002098  A882               	btfss	130,4,c	;volatile
  4082  00209A  EF51  F010         	goto	u3921
  4083  00209E  EF53  F010         	goto	u3920
  4084  0020A2                     u3921:
  4085  0020A2  EF67  F010         	goto	l432
  4086  0020A6                     u3920:
  4087  0020A6                     
  4088                           ;hachiko_0.c: 800:         moverMotor('d','t',velTest);
  4089  0020A6  0E74               	movlw	116
  4090  0020A8  6E08               	movwf	moverMotor@sentido^0,c
  4091  0020AA  0E00               	movlw	0
  4092  0020AC  6E0A               	movwf	(moverMotor@velocidade+1)^0,c
  4093  0020AE  0E32               	movlw	50
  4094  0020B0  6E09               	movwf	moverMotor@velocidade^0,c
  4095  0020B2  0E64               	movlw	100
  4096  0020B4  EC0C  F012         	call	_moverMotor
  4097                           
  4098                           ;hachiko_0.c: 801:         moverMotor('e','f',velTest);
  4099  0020B8  0E66               	movlw	102
  4100  0020BA  6E08               	movwf	moverMotor@sentido^0,c
  4101  0020BC  0E00               	movlw	0
  4102  0020BE  6E0A               	movwf	(moverMotor@velocidade+1)^0,c
  4103  0020C0  0E32               	movlw	50
  4104  0020C2  6E09               	movwf	moverMotor@velocidade^0,c
  4105  0020C4  0E65               	movlw	101
  4106  0020C6  EC0C  F012         	call	_moverMotor
  4107  0020CA  EF38  F010         	goto	l2448
  4108  0020CE                     l432:
  4109  0020CE  B682               	btfsc	130,3,c	;volatile
  4110  0020D0  EF6C  F010         	goto	u3931
  4111  0020D4  EF6E  F010         	goto	u3930
  4112  0020D8                     u3931:
  4113  0020D8  EFBC  F010         	goto	l431
  4114  0020DC                     u3930:
  4115  0020DC  B882               	btfsc	130,4,c	;volatile
  4116  0020DE  EF73  F010         	goto	u3941
  4117  0020E2  EF75  F010         	goto	u3940
  4118  0020E6                     u3941:
  4119  0020E6  EFBC  F010         	goto	l431
  4120  0020EA                     u3940:
  4121  0020EA                     
  4122                           ;hachiko_0.c: 806:         moverMotor('d','t',velTest);
  4123  0020EA  0E74               	movlw	116
  4124  0020EC  6E08               	movwf	moverMotor@sentido^0,c
  4125  0020EE  0E00               	movlw	0
  4126  0020F0  6E0A               	movwf	(moverMotor@velocidade+1)^0,c
  4127  0020F2  0E32               	movlw	50
  4128  0020F4  6E09               	movwf	moverMotor@velocidade^0,c
  4129  0020F6  0E64               	movlw	100
  4130  0020F8  EC0C  F012         	call	_moverMotor
  4131                           
  4132                           ;hachiko_0.c: 807:         moverMotor('e','t',velTest);
  4133  0020FC  0E74               	movlw	116
  4134  0020FE  6E08               	movwf	moverMotor@sentido^0,c
  4135  002100  0E00               	movlw	0
  4136  002102  6E0A               	movwf	(moverMotor@velocidade+1)^0,c
  4137  002104  0E32               	movlw	50
  4138  002106  6E09               	movwf	moverMotor@velocidade^0,c
  4139  002108  0E65               	movlw	101
  4140  00210A  EC0C  F012         	call	_moverMotor
  4141  00210E                     
  4142                           ;hachiko_0.c: 808:         _delay((unsigned long)((100)*(20000000/4000.0)));
  4143  00210E  0E03               	movlw	3
  4144  002110  6E0D               	movwf	(??_testarLinha+1)^0,c
  4145  002112  0E8A               	movlw	138
  4146  002114  6E0C               	movwf	??_testarLinha^0,c
  4147  002116  0E56               	movlw	86
  4148  002118                     u6547:
  4149  002118  2EE8               	decfsz	wreg,f,c
  4150  00211A  D7FE               	bra	u6547
  4151  00211C  2E0C               	decfsz	??_testarLinha^0,f,c
  4152  00211E  D7FC               	bra	u6547
  4153  002120  2E0D               	decfsz	(??_testarLinha+1)^0,f,c
  4154  002122  D7FA               	bra	u6547
  4155  002124                     
  4156                           ;hachiko_0.c: 809:         pararMotor();
  4157  002124  ECF2  F012         	call	_pararMotor	;wreg free
  4158  002128                     
  4159                           ;hachiko_0.c: 810:         _delay((unsigned long)((10)*(20000000/4000.0)));
  4160  002128  0E41               	movlw	65
  4161  00212A  6E0C               	movwf	??_testarLinha^0,c
  4162  00212C  0EEE               	movlw	238
  4163  00212E                     u6557:
  4164  00212E  2EE8               	decfsz	wreg,f,c
  4165  002130  D7FE               	bra	u6557
  4166  002132  2E0C               	decfsz	??_testarLinha^0,f,c
  4167  002134  D7FC               	bra	u6557
  4168  002136  F000 F000          	nop2	
  4169  00213A                     
  4170                           ;hachiko_0.c: 811:         moverMotor('d','f',velTest);
  4171  00213A  0E66               	movlw	102
  4172  00213C  6E08               	movwf	moverMotor@sentido^0,c
  4173  00213E  0E00               	movlw	0
  4174  002140  6E0A               	movwf	(moverMotor@velocidade+1)^0,c
  4175  002142  0E32               	movlw	50
  4176  002144  6E09               	movwf	moverMotor@velocidade^0,c
  4177  002146  0E64               	movlw	100
  4178  002148  EC0C  F012         	call	_moverMotor
  4179  00214C                     
  4180                           ;hachiko_0.c: 812:         moverMotor('e','t',velTest);
  4181  00214C  0E74               	movlw	116
  4182  00214E  6E08               	movwf	moverMotor@sentido^0,c
  4183  002150  0E00               	movlw	0
  4184  002152  6E0A               	movwf	(moverMotor@velocidade+1)^0,c
  4185  002154  0E32               	movlw	50
  4186  002156  6E09               	movwf	moverMotor@velocidade^0,c
  4187  002158  0E65               	movlw	101
  4188  00215A  EC0C  F012         	call	_moverMotor
  4189  00215E                     
  4190                           ;hachiko_0.c: 813:         _delay((unsigned long)((100)*(20000000/4000.0)));
  4191  00215E  0E03               	movlw	3
  4192  002160  6E0D               	movwf	(??_testarLinha+1)^0,c
  4193  002162  0E8A               	movlw	138
  4194  002164  6E0C               	movwf	??_testarLinha^0,c
  4195  002166  0E56               	movlw	86
  4196  002168                     u6567:
  4197  002168  2EE8               	decfsz	wreg,f,c
  4198  00216A  D7FE               	bra	u6567
  4199  00216C  2E0C               	decfsz	??_testarLinha^0,f,c
  4200  00216E  D7FC               	bra	u6567
  4201  002170  2E0D               	decfsz	(??_testarLinha+1)^0,f,c
  4202  002172  D7FA               	bra	u6567
  4203  002174  EFBC  F010         	goto	l435
  4204  002178                     l431:
  4205  002178                     l435:
  4206  002178  0012               	return		;funcret
  4207  00217A                     __end_of_testarLinha:
  4208                           	callstack 0
  4209                           
  4210 ;; *************** function _stringUSART *****************
  4211 ;; Defined at:
  4212 ;;		line 48 in file "./bt.h"
  4213 ;; Parameters:    Size  Location     Type
  4214 ;;  frase           2    1[COMRAM] PTR unsigned char 
  4215 ;;		 -> STR_17(8), 
  4216 ;; Auto vars:     Size  Location     Type
  4217 ;;  i               2    5[COMRAM] int 
  4218 ;; Return value:  Size  Location     Type
  4219 ;;                  1    wreg      void 
  4220 ;; Registers used:
  4221 ;;		wreg, status,2, status,0, tblptrl, tblptrh, tblptru, cstack
  4222 ;; Tracked objects:
  4223 ;;		On entry : 0/0
  4224 ;;		On exit  : 0/0
  4225 ;;		Unchanged: 0/0
  4226 ;; Data sizes:     COMRAM   BANK0   BANK1   BANK2
  4227 ;;      Params:         2       0       0       0
  4228 ;;      Locals:         2       0       0       0
  4229 ;;      Temps:          2       0       0       0
  4230 ;;      Totals:         6       0       0       0
  4231 ;;Total ram usage:        6 bytes
  4232 ;; Hardware stack levels used: 1
  4233 ;; Hardware stack levels required when called: 3
  4234 ;; This function calls:
  4235 ;;		_testBuff
  4236 ;; This function is called by:
  4237 ;;		_main
  4238 ;; This function uses a non-reentrant model
  4239 ;;
  4240                           
  4241                           	psect	text2
  4242  0024F4                     __ptext2:
  4243                           	callstack 0
  4244  0024F4                     _stringUSART:
  4245                           	callstack 27
  4246  0024F4                     
  4247                           ;./bt.h: 49:     int i = 0;
  4248  0024F4  0E00               	movlw	0
  4249  0024F6  6E07               	movwf	(stringUSART@i+1)^0,c
  4250  0024F8  0E00               	movlw	0
  4251  0024FA  6E06               	movwf	stringUSART@i^0,c
  4252                           
  4253                           ;./bt.h: 50:     while(frase[i] != '\0'){
  4254  0024FC  EF91  F012         	goto	l2430
  4255  002500                     l2424:
  4256                           
  4257                           ;./bt.h: 51:         TXREG = frase[i];
  4258  002500  5006               	movf	stringUSART@i^0,w,c
  4259  002502  2402               	addwf	stringUSART@frase^0,w,c
  4260  002504  6E04               	movwf	??_stringUSART^0,c
  4261  002506  5007               	movf	(stringUSART@i+1)^0,w,c
  4262  002508  2003               	addwfc	(stringUSART@frase+1)^0,w,c
  4263  00250A  6E05               	movwf	(??_stringUSART+1)^0,c
  4264  00250C  C004  FFF6         	movff	??_stringUSART,tblptrl
  4265  002510  C005  FFF7         	movff	??_stringUSART+1,tblptrh
  4266  002514                     	if	0	;tblptru may be non-zero
  4267  002514                     	endif
  4268  002514                     	if	0	;tblptru may be non-zero
  4269  002514                     	endif
  4270  002514  0008               	tblrd		*
  4271  002516  CFF5 FFAD          	movff	tablat,4013	;volatile
  4272  00251A                     
  4273                           ;./bt.h: 52:         testBuff();
  4274  00251A  EC3D  F013         	call	_testBuff	;wreg free
  4275  00251E                     
  4276                           ;./bt.h: 53:         i++;
  4277  00251E  4A06               	infsnz	stringUSART@i^0,f,c
  4278  002520  2A07               	incf	(stringUSART@i+1)^0,f,c
  4279  002522                     l2430:
  4280                           
  4281                           ;./bt.h: 50:     while(frase[i] != '\0'){
  4282  002522  5006               	movf	stringUSART@i^0,w,c
  4283  002524  2402               	addwf	stringUSART@frase^0,w,c
  4284  002526  6E04               	movwf	??_stringUSART^0,c
  4285  002528  5007               	movf	(stringUSART@i+1)^0,w,c
  4286  00252A  2003               	addwfc	(stringUSART@frase+1)^0,w,c
  4287  00252C  6E05               	movwf	(??_stringUSART+1)^0,c
  4288  00252E  C004  FFF6         	movff	??_stringUSART,tblptrl
  4289  002532  C005  FFF7         	movff	??_stringUSART+1,tblptrh
  4290  002536                     	if	0	;tblptru may be non-zero
  4291  002536                     	endif
  4292  002536                     	if	0	;tblptru may be non-zero
  4293  002536                     	endif
  4294  002536  0008               	tblrd		*
  4295  002538  50F5               	movf	tablat,w,c
  4296  00253A  0900               	iorlw	0
  4297  00253C  A4D8               	btfss	status,2,c
  4298  00253E  EFA3  F012         	goto	u3861
  4299  002542  EFA5  F012         	goto	u3860
  4300  002546                     u3861:
  4301  002546  EF80  F012         	goto	l2424
  4302  00254A                     u3860:
  4303  00254A                     
  4304                           ;./bt.h: 55:     TXREG = 0x0D;
  4305  00254A  0E0D               	movlw	13
  4306  00254C  6EAD               	movwf	173,c	;volatile
  4307  00254E                     
  4308                           ;./bt.h: 56:     testBuff();
  4309  00254E  EC3D  F013         	call	_testBuff	;wreg free
  4310  002552  0012               	return		;funcret
  4311  002554                     __end_of_stringUSART:
  4312                           	callstack 0
  4313                           
  4314 ;; *************** function _setTMR1 *****************
  4315 ;; Defined at:
  4316 ;;		line 21 in file "./timer.h"
  4317 ;; Parameters:    Size  Location     Type
  4318 ;;		None
  4319 ;; Auto vars:     Size  Location     Type
  4320 ;;		None
  4321 ;; Return value:  Size  Location     Type
  4322 ;;                  1    wreg      void 
  4323 ;; Registers used:
  4324 ;;		None
  4325 ;; Tracked objects:
  4326 ;;		On entry : 0/0
  4327 ;;		On exit  : 0/0
  4328 ;;		Unchanged: 0/0
  4329 ;; Data sizes:     COMRAM   BANK0   BANK1   BANK2
  4330 ;;      Params:         0       0       0       0
  4331 ;;      Locals:         0       0       0       0
  4332 ;;      Temps:          0       0       0       0
  4333 ;;      Totals:         0       0       0       0
  4334 ;;Total ram usage:        0 bytes
  4335 ;; Hardware stack levels used: 1
  4336 ;; Hardware stack levels required when called: 2
  4337 ;; This function calls:
  4338 ;;		Nothing
  4339 ;; This function is called by:
  4340 ;;		_main
  4341 ;; This function uses a non-reentrant model
  4342 ;;
  4343                           
  4344                           	psect	text3
  4345  00266A                     __ptext3:
  4346                           	callstack 0
  4347  00266A                     _setTMR1:
  4348                           	callstack 28
  4349  00266A                     
  4350                           ;./timer.h: 33:     RD16 = 1;
  4351  00266A  8ECD               	bsf	4045,7,c	;volatile
  4352                           
  4353                           ;./timer.h: 34:     T1RUN = 0;
  4354  00266C  9CCD               	bcf	4045,6,c	;volatile
  4355  00266E  88CD               	bsf	4045,4,c	;volatile
  4356                           
  4357                           ;./timer.h: 38:     T1OSCEN = 0;
  4358  002670  96CD               	bcf	4045,3,c	;volatile
  4359                           
  4360                           ;./timer.h: 39:     T1SYNC = 0;
  4361  002672  94CD               	bcf	4045,2,c	;volatile
  4362                           
  4363                           ;./timer.h: 40:     TMR1CS = 0;
  4364  002674  92CD               	bcf	4045,1,c	;volatile
  4365                           
  4366                           ;./timer.h: 41:     TMR1ON = 0;
  4367  002676  90CD               	bcf	4045,0,c	;volatile
  4368  002678  0012               	return		;funcret
  4369  00267A                     __end_of_setTMR1:
  4370                           	callstack 0
  4371                           
  4372 ;; *************** function _setTMR0 *****************
  4373 ;; Defined at:
  4374 ;;		line 12 in file "./timer.h"
  4375 ;; Parameters:    Size  Location     Type
  4376 ;;		None
  4377 ;; Auto vars:     Size  Location     Type
  4378 ;;		None
  4379 ;; Return value:  Size  Location     Type
  4380 ;;                  1    wreg      void 
  4381 ;; Registers used:
  4382 ;;		None
  4383 ;; Tracked objects:
  4384 ;;		On entry : 0/0
  4385 ;;		On exit  : 0/0
  4386 ;;		Unchanged: 0/0
  4387 ;; Data sizes:     COMRAM   BANK0   BANK1   BANK2
  4388 ;;      Params:         0       0       0       0
  4389 ;;      Locals:         0       0       0       0
  4390 ;;      Temps:          0       0       0       0
  4391 ;;      Totals:         0       0       0       0
  4392 ;;Total ram usage:        0 bytes
  4393 ;; Hardware stack levels used: 1
  4394 ;; Hardware stack levels required when called: 2
  4395 ;; This function calls:
  4396 ;;		Nothing
  4397 ;; This function is called by:
  4398 ;;		_main
  4399 ;; This function uses a non-reentrant model
  4400 ;;
  4401                           
  4402                           	psect	text4
  4403  00268A                     __ptext4:
  4404                           	callstack 0
  4405  00268A                     _setTMR0:
  4406                           	callstack 28
  4407  00268A                     
  4408                           ;./timer.h: 14:     TMR0ON = 0;
  4409  00268A  9ED5               	bcf	4053,7,c	;volatile
  4410                           
  4411                           ;./timer.h: 15:     T016BIT = 0;
  4412  00268C  9CD5               	bcf	4053,6,c	;volatile
  4413                           
  4414                           ;./timer.h: 16:     T0CS = 0;
  4415  00268E  9AD5               	bcf	4053,5,c	;volatile
  4416                           
  4417                           ;./timer.h: 17:     PSA = 0;
  4418  002690  96D5               	bcf	4053,3,c	;volatile
  4419  002692  80D5               	bsf	4053,0,c	;volatile
  4420                           
  4421                           ;./timer.h: 19:     TMR0IF = 0;
  4422  002694  94F2               	bcf	4082,2,c	;volatile
  4423  002696  0012               	return		;funcret
  4424  002698                     __end_of_setTMR0:
  4425                           	callstack 0
  4426                           
  4427 ;; *************** function _setPWM *****************
  4428 ;; Defined at:
  4429 ;;		line 1 in file "./pwm.h"
  4430 ;; Parameters:    Size  Location     Type
  4431 ;;		None
  4432 ;; Auto vars:     Size  Location     Type
  4433 ;;		None
  4434 ;; Return value:  Size  Location     Type
  4435 ;;                  1    wreg      void 
  4436 ;; Registers used:
  4437 ;;		wreg, status,2
  4438 ;; Tracked objects:
  4439 ;;		On entry : 0/0
  4440 ;;		On exit  : 0/0
  4441 ;;		Unchanged: 0/0
  4442 ;; Data sizes:     COMRAM   BANK0   BANK1   BANK2
  4443 ;;      Params:         0       0       0       0
  4444 ;;      Locals:         0       0       0       0
  4445 ;;      Temps:          0       0       0       0
  4446 ;;      Totals:         0       0       0       0
  4447 ;;Total ram usage:        0 bytes
  4448 ;; Hardware stack levels used: 1
  4449 ;; Hardware stack levels required when called: 2
  4450 ;; This function calls:
  4451 ;;		Nothing
  4452 ;; This function is called by:
  4453 ;;		_main
  4454 ;; This function uses a non-reentrant model
  4455 ;;
  4456                           
  4457                           	psect	text5
  4458  00258A                     __ptext5:
  4459                           	callstack 0
  4460  00258A                     _setPWM:
  4461                           	callstack 28
  4462  00258A                     
  4463                           ;./pwm.h: 3:     PTCON0 = 0b00000000;
  4464  00258A  0E00               	movlw	0
  4465  00258C  6E7F               	movwf	127,c	;volatile
  4466                           
  4467                           ;./pwm.h: 4:     PTCON1 = 0b10000000;
  4468  00258E  0E80               	movlw	128
  4469  002590  6E7E               	movwf	126,c	;volatile
  4470                           
  4471                           ;./pwm.h: 5:     PWMCON0 = 0b01011111;
  4472  002592  0E5F               	movlw	95
  4473  002594  6E6F               	movwf	111,c	;volatile
  4474                           
  4475                           ;./pwm.h: 6:     PWMCON1 = 0b00000001;
  4476  002596  0E01               	movlw	1
  4477  002598  6E6E               	movwf	110,c	;volatile
  4478                           
  4479                           ;./pwm.h: 7:     DTCON = 0b00010000;
  4480  00259A  0E10               	movlw	16
  4481  00259C  6E6D               	movwf	109,c	;volatile
  4482  00259E                     
  4483                           ;./pwm.h: 8:     OVDCOND = 0b11111111;
  4484  00259E  686B               	setf	107,c	;volatile
  4485                           
  4486                           ;./pwm.h: 9:     OVDCONS = 0b00000000;
  4487  0025A0  0E00               	movlw	0
  4488  0025A2  6E6A               	movwf	106,c	;volatile
  4489                           
  4490                           ;./pwm.h: 10:     PTPERL = 0b10010110;
  4491  0025A4  0E96               	movlw	150
  4492  0025A6  6E7B               	movwf	123,c	;volatile
  4493                           
  4494                           ;./pwm.h: 11:     PTPERH = 0b00000000;
  4495  0025A8  0E00               	movlw	0
  4496  0025AA  6E7A               	movwf	122,c	;volatile
  4497                           
  4498                           ;./pwm.h: 12:     PTMRL = 0x00;
  4499  0025AC  0E00               	movlw	0
  4500  0025AE  6E7D               	movwf	125,c	;volatile
  4501                           
  4502                           ;./pwm.h: 13:     PTMRH = 0x00;
  4503  0025B0  0E00               	movlw	0
  4504  0025B2  6E7C               	movwf	124,c	;volatile
  4505                           
  4506                           ;./pwm.h: 14:     PORTB = 0;
  4507  0025B4  0E00               	movlw	0
  4508  0025B6  6E81               	movwf	129,c	;volatile
  4509                           
  4510                           ;./pwm.h: 15:     PORTD = 0;
  4511  0025B8  0E00               	movlw	0
  4512  0025BA  6E83               	movwf	131,c	;volatile
  4513  0025BC  0012               	return		;funcret
  4514  0025BE                     __end_of_setPWM:
  4515                           	callstack 0
  4516                           
  4517 ;; *************** function _setIO *****************
  4518 ;; Defined at:
  4519 ;;		line 63 in file "./config.h"
  4520 ;; Parameters:    Size  Location     Type
  4521 ;;		None
  4522 ;; Auto vars:     Size  Location     Type
  4523 ;;		None
  4524 ;; Return value:  Size  Location     Type
  4525 ;;                  1    wreg      void 
  4526 ;; Registers used:
  4527 ;;		wreg, status,2
  4528 ;; Tracked objects:
  4529 ;;		On entry : 0/0
  4530 ;;		On exit  : 0/0
  4531 ;;		Unchanged: 0/0
  4532 ;; Data sizes:     COMRAM   BANK0   BANK1   BANK2
  4533 ;;      Params:         0       0       0       0
  4534 ;;      Locals:         0       0       0       0
  4535 ;;      Temps:          0       0       0       0
  4536 ;;      Totals:         0       0       0       0
  4537 ;;Total ram usage:        0 bytes
  4538 ;; Hardware stack levels used: 1
  4539 ;; Hardware stack levels required when called: 2
  4540 ;; This function calls:
  4541 ;;		Nothing
  4542 ;; This function is called by:
  4543 ;;		_main
  4544 ;; This function uses a non-reentrant model
  4545 ;;
  4546                           
  4547                           	psect	text6
  4548  002628                     __ptext6:
  4549                           	callstack 0
  4550  002628                     _setIO:
  4551                           	callstack 28
  4552  002628  6892               	setf	146,c	;volatile
  4553  00262A  0E00               	movlw	0
  4554  00262C  6E93               	movwf	147,c	;volatile
  4555  00262E  6894               	setf	148,c	;volatile
  4556  002630  0E00               	movlw	0
  4557  002632  6E95               	movwf	149,c	;volatile
  4558  002634  0E07               	movlw	7
  4559  002636  6E96               	movwf	150,c	;volatile
  4560  002638  0E80               	movlw	128
  4561  00263A  6EB8               	movwf	184,c	;volatile
  4562  00263C  0E01               	movlw	1
  4563  00263E  6EB9               	movwf	185,c	;volatile
  4564  002640  0012               	return		;funcret
  4565  002642                     __end_of_setIO:
  4566                           	callstack 0
  4567                           
  4568 ;; *************** function _setBT *****************
  4569 ;; Defined at:
  4570 ;;		line 1 in file "./bt.h"
  4571 ;; Parameters:    Size  Location     Type
  4572 ;;		None
  4573 ;; Auto vars:     Size  Location     Type
  4574 ;;		None
  4575 ;; Return value:  Size  Location     Type
  4576 ;;                  1    wreg      void 
  4577 ;; Registers used:
  4578 ;;		wreg, status,2
  4579 ;; Tracked objects:
  4580 ;;		On entry : 0/0
  4581 ;;		On exit  : 0/0
  4582 ;;		Unchanged: 0/0
  4583 ;; Data sizes:     COMRAM   BANK0   BANK1   BANK2
  4584 ;;      Params:         0       0       0       0
  4585 ;;      Locals:         0       0       0       0
  4586 ;;      Temps:          0       0       0       0
  4587 ;;      Totals:         0       0       0       0
  4588 ;;Total ram usage:        0 bytes
  4589 ;; Hardware stack levels used: 1
  4590 ;; Hardware stack levels required when called: 2
  4591 ;; This function calls:
  4592 ;;		Nothing
  4593 ;; This function is called by:
  4594 ;;		_main
  4595 ;; This function uses a non-reentrant model
  4596 ;;
  4597                           
  4598                           	psect	text7
  4599  002642                     __ptext7:
  4600                           	callstack 0
  4601  002642                     _setBT:
  4602                           	callstack 28
  4603  002642                     
  4604                           ;./bt.h: 12:     SPBRG = 0x82;
  4605  002642  0E82               	movlw	130
  4606  002644  6EAF               	movwf	175,c	;volatile
  4607  002646                     
  4608                           ;./bt.h: 15:     TXSTAbits.TXEN = 1;
  4609  002646  8AAC               	bsf	172,5,c	;volatile
  4610  002648                     
  4611                           ;./bt.h: 16:     TXSTAbits.SYNC = 0;
  4612  002648  98AC               	bcf	172,4,c	;volatile
  4613  00264A                     
  4614                           ;./bt.h: 17:     TXSTAbits.BRGH = 1;
  4615  00264A  84AC               	bsf	172,2,c	;volatile
  4616  00264C                     
  4617                           ;./bt.h: 19:     RCSTAbits.SPEN = 1;
  4618  00264C  8EAB               	bsf	171,7,c	;volatile
  4619  00264E                     
  4620                           ;./bt.h: 20:     RCSTAbits.CREN = 1;
  4621  00264E  88AB               	bsf	171,4,c	;volatile
  4622  002650                     
  4623                           ;./bt.h: 23:     PIR1bits.RCIF = 0;
  4624  002650  9A9E               	bcf	158,5,c	;volatile
  4625  002652                     
  4626                           ;./bt.h: 25:     PIE1bits.RCIE = 1;
  4627  002652  8A9D               	bsf	157,5,c	;volatile
  4628  002654  0012               	return		;funcret
  4629  002656                     __end_of_setBT:
  4630                           	callstack 0
  4631                           
  4632 ;; *************** function _picUSART *****************
  4633 ;; Defined at:
  4634 ;;		line 38 in file "./bt.h"
  4635 ;; Parameters:    Size  Location     Type
  4636 ;;  status          1    wreg     unsigned char 
  4637 ;; Auto vars:     Size  Location     Type
  4638 ;;  status          1    1[COMRAM] unsigned char 
  4639 ;; Return value:  Size  Location     Type
  4640 ;;                  1    wreg      void 
  4641 ;; Registers used:
  4642 ;;		wreg, status,2, cstack
  4643 ;; Tracked objects:
  4644 ;;		On entry : 0/0
  4645 ;;		On exit  : 0/0
  4646 ;;		Unchanged: 0/0
  4647 ;; Data sizes:     COMRAM   BANK0   BANK1   BANK2
  4648 ;;      Params:         0       0       0       0
  4649 ;;      Locals:         1       0       0       0
  4650 ;;      Temps:          0       0       0       0
  4651 ;;      Totals:         1       0       0       0
  4652 ;;Total ram usage:        1 bytes
  4653 ;; Hardware stack levels used: 1
  4654 ;; Hardware stack levels required when called: 3
  4655 ;; This function calls:
  4656 ;;		_testBuff
  4657 ;; This function is called by:
  4658 ;;		_main
  4659 ;;		_iniciar
  4660 ;; This function uses a non-reentrant model
  4661 ;;
  4662                           
  4663                           	psect	text8
  4664  002656                     __ptext8:
  4665                           	callstack 0
  4666  002656                     _picUSART:
  4667                           	callstack 27
  4668                           
  4669                           ;incstack = 0
  4670                           ;picUSART@status stored from wreg
  4671  002656  6E02               	movwf	picUSART@status^0,c
  4672  002658                     
  4673                           ;./bt.h: 39:     TXREG = status;
  4674  002658  C002  FFAD         	movff	picUSART@status,4013	;volatile
  4675  00265C                     
  4676                           ;./bt.h: 40:     testBuff();
  4677  00265C  EC3D  F013         	call	_testBuff	;wreg free
  4678  002660                     
  4679                           ;./bt.h: 41:     TXREG = 0x0D;
  4680  002660  0E0D               	movlw	13
  4681  002662  6EAD               	movwf	173,c	;volatile
  4682  002664                     
  4683                           ;./bt.h: 42:     testBuff();
  4684  002664  EC3D  F013         	call	_testBuff	;wreg free
  4685  002668  0012               	return		;funcret
  4686  00266A                     __end_of_picUSART:
  4687                           	callstack 0
  4688                           
  4689 ;; *************** function _testBuff *****************
  4690 ;; Defined at:
  4691 ;;		line 27 in file "./bt.h"
  4692 ;; Parameters:    Size  Location     Type
  4693 ;;		None
  4694 ;; Auto vars:     Size  Location     Type
  4695 ;;		None
  4696 ;; Return value:  Size  Location     Type
  4697 ;;                  1    wreg      void 
  4698 ;; Registers used:
  4699 ;;		None
  4700 ;; Tracked objects:
  4701 ;;		On entry : 0/0
  4702 ;;		On exit  : 0/0
  4703 ;;		Unchanged: 0/0
  4704 ;; Data sizes:     COMRAM   BANK0   BANK1   BANK2
  4705 ;;      Params:         0       0       0       0
  4706 ;;      Locals:         0       0       0       0
  4707 ;;      Temps:          0       0       0       0
  4708 ;;      Totals:         0       0       0       0
  4709 ;;Total ram usage:        0 bytes
  4710 ;; Hardware stack levels used: 1
  4711 ;; Hardware stack levels required when called: 2
  4712 ;; This function calls:
  4713 ;;		Nothing
  4714 ;; This function is called by:
  4715 ;;		_picUSART
  4716 ;;		_stringUSART
  4717 ;;		_echo
  4718 ;; This function uses a non-reentrant model
  4719 ;;
  4720                           
  4721                           	psect	text9
  4722  00267A                     __ptext9:
  4723                           	callstack 0
  4724  00267A                     _testBuff:
  4725                           	callstack 27
  4726  00267A                     l139:
  4727  00267A  A2AC               	btfss	172,1,c	;volatile
  4728  00267C  EF42  F013         	goto	u71
  4729  002680  EF44  F013         	goto	u70
  4730  002684                     u71:
  4731  002684  EF3D  F013         	goto	l139
  4732  002688                     u70:
  4733  002688  0012               	return		;funcret
  4734  00268A                     __end_of_testBuff:
  4735                           	callstack 0
  4736                           
  4737 ;; *************** function _linha *****************
  4738 ;; Defined at:
  4739 ;;		line 759 in file "hachiko_0.c"
  4740 ;; Parameters:    Size  Location     Type
  4741 ;;		None
  4742 ;; Auto vars:     Size  Location     Type
  4743 ;;  velTest         2    0        int 
  4744 ;; Return value:  Size  Location     Type
  4745 ;;                  1    wreg      void 
  4746 ;; Registers used:
  4747 ;;		wreg, status,2, status,0, prodl, prodh, cstack
  4748 ;; Tracked objects:
  4749 ;;		On entry : 0/0
  4750 ;;		On exit  : 0/0
  4751 ;;		Unchanged: 0/0
  4752 ;; Data sizes:     COMRAM   BANK0   BANK1   BANK2
  4753 ;;      Params:         0       0       0       0
  4754 ;;      Locals:         0       0       0       0
  4755 ;;      Temps:          2       0       0       0
  4756 ;;      Totals:         2       0       0       0
  4757 ;;Total ram usage:        2 bytes
  4758 ;; Hardware stack levels used: 1
  4759 ;; Hardware stack levels required when called: 4
  4760 ;; This function calls:
  4761 ;;		_moverMotor
  4762 ;;		_pararMotor
  4763 ;; This function is called by:
  4764 ;;		_main
  4765 ;; This function uses a non-reentrant model
  4766 ;;
  4767                           
  4768                           	psect	text10
  4769  0022D2                     __ptext10:
  4770                           	callstack 0
  4771  0022D2                     _linha:
  4772                           	callstack 26
  4773  0022D2                     
  4774                           ;hachiko_0.c: 761:     if(PORTCbits.RC3 && !PORTCbits.RC4){
  4775  0022D2  A682               	btfss	130,3,c	;volatile
  4776  0022D4  EF6E  F011         	goto	u3951
  4777  0022D8  EF70  F011         	goto	u3950
  4778  0022DC                     u3951:
  4779  0022DC  EF96  F011         	goto	l420
  4780  0022E0                     u3950:
  4781  0022E0  B882               	btfsc	130,4,c	;volatile
  4782  0022E2  EF75  F011         	goto	u3961
  4783  0022E6  EF77  F011         	goto	u3960
  4784  0022EA                     u3961:
  4785  0022EA  EF96  F011         	goto	l420
  4786  0022EE                     u3960:
  4787  0022EE                     
  4788                           ;hachiko_0.c: 762:         moverMotor('d','f',velTest);
  4789  0022EE  0E66               	movlw	102
  4790  0022F0  6E08               	movwf	moverMotor@sentido^0,c
  4791  0022F2  0E00               	movlw	0
  4792  0022F4  6E0A               	movwf	(moverMotor@velocidade+1)^0,c
  4793  0022F6  0E32               	movlw	50
  4794  0022F8  6E09               	movwf	moverMotor@velocidade^0,c
  4795  0022FA  0E64               	movlw	100
  4796  0022FC  EC0C  F012         	call	_moverMotor
  4797                           
  4798                           ;hachiko_0.c: 763:         moverMotor('e','t',velTest);
  4799  002300  0E74               	movlw	116
  4800  002302  6E08               	movwf	moverMotor@sentido^0,c
  4801  002304  0E00               	movlw	0
  4802  002306  6E0A               	movwf	(moverMotor@velocidade+1)^0,c
  4803  002308  0E32               	movlw	50
  4804  00230A  6E09               	movwf	moverMotor@velocidade^0,c
  4805  00230C  0E65               	movlw	101
  4806  00230E  EC0C  F012         	call	_moverMotor
  4807  002312                     l2480:
  4808                           
  4809                           ;hachiko_0.c: 764:         _delay((unsigned long)((300)*(20000000/4000.0)));
  4810  002312  0E08               	movlw	8
  4811  002314  6E0D               	movwf	(??_linha+1)^0,c
  4812  002316  0E9D               	movlw	157
  4813  002318  6E0C               	movwf	??_linha^0,c
  4814  00231A  0E06               	movlw	6
  4815  00231C                     u6577:
  4816  00231C  2EE8               	decfsz	wreg,f,c
  4817  00231E  D7FE               	bra	u6577
  4818  002320  2E0C               	decfsz	??_linha^0,f,c
  4819  002322  D7FC               	bra	u6577
  4820  002324  2E0D               	decfsz	(??_linha+1)^0,f,c
  4821  002326  D7FA               	bra	u6577
  4822                           
  4823                           ;hachiko_0.c: 766:     }
  4824  002328  EF0B  F012         	goto	l425
  4825  00232C                     l420:
  4826  00232C  B682               	btfsc	130,3,c	;volatile
  4827  00232E  EF9B  F011         	goto	u3971
  4828  002332  EF9D  F011         	goto	u3970
  4829  002336                     u3971:
  4830  002336  EFB8  F011         	goto	l422
  4831  00233A                     u3970:
  4832  00233A  A882               	btfss	130,4,c	;volatile
  4833  00233C  EFA2  F011         	goto	u3981
  4834  002340  EFA4  F011         	goto	u3980
  4835  002344                     u3981:
  4836  002344  EFB8  F011         	goto	l422
  4837  002348                     u3980:
  4838  002348                     
  4839                           ;hachiko_0.c: 768:         moverMotor('d','t',velTest);
  4840  002348  0E74               	movlw	116
  4841  00234A  6E08               	movwf	moverMotor@sentido^0,c
  4842  00234C  0E00               	movlw	0
  4843  00234E  6E0A               	movwf	(moverMotor@velocidade+1)^0,c
  4844  002350  0E32               	movlw	50
  4845  002352  6E09               	movwf	moverMotor@velocidade^0,c
  4846  002354  0E64               	movlw	100
  4847  002356  EC0C  F012         	call	_moverMotor
  4848                           
  4849                           ;hachiko_0.c: 769:         moverMotor('e','f',velTest);
  4850  00235A  0E66               	movlw	102
  4851  00235C  6E08               	movwf	moverMotor@sentido^0,c
  4852  00235E  0E00               	movlw	0
  4853  002360  6E0A               	movwf	(moverMotor@velocidade+1)^0,c
  4854  002362  0E32               	movlw	50
  4855  002364  6E09               	movwf	moverMotor@velocidade^0,c
  4856  002366  0E65               	movlw	101
  4857  002368  EC0C  F012         	call	_moverMotor
  4858  00236C  EF89  F011         	goto	l2480
  4859  002370                     l422:
  4860  002370  B682               	btfsc	130,3,c	;volatile
  4861  002372  EFBD  F011         	goto	u3991
  4862  002376  EFBF  F011         	goto	u3990
  4863  00237A                     u3991:
  4864  00237A  EF0B  F012         	goto	l425
  4865  00237E                     u3990:
  4866  00237E  B882               	btfsc	130,4,c	;volatile
  4867  002380  EFC4  F011         	goto	u4001
  4868  002384  EFC6  F011         	goto	u4000
  4869  002388                     u4001:
  4870  002388  EF0B  F012         	goto	l425
  4871  00238C                     u4000:
  4872  00238C                     
  4873                           ;hachiko_0.c: 774:         moverMotor('d','t',velTest);
  4874  00238C  0E74               	movlw	116
  4875  00238E  6E08               	movwf	moverMotor@sentido^0,c
  4876  002390  0E00               	movlw	0
  4877  002392  6E0A               	movwf	(moverMotor@velocidade+1)^0,c
  4878  002394  0E32               	movlw	50
  4879  002396  6E09               	movwf	moverMotor@velocidade^0,c
  4880  002398  0E64               	movlw	100
  4881  00239A  EC0C  F012         	call	_moverMotor
  4882                           
  4883                           ;hachiko_0.c: 775:         moverMotor('e','t',velTest);
  4884  00239E  0E74               	movlw	116
  4885  0023A0  6E08               	movwf	moverMotor@sentido^0,c
  4886  0023A2  0E00               	movlw	0
  4887  0023A4  6E0A               	movwf	(moverMotor@velocidade+1)^0,c
  4888  0023A6  0E32               	movlw	50
  4889  0023A8  6E09               	movwf	moverMotor@velocidade^0,c
  4890  0023AA  0E65               	movlw	101
  4891  0023AC  EC0C  F012         	call	_moverMotor
  4892  0023B0                     
  4893                           ;hachiko_0.c: 776:         _delay((unsigned long)((100)*(20000000/4000.0)));
  4894  0023B0  0E03               	movlw	3
  4895  0023B2  6E0D               	movwf	(??_linha+1)^0,c
  4896  0023B4  0E8A               	movlw	138
  4897  0023B6  6E0C               	movwf	??_linha^0,c
  4898  0023B8  0E56               	movlw	86
  4899  0023BA                     u6587:
  4900  0023BA  2EE8               	decfsz	wreg,f,c
  4901  0023BC  D7FE               	bra	u6587
  4902  0023BE  2E0C               	decfsz	??_linha^0,f,c
  4903  0023C0  D7FC               	bra	u6587
  4904  0023C2  2E0D               	decfsz	(??_linha+1)^0,f,c
  4905  0023C4  D7FA               	bra	u6587
  4906  0023C6                     
  4907                           ;hachiko_0.c: 777:         pararMotor();
  4908  0023C6  ECF2  F012         	call	_pararMotor	;wreg free
  4909  0023CA                     
  4910                           ;hachiko_0.c: 778:         _delay((unsigned long)((10)*(20000000/4000.0)));
  4911  0023CA  0E41               	movlw	65
  4912  0023CC  6E0C               	movwf	??_linha^0,c
  4913  0023CE  0EEE               	movlw	238
  4914  0023D0                     u6597:
  4915  0023D0  2EE8               	decfsz	wreg,f,c
  4916  0023D2  D7FE               	bra	u6597
  4917  0023D4  2E0C               	decfsz	??_linha^0,f,c
  4918  0023D6  D7FC               	bra	u6597
  4919  0023D8  F000 F000          	nop2	
  4920  0023DC                     
  4921                           ;hachiko_0.c: 779:         moverMotor('d','f',velTest);
  4922  0023DC  0E66               	movlw	102
  4923  0023DE  6E08               	movwf	moverMotor@sentido^0,c
  4924  0023E0  0E00               	movlw	0
  4925  0023E2  6E0A               	movwf	(moverMotor@velocidade+1)^0,c
  4926  0023E4  0E32               	movlw	50
  4927  0023E6  6E09               	movwf	moverMotor@velocidade^0,c
  4928  0023E8  0E64               	movlw	100
  4929  0023EA  EC0C  F012         	call	_moverMotor
  4930  0023EE                     
  4931                           ;hachiko_0.c: 780:         moverMotor('e','t',velTest);
  4932  0023EE  0E74               	movlw	116
  4933  0023F0  6E08               	movwf	moverMotor@sentido^0,c
  4934  0023F2  0E00               	movlw	0
  4935  0023F4  6E0A               	movwf	(moverMotor@velocidade+1)^0,c
  4936  0023F6  0E32               	movlw	50
  4937  0023F8  6E09               	movwf	moverMotor@velocidade^0,c
  4938  0023FA  0E65               	movlw	101
  4939  0023FC  EC0C  F012         	call	_moverMotor
  4940  002400                     
  4941                           ;hachiko_0.c: 781:         _delay((unsigned long)((100)*(20000000/4000.0)));
  4942  002400  0E03               	movlw	3
  4943  002402  6E0D               	movwf	(??_linha+1)^0,c
  4944  002404  0E8A               	movlw	138
  4945  002406  6E0C               	movwf	??_linha^0,c
  4946  002408  0E56               	movlw	86
  4947  00240A                     u6607:
  4948  00240A  2EE8               	decfsz	wreg,f,c
  4949  00240C  D7FE               	bra	u6607
  4950  00240E  2E0C               	decfsz	??_linha^0,f,c
  4951  002410  D7FC               	bra	u6607
  4952  002412  2E0D               	decfsz	(??_linha+1)^0,f,c
  4953  002414  D7FA               	bra	u6607
  4954  002416                     l425:
  4955  002416  0012               	return		;funcret
  4956  002418                     __end_of_linha:
  4957                           	callstack 0
  4958                           
  4959 ;; *************** function _estrela *****************
  4960 ;; Defined at:
  4961 ;;		line 855 in file "hachiko_0.c"
  4962 ;; Parameters:    Size  Location     Type
  4963 ;;		None
  4964 ;; Auto vars:     Size  Location     Type
  4965 ;;		None
  4966 ;; Return value:  Size  Location     Type
  4967 ;;                  1    wreg      void 
  4968 ;; Registers used:
  4969 ;;		wreg, status,2, status,0, prodl, prodh, cstack
  4970 ;; Tracked objects:
  4971 ;;		On entry : 0/0
  4972 ;;		On exit  : 0/0
  4973 ;;		Unchanged: 0/0
  4974 ;; Data sizes:     COMRAM   BANK0   BANK1   BANK2
  4975 ;;      Params:         0       0       0       0
  4976 ;;      Locals:         0       0       0       0
  4977 ;;      Temps:          2       0       0       0
  4978 ;;      Totals:         2       0       0       0
  4979 ;;Total ram usage:        2 bytes
  4980 ;; Hardware stack levels used: 1
  4981 ;; Hardware stack levels required when called: 5
  4982 ;; This function calls:
  4983 ;;		_moverMotor
  4984 ;;		_pararMotor
  4985 ;;		_testarDistancia
  4986 ;; This function is called by:
  4987 ;;		_main
  4988 ;; This function uses a non-reentrant model
  4989 ;;
  4990                           
  4991                           	psect	text11
  4992  00217A                     __ptext11:
  4993                           	callstack 0
  4994  00217A                     _estrela:
  4995                           	callstack 25
  4996  00217A                     
  4997                           ;hachiko_0.c: 856:     if(PORTCbits.RC3 && PORTCbits.RC4){
  4998  00217A  A682               	btfss	130,3,c	;volatile
  4999  00217C  EFC2  F010         	goto	u4011
  5000  002180  EFC4  F010         	goto	u4010
  5001  002184                     u4011:
  5002  002184  EFCF  F010         	goto	l457
  5003  002188                     u4010:
  5004  002188  A882               	btfss	130,4,c	;volatile
  5005  00218A  EFC9  F010         	goto	u4021
  5006  00218E  EFCB  F010         	goto	u4020
  5007  002192                     u4021:
  5008  002192  EFCF  F010         	goto	l457
  5009  002196                     u4020:
  5010  002196                     
  5011                           ;hachiko_0.c: 857:         testarDistancia();
  5012  002196  ECF0  F00D         	call	_testarDistancia	;wreg free
  5013                           
  5014                           ;hachiko_0.c: 858:     }
  5015  00219A  EF68  F011         	goto	l464
  5016  00219E                     l457:
  5017  00219E  B682               	btfsc	130,3,c	;volatile
  5018  0021A0  EFD4  F010         	goto	u4031
  5019  0021A4  EFD6  F010         	goto	u4030
  5020  0021A8                     u4031:
  5021  0021A8  EFFC  F010         	goto	l459
  5022  0021AC                     u4030:
  5023  0021AC  A882               	btfss	130,4,c	;volatile
  5024  0021AE  EFDB  F010         	goto	u4041
  5025  0021B2  EFDD  F010         	goto	u4040
  5026  0021B6                     u4041:
  5027  0021B6  EFFC  F010         	goto	l459
  5028  0021BA                     u4040:
  5029  0021BA                     
  5030                           ;hachiko_0.c: 860:         moverMotor('d','f',70);
  5031  0021BA  0E66               	movlw	102
  5032  0021BC  6E08               	movwf	moverMotor@sentido^0,c
  5033  0021BE  0E00               	movlw	0
  5034  0021C0  6E0A               	movwf	(moverMotor@velocidade+1)^0,c
  5035  0021C2  0E46               	movlw	70
  5036  0021C4  6E09               	movwf	moverMotor@velocidade^0,c
  5037  0021C6  0E64               	movlw	100
  5038  0021C8  EC0C  F012         	call	_moverMotor
  5039                           
  5040                           ;hachiko_0.c: 861:         moverMotor('e','t',70);
  5041  0021CC  0E74               	movlw	116
  5042  0021CE  6E08               	movwf	moverMotor@sentido^0,c
  5043  0021D0  0E00               	movlw	0
  5044  0021D2  6E0A               	movwf	(moverMotor@velocidade+1)^0,c
  5045  0021D4  0E46               	movlw	70
  5046  0021D6  6E09               	movwf	moverMotor@velocidade^0,c
  5047  0021D8  0E65               	movlw	101
  5048  0021DA  EC0C  F012         	call	_moverMotor
  5049  0021DE                     l2514:
  5050                           
  5051                           ;hachiko_0.c: 862:         _delay((unsigned long)((100)*(20000000/4000.0)));
  5052  0021DE  0E03               	movlw	3
  5053  0021E0  6E0F               	movwf	(??_estrela+1)^0,c
  5054  0021E2  0E8A               	movlw	138
  5055  0021E4  6E0E               	movwf	??_estrela^0,c
  5056  0021E6  0E56               	movlw	86
  5057  0021E8                     u6617:
  5058  0021E8  2EE8               	decfsz	wreg,f,c
  5059  0021EA  D7FE               	bra	u6617
  5060  0021EC  2E0E               	decfsz	??_estrela^0,f,c
  5061  0021EE  D7FC               	bra	u6617
  5062  0021F0  2E0F               	decfsz	(??_estrela+1)^0,f,c
  5063  0021F2  D7FA               	bra	u6617
  5064                           
  5065                           ;hachiko_0.c: 863:     }
  5066  0021F4  EF68  F011         	goto	l464
  5067  0021F8                     l459:
  5068  0021F8  A682               	btfss	130,3,c	;volatile
  5069  0021FA  EF01  F011         	goto	u4051
  5070  0021FE  EF03  F011         	goto	u4050
  5071  002202                     u4051:
  5072  002202  EF1E  F011         	goto	l461
  5073  002206                     u4050:
  5074  002206  B882               	btfsc	130,4,c	;volatile
  5075  002208  EF08  F011         	goto	u4061
  5076  00220C  EF0A  F011         	goto	u4060
  5077  002210                     u4061:
  5078  002210  EF1E  F011         	goto	l461
  5079  002214                     u4060:
  5080  002214                     
  5081                           ;hachiko_0.c: 865:         moverMotor('d','t',70);
  5082  002214  0E74               	movlw	116
  5083  002216  6E08               	movwf	moverMotor@sentido^0,c
  5084  002218  0E00               	movlw	0
  5085  00221A  6E0A               	movwf	(moverMotor@velocidade+1)^0,c
  5086  00221C  0E46               	movlw	70
  5087  00221E  6E09               	movwf	moverMotor@velocidade^0,c
  5088  002220  0E64               	movlw	100
  5089  002222  EC0C  F012         	call	_moverMotor
  5090                           
  5091                           ;hachiko_0.c: 866:         moverMotor('e','f',70);
  5092  002226  0E66               	movlw	102
  5093  002228  6E08               	movwf	moverMotor@sentido^0,c
  5094  00222A  0E00               	movlw	0
  5095  00222C  6E0A               	movwf	(moverMotor@velocidade+1)^0,c
  5096  00222E  0E46               	movlw	70
  5097  002230  6E09               	movwf	moverMotor@velocidade^0,c
  5098  002232  0E65               	movlw	101
  5099  002234  EC0C  F012         	call	_moverMotor
  5100  002238  EFEF  F010         	goto	l2514
  5101  00223C                     l461:
  5102  00223C  B682               	btfsc	130,3,c	;volatile
  5103  00223E  EF23  F011         	goto	u4071
  5104  002242  EF25  F011         	goto	u4070
  5105  002246                     u4071:
  5106  002246  EF68  F011         	goto	l460
  5107  00224A                     u4070:
  5108  00224A  B882               	btfsc	130,4,c	;volatile
  5109  00224C  EF2A  F011         	goto	u4081
  5110  002250  EF2C  F011         	goto	u4080
  5111  002254                     u4081:
  5112  002254  EF68  F011         	goto	l460
  5113  002258                     u4080:
  5114  002258                     
  5115                           ;hachiko_0.c: 870:         moverMotor('d','t',80);
  5116  002258  0E74               	movlw	116
  5117  00225A  6E08               	movwf	moverMotor@sentido^0,c
  5118  00225C  0E00               	movlw	0
  5119  00225E  6E0A               	movwf	(moverMotor@velocidade+1)^0,c
  5120  002260  0E50               	movlw	80
  5121  002262  6E09               	movwf	moverMotor@velocidade^0,c
  5122  002264  0E64               	movlw	100
  5123  002266  EC0C  F012         	call	_moverMotor
  5124                           
  5125                           ;hachiko_0.c: 871:         moverMotor('e','t',80);
  5126  00226A  0E74               	movlw	116
  5127  00226C  6E08               	movwf	moverMotor@sentido^0,c
  5128  00226E  0E00               	movlw	0
  5129  002270  6E0A               	movwf	(moverMotor@velocidade+1)^0,c
  5130  002272  0E50               	movlw	80
  5131  002274  6E09               	movwf	moverMotor@velocidade^0,c
  5132  002276  0E65               	movlw	101
  5133  002278  EC0C  F012         	call	_moverMotor
  5134  00227C                     
  5135                           ;hachiko_0.c: 872:         _delay((unsigned long)((100)*(20000000/4000.0)));
  5136  00227C  0E03               	movlw	3
  5137  00227E  6E0F               	movwf	(??_estrela+1)^0,c
  5138  002280  0E8A               	movlw	138
  5139  002282  6E0E               	movwf	??_estrela^0,c
  5140  002284  0E56               	movlw	86
  5141  002286                     u6627:
  5142  002286  2EE8               	decfsz	wreg,f,c
  5143  002288  D7FE               	bra	u6627
  5144  00228A  2E0E               	decfsz	??_estrela^0,f,c
  5145  00228C  D7FC               	bra	u6627
  5146  00228E  2E0F               	decfsz	(??_estrela+1)^0,f,c
  5147  002290  D7FA               	bra	u6627
  5148  002292                     
  5149                           ;hachiko_0.c: 873:         pararMotor();
  5150  002292  ECF2  F012         	call	_pararMotor	;wreg free
  5151  002296                     
  5152                           ;hachiko_0.c: 874:         _delay((unsigned long)((10)*(20000000/4000.0)));
  5153  002296  0E41               	movlw	65
  5154  002298  6E0E               	movwf	??_estrela^0,c
  5155  00229A  0EEE               	movlw	238
  5156  00229C                     u6637:
  5157  00229C  2EE8               	decfsz	wreg,f,c
  5158  00229E  D7FE               	bra	u6637
  5159  0022A0  2E0E               	decfsz	??_estrela^0,f,c
  5160  0022A2  D7FC               	bra	u6637
  5161  0022A4  F000 F000          	nop2	
  5162  0022A8                     
  5163                           ;hachiko_0.c: 875:         moverMotor('d','t',70);
  5164  0022A8  0E74               	movlw	116
  5165  0022AA  6E08               	movwf	moverMotor@sentido^0,c
  5166  0022AC  0E00               	movlw	0
  5167  0022AE  6E0A               	movwf	(moverMotor@velocidade+1)^0,c
  5168  0022B0  0E46               	movlw	70
  5169  0022B2  6E09               	movwf	moverMotor@velocidade^0,c
  5170  0022B4  0E64               	movlw	100
  5171  0022B6  EC0C  F012         	call	_moverMotor
  5172  0022BA                     
  5173                           ;hachiko_0.c: 876:         moverMotor('e','f',70);
  5174  0022BA  0E66               	movlw	102
  5175  0022BC  6E08               	movwf	moverMotor@sentido^0,c
  5176  0022BE  0E00               	movlw	0
  5177  0022C0  6E0A               	movwf	(moverMotor@velocidade+1)^0,c
  5178  0022C2  0E46               	movlw	70
  5179  0022C4  6E09               	movwf	moverMotor@velocidade^0,c
  5180  0022C6  0E65               	movlw	101
  5181  0022C8  EC0C  F012         	call	_moverMotor
  5182  0022CC  EFEF  F010         	goto	l2514
  5183  0022D0                     l460:
  5184  0022D0                     l464:
  5185  0022D0  0012               	return		;funcret
  5186  0022D2                     __end_of_estrela:
  5187                           	callstack 0
  5188                           
  5189 ;; *************** function _testarDistancia *****************
  5190 ;; Defined at:
  5191 ;;		line 711 in file "hachiko_0.c"
  5192 ;; Parameters:    Size  Location     Type
  5193 ;;		None
  5194 ;; Auto vars:     Size  Location     Type
  5195 ;;  velTest         2    0        int 
  5196 ;;  velTestParaF    2   11[COMRAM] int 
  5197 ;; Return value:  Size  Location     Type
  5198 ;;                  1    wreg      void 
  5199 ;; Registers used:
  5200 ;;		wreg, status,2, status,0, prodl, prodh, cstack
  5201 ;; Tracked objects:
  5202 ;;		On entry : 0/0
  5203 ;;		On exit  : 0/0
  5204 ;;		Unchanged: 0/0
  5205 ;; Data sizes:     COMRAM   BANK0   BANK1   BANK2
  5206 ;;      Params:         0       0       0       0
  5207 ;;      Locals:         2       0       0       0
  5208 ;;      Temps:          0       0       0       0
  5209 ;;      Totals:         2       0       0       0
  5210 ;;Total ram usage:        2 bytes
  5211 ;; Hardware stack levels used: 1
  5212 ;; Hardware stack levels required when called: 4
  5213 ;; This function calls:
  5214 ;;		_moverMotor
  5215 ;; This function is called by:
  5216 ;;		_main
  5217 ;;		_estrela
  5218 ;; This function uses a non-reentrant model
  5219 ;;
  5220                           
  5221                           	psect	text12
  5222  001BE0                     __ptext12:
  5223                           	callstack 0
  5224  001BE0                     _testarDistancia:
  5225                           	callstack 26
  5226  001BE0                     
  5227                           ;hachiko_0.c: 713:     int velTestParaFrente = 100;
  5228  001BE0  0E00               	movlw	0
  5229  001BE2  6E0D               	movwf	(testarDistancia@velTestParaFrente+1)^0,c
  5230  001BE4  0E64               	movlw	100
  5231  001BE6  6E0C               	movwf	testarDistancia@velTestParaFrente^0,c
  5232  001BE8                     
  5233                           ;hachiko_0.c: 714:     if(!PORTAbits.RA1 && PORTAbits.RA4 && PORTCbits.RC0 && PORTAbits.
      +                          RA3 && PORTAbits.RA2){
  5234  001BE8  B280               	btfsc	128,1,c	;volatile
  5235  001BEA  EFF9  F00D         	goto	u3411
  5236  001BEE  EFFB  F00D         	goto	u3410
  5237  001BF2                     u3411:
  5238  001BF2  EF2B  F00E         	goto	l399
  5239  001BF6                     u3410:
  5240  001BF6  A880               	btfss	128,4,c	;volatile
  5241  001BF8  EF00  F00E         	goto	u3421
  5242  001BFC  EF02  F00E         	goto	u3420
  5243  001C00                     u3421:
  5244  001C00  EF2B  F00E         	goto	l399
  5245  001C04                     u3420:
  5246  001C04  A082               	btfss	130,0,c	;volatile
  5247  001C06  EF07  F00E         	goto	u3431
  5248  001C0A  EF09  F00E         	goto	u3430
  5249  001C0E                     u3431:
  5250  001C0E  EF2B  F00E         	goto	l399
  5251  001C12                     u3430:
  5252  001C12  A680               	btfss	128,3,c	;volatile
  5253  001C14  EF0E  F00E         	goto	u3441
  5254  001C18  EF10  F00E         	goto	u3440
  5255  001C1C                     u3441:
  5256  001C1C  EF2B  F00E         	goto	l399
  5257  001C20                     u3440:
  5258  001C20  A480               	btfss	128,2,c	;volatile
  5259  001C22  EF15  F00E         	goto	u3451
  5260  001C26  EF17  F00E         	goto	u3450
  5261  001C2A                     u3451:
  5262  001C2A  EF2B  F00E         	goto	l399
  5263  001C2E                     u3450:
  5264  001C2E                     
  5265                           ;hachiko_0.c: 715:         moverMotor('e','t',velTest);
  5266  001C2E  0E74               	movlw	116
  5267  001C30  6E08               	movwf	moverMotor@sentido^0,c
  5268  001C32  0E00               	movlw	0
  5269  001C34  6E0A               	movwf	(moverMotor@velocidade+1)^0,c
  5270  001C36  0E46               	movlw	70
  5271  001C38  6E09               	movwf	moverMotor@velocidade^0,c
  5272  001C3A  0E65               	movlw	101
  5273  001C3C  EC0C  F012         	call	_moverMotor
  5274                           
  5275                           ;hachiko_0.c: 716:         moverMotor('d','f',velTest);
  5276  001C40  0E66               	movlw	102
  5277  001C42  6E08               	movwf	moverMotor@sentido^0,c
  5278  001C44  0E00               	movlw	0
  5279  001C46  6E0A               	movwf	(moverMotor@velocidade+1)^0,c
  5280  001C48  0E46               	movlw	70
  5281  001C4A  6E09               	movwf	moverMotor@velocidade^0,c
  5282  001C4C  0E64               	movlw	100
  5283  001C4E  EC0C  F012         	call	_moverMotor
  5284                           
  5285                           ;hachiko_0.c: 717:     }
  5286  001C52  EFF5  F00F         	goto	l417
  5287  001C56                     l399:
  5288  001C56  A280               	btfss	128,1,c	;volatile
  5289  001C58  EF30  F00E         	goto	u3461
  5290  001C5C  EF32  F00E         	goto	u3460
  5291  001C60                     u3461:
  5292  001C60  EF62  F00E         	goto	l401
  5293  001C64                     u3460:
  5294  001C64  A880               	btfss	128,4,c	;volatile
  5295  001C66  EF37  F00E         	goto	u3471
  5296  001C6A  EF39  F00E         	goto	u3470
  5297  001C6E                     u3471:
  5298  001C6E  EF62  F00E         	goto	l401
  5299  001C72                     u3470:
  5300  001C72  B082               	btfsc	130,0,c	;volatile
  5301  001C74  EF3E  F00E         	goto	u3481
  5302  001C78  EF40  F00E         	goto	u3480
  5303  001C7C                     u3481:
  5304  001C7C  EF62  F00E         	goto	l401
  5305  001C80                     u3480:
  5306  001C80  A680               	btfss	128,3,c	;volatile
  5307  001C82  EF45  F00E         	goto	u3491
  5308  001C86  EF47  F00E         	goto	u3490
  5309  001C8A                     u3491:
  5310  001C8A  EF62  F00E         	goto	l401
  5311  001C8E                     u3490:
  5312  001C8E  A480               	btfss	128,2,c	;volatile
  5313  001C90  EF4C  F00E         	goto	u3501
  5314  001C94  EF4E  F00E         	goto	u3500
  5315  001C98                     u3501:
  5316  001C98  EF62  F00E         	goto	l401
  5317  001C9C                     u3500:
  5318  001C9C                     
  5319                           ;hachiko_0.c: 719:         moverMotor('e','f',velTestParaFrente);
  5320  001C9C  0E66               	movlw	102
  5321  001C9E  6E08               	movwf	moverMotor@sentido^0,c
  5322  001CA0  0E00               	movlw	0
  5323  001CA2  6E0A               	movwf	(moverMotor@velocidade+1)^0,c
  5324  001CA4  0E64               	movlw	100
  5325  001CA6  6E09               	movwf	moverMotor@velocidade^0,c
  5326  001CA8  0E65               	movlw	101
  5327  001CAA  EC0C  F012         	call	_moverMotor
  5328                           
  5329                           ;hachiko_0.c: 720:         moverMotor('d','f',velTestParaFrente);
  5330  001CAE  0E66               	movlw	102
  5331  001CB0  6E08               	movwf	moverMotor@sentido^0,c
  5332  001CB2  0E00               	movlw	0
  5333  001CB4  6E0A               	movwf	(moverMotor@velocidade+1)^0,c
  5334  001CB6  0E64               	movlw	100
  5335  001CB8  6E09               	movwf	moverMotor@velocidade^0,c
  5336  001CBA  0E64               	movlw	100
  5337  001CBC  EC0C  F012         	call	_moverMotor
  5338                           
  5339                           ;hachiko_0.c: 722:     }
  5340  001CC0  EFF5  F00F         	goto	l417
  5341  001CC4                     l401:
  5342  001CC4  A280               	btfss	128,1,c	;volatile
  5343  001CC6  EF67  F00E         	goto	u3511
  5344  001CCA  EF69  F00E         	goto	u3510
  5345  001CCE                     u3511:
  5346  001CCE  EF99  F00E         	goto	l403
  5347  001CD2                     u3510:
  5348  001CD2  B880               	btfsc	128,4,c	;volatile
  5349  001CD4  EF6E  F00E         	goto	u3521
  5350  001CD8  EF70  F00E         	goto	u3520
  5351  001CDC                     u3521:
  5352  001CDC  EF99  F00E         	goto	l403
  5353  001CE0                     u3520:
  5354  001CE0  A082               	btfss	130,0,c	;volatile
  5355  001CE2  EF75  F00E         	goto	u3531
  5356  001CE6  EF77  F00E         	goto	u3530
  5357  001CEA                     u3531:
  5358  001CEA  EF99  F00E         	goto	l403
  5359  001CEE                     u3530:
  5360  001CEE  B680               	btfsc	128,3,c	;volatile
  5361  001CF0  EF7C  F00E         	goto	u3541
  5362  001CF4  EF7E  F00E         	goto	u3540
  5363  001CF8                     u3541:
  5364  001CF8  EF99  F00E         	goto	l403
  5365  001CFC                     u3540:
  5366  001CFC  A480               	btfss	128,2,c	;volatile
  5367  001CFE  EF83  F00E         	goto	u3551
  5368  001D02  EF85  F00E         	goto	u3550
  5369  001D06                     u3551:
  5370  001D06  EF99  F00E         	goto	l403
  5371  001D0A                     u3550:
  5372  001D0A                     
  5373                           ;hachiko_0.c: 724:         moverMotor('e','f',velTestParaFrente);
  5374  001D0A  0E66               	movlw	102
  5375  001D0C  6E08               	movwf	moverMotor@sentido^0,c
  5376  001D0E  0E00               	movlw	0
  5377  001D10  6E0A               	movwf	(moverMotor@velocidade+1)^0,c
  5378  001D12  0E64               	movlw	100
  5379  001D14  6E09               	movwf	moverMotor@velocidade^0,c
  5380  001D16  0E65               	movlw	101
  5381  001D18  EC0C  F012         	call	_moverMotor
  5382                           
  5383                           ;hachiko_0.c: 725:         moverMotor('d','f',velTestParaFrente);
  5384  001D1C  0E66               	movlw	102
  5385  001D1E  6E08               	movwf	moverMotor@sentido^0,c
  5386  001D20  0E00               	movlw	0
  5387  001D22  6E0A               	movwf	(moverMotor@velocidade+1)^0,c
  5388  001D24  0E64               	movlw	100
  5389  001D26  6E09               	movwf	moverMotor@velocidade^0,c
  5390  001D28  0E64               	movlw	100
  5391  001D2A  EC0C  F012         	call	_moverMotor
  5392                           
  5393                           ;hachiko_0.c: 727:     }
  5394  001D2E  EFF5  F00F         	goto	l417
  5395  001D32                     l403:
  5396  001D32  A280               	btfss	128,1,c	;volatile
  5397  001D34  EF9E  F00E         	goto	u3561
  5398  001D38  EFA0  F00E         	goto	u3560
  5399  001D3C                     u3561:
  5400  001D3C  EFD0  F00E         	goto	l405
  5401  001D40                     u3560:
  5402  001D40  B880               	btfsc	128,4,c	;volatile
  5403  001D42  EFA5  F00E         	goto	u3571
  5404  001D46  EFA7  F00E         	goto	u3570
  5405  001D4A                     u3571:
  5406  001D4A  EFD0  F00E         	goto	l405
  5407  001D4E                     u3570:
  5408  001D4E  B082               	btfsc	130,0,c	;volatile
  5409  001D50  EFAC  F00E         	goto	u3581
  5410  001D54  EFAE  F00E         	goto	u3580
  5411  001D58                     u3581:
  5412  001D58  EFD0  F00E         	goto	l405
  5413  001D5C                     u3580:
  5414  001D5C  B680               	btfsc	128,3,c	;volatile
  5415  001D5E  EFB3  F00E         	goto	u3591
  5416  001D62  EFB5  F00E         	goto	u3590
  5417  001D66                     u3591:
  5418  001D66  EFD0  F00E         	goto	l405
  5419  001D6A                     u3590:
  5420  001D6A  A480               	btfss	128,2,c	;volatile
  5421  001D6C  EFBA  F00E         	goto	u3601
  5422  001D70  EFBC  F00E         	goto	u3600
  5423  001D74                     u3601:
  5424  001D74  EFD0  F00E         	goto	l405
  5425  001D78                     u3600:
  5426  001D78                     
  5427                           ;hachiko_0.c: 729:         moverMotor('d','f',velTestParaFrente);
  5428  001D78  0E66               	movlw	102
  5429  001D7A  6E08               	movwf	moverMotor@sentido^0,c
  5430  001D7C  0E00               	movlw	0
  5431  001D7E  6E0A               	movwf	(moverMotor@velocidade+1)^0,c
  5432  001D80  0E64               	movlw	100
  5433  001D82  6E09               	movwf	moverMotor@velocidade^0,c
  5434  001D84  0E64               	movlw	100
  5435  001D86  EC0C  F012         	call	_moverMotor
  5436                           
  5437                           ;hachiko_0.c: 730:         moverMotor('e','f',velTestParaFrente);
  5438  001D8A  0E66               	movlw	102
  5439  001D8C  6E08               	movwf	moverMotor@sentido^0,c
  5440  001D8E  0E00               	movlw	0
  5441  001D90  6E0A               	movwf	(moverMotor@velocidade+1)^0,c
  5442  001D92  0E64               	movlw	100
  5443  001D94  6E09               	movwf	moverMotor@velocidade^0,c
  5444  001D96  0E65               	movlw	101
  5445  001D98  EC0C  F012         	call	_moverMotor
  5446                           
  5447                           ;hachiko_0.c: 731:     }
  5448  001D9C  EFF5  F00F         	goto	l417
  5449  001DA0                     l405:
  5450  001DA0  A280               	btfss	128,1,c	;volatile
  5451  001DA2  EFD5  F00E         	goto	u3611
  5452  001DA6  EFD7  F00E         	goto	u3610
  5453  001DAA                     u3611:
  5454  001DAA  EF07  F00F         	goto	l407
  5455  001DAE                     u3610:
  5456  001DAE  A880               	btfss	128,4,c	;volatile
  5457  001DB0  EFDC  F00E         	goto	u3621
  5458  001DB4  EFDE  F00E         	goto	u3620
  5459  001DB8                     u3621:
  5460  001DB8  EF07  F00F         	goto	l407
  5461  001DBC                     u3620:
  5462  001DBC  A082               	btfss	130,0,c	;volatile
  5463  001DBE  EFE3  F00E         	goto	u3631
  5464  001DC2  EFE5  F00E         	goto	u3630
  5465  001DC6                     u3631:
  5466  001DC6  EF07  F00F         	goto	l407
  5467  001DCA                     u3630:
  5468  001DCA  B680               	btfsc	128,3,c	;volatile
  5469  001DCC  EFEA  F00E         	goto	u3641
  5470  001DD0  EFEC  F00E         	goto	u3640
  5471  001DD4                     u3641:
  5472  001DD4  EF07  F00F         	goto	l407
  5473  001DD8                     u3640:
  5474  001DD8  A480               	btfss	128,2,c	;volatile
  5475  001DDA  EFF1  F00E         	goto	u3651
  5476  001DDE  EFF3  F00E         	goto	u3650
  5477  001DE2                     u3651:
  5478  001DE2  EF07  F00F         	goto	l407
  5479  001DE6                     u3650:
  5480  001DE6                     
  5481                           ;hachiko_0.c: 733:         moverMotor('e','f',velTest);
  5482  001DE6  0E66               	movlw	102
  5483  001DE8  6E08               	movwf	moverMotor@sentido^0,c
  5484  001DEA  0E00               	movlw	0
  5485  001DEC  6E0A               	movwf	(moverMotor@velocidade+1)^0,c
  5486  001DEE  0E46               	movlw	70
  5487  001DF0  6E09               	movwf	moverMotor@velocidade^0,c
  5488  001DF2  0E65               	movlw	101
  5489  001DF4  EC0C  F012         	call	_moverMotor
  5490                           
  5491                           ;hachiko_0.c: 734:         moverMotor('d','t',velTest);
  5492  001DF8  0E74               	movlw	116
  5493  001DFA  6E08               	movwf	moverMotor@sentido^0,c
  5494  001DFC  0E00               	movlw	0
  5495  001DFE  6E0A               	movwf	(moverMotor@velocidade+1)^0,c
  5496  001E00  0E46               	movlw	70
  5497  001E02  6E09               	movwf	moverMotor@velocidade^0,c
  5498  001E04  0E64               	movlw	100
  5499  001E06  EC0C  F012         	call	_moverMotor
  5500                           
  5501                           ;hachiko_0.c: 735:     }
  5502  001E0A  EFF5  F00F         	goto	l417
  5503  001E0E                     l407:
  5504  001E0E  A280               	btfss	128,1,c	;volatile
  5505  001E10  EF0C  F00F         	goto	u3661
  5506  001E14  EF0E  F00F         	goto	u3660
  5507  001E18                     u3661:
  5508  001E18  EF3E  F00F         	goto	l409
  5509  001E1C                     u3660:
  5510  001E1C  A880               	btfss	128,4,c	;volatile
  5511  001E1E  EF13  F00F         	goto	u3671
  5512  001E22  EF15  F00F         	goto	u3670
  5513  001E26                     u3671:
  5514  001E26  EF3E  F00F         	goto	l409
  5515  001E2A                     u3670:
  5516  001E2A  B082               	btfsc	130,0,c	;volatile
  5517  001E2C  EF1A  F00F         	goto	u3681
  5518  001E30  EF1C  F00F         	goto	u3680
  5519  001E34                     u3681:
  5520  001E34  EF3E  F00F         	goto	l409
  5521  001E38                     u3680:
  5522  001E38  B680               	btfsc	128,3,c	;volatile
  5523  001E3A  EF21  F00F         	goto	u3691
  5524  001E3E  EF23  F00F         	goto	u3690
  5525  001E42                     u3691:
  5526  001E42  EF3E  F00F         	goto	l409
  5527  001E46                     u3690:
  5528  001E46  A480               	btfss	128,2,c	;volatile
  5529  001E48  EF28  F00F         	goto	u3701
  5530  001E4C  EF2A  F00F         	goto	u3700
  5531  001E50                     u3701:
  5532  001E50  EF3E  F00F         	goto	l409
  5533  001E54                     u3700:
  5534  001E54                     
  5535                           ;hachiko_0.c: 737:         moverMotor('e','f',velTest);
  5536  001E54  0E66               	movlw	102
  5537  001E56  6E08               	movwf	moverMotor@sentido^0,c
  5538  001E58  0E00               	movlw	0
  5539  001E5A  6E0A               	movwf	(moverMotor@velocidade+1)^0,c
  5540  001E5C  0E46               	movlw	70
  5541  001E5E  6E09               	movwf	moverMotor@velocidade^0,c
  5542  001E60  0E65               	movlw	101
  5543  001E62  EC0C  F012         	call	_moverMotor
  5544                           
  5545                           ;hachiko_0.c: 738:         moverMotor('d','t',velTest);
  5546  001E66  0E74               	movlw	116
  5547  001E68  6E08               	movwf	moverMotor@sentido^0,c
  5548  001E6A  0E00               	movlw	0
  5549  001E6C  6E0A               	movwf	(moverMotor@velocidade+1)^0,c
  5550  001E6E  0E46               	movlw	70
  5551  001E70  6E09               	movwf	moverMotor@velocidade^0,c
  5552  001E72  0E64               	movlw	100
  5553  001E74  EC0C  F012         	call	_moverMotor
  5554                           
  5555                           ;hachiko_0.c: 739:     }
  5556  001E78  EFF5  F00F         	goto	l417
  5557  001E7C                     l409:
  5558  001E7C  A280               	btfss	128,1,c	;volatile
  5559  001E7E  EF43  F00F         	goto	u3711
  5560  001E82  EF45  F00F         	goto	u3710
  5561  001E86                     u3711:
  5562  001E86  EF75  F00F         	goto	l411
  5563  001E8A                     u3710:
  5564  001E8A  B880               	btfsc	128,4,c	;volatile
  5565  001E8C  EF4A  F00F         	goto	u3721
  5566  001E90  EF4C  F00F         	goto	u3720
  5567  001E94                     u3721:
  5568  001E94  EF75  F00F         	goto	l411
  5569  001E98                     u3720:
  5570  001E98  A082               	btfss	130,0,c	;volatile
  5571  001E9A  EF51  F00F         	goto	u3731
  5572  001E9E  EF53  F00F         	goto	u3730
  5573  001EA2                     u3731:
  5574  001EA2  EF75  F00F         	goto	l411
  5575  001EA6                     u3730:
  5576  001EA6  A680               	btfss	128,3,c	;volatile
  5577  001EA8  EF58  F00F         	goto	u3741
  5578  001EAC  EF5A  F00F         	goto	u3740
  5579  001EB0                     u3741:
  5580  001EB0  EF75  F00F         	goto	l411
  5581  001EB4                     u3740:
  5582  001EB4  A480               	btfss	128,2,c	;volatile
  5583  001EB6  EF5F  F00F         	goto	u3751
  5584  001EBA  EF61  F00F         	goto	u3750
  5585  001EBE                     u3751:
  5586  001EBE  EF75  F00F         	goto	l411
  5587  001EC2                     u3750:
  5588  001EC2                     
  5589                           ;hachiko_0.c: 741:         moverMotor('e','t',velTest);
  5590  001EC2  0E74               	movlw	116
  5591  001EC4  6E08               	movwf	moverMotor@sentido^0,c
  5592  001EC6  0E00               	movlw	0
  5593  001EC8  6E0A               	movwf	(moverMotor@velocidade+1)^0,c
  5594  001ECA  0E46               	movlw	70
  5595  001ECC  6E09               	movwf	moverMotor@velocidade^0,c
  5596  001ECE  0E65               	movlw	101
  5597  001ED0  EC0C  F012         	call	_moverMotor
  5598                           
  5599                           ;hachiko_0.c: 742:         moverMotor('d','f',velTest);
  5600  001ED4  0E66               	movlw	102
  5601  001ED6  6E08               	movwf	moverMotor@sentido^0,c
  5602  001ED8  0E00               	movlw	0
  5603  001EDA  6E0A               	movwf	(moverMotor@velocidade+1)^0,c
  5604  001EDC  0E46               	movlw	70
  5605  001EDE  6E09               	movwf	moverMotor@velocidade^0,c
  5606  001EE0  0E64               	movlw	100
  5607  001EE2  EC0C  F012         	call	_moverMotor
  5608                           
  5609                           ;hachiko_0.c: 743:     }
  5610  001EE6  EFF5  F00F         	goto	l417
  5611  001EEA                     l411:
  5612  001EEA  A280               	btfss	128,1,c	;volatile
  5613  001EEC  EF7A  F00F         	goto	u3761
  5614  001EF0  EF7C  F00F         	goto	u3760
  5615  001EF4                     u3761:
  5616  001EF4  EFAC  F00F         	goto	l413
  5617  001EF8                     u3760:
  5618  001EF8  B880               	btfsc	128,4,c	;volatile
  5619  001EFA  EF81  F00F         	goto	u3771
  5620  001EFE  EF83  F00F         	goto	u3770
  5621  001F02                     u3771:
  5622  001F02  EFAC  F00F         	goto	l413
  5623  001F06                     u3770:
  5624  001F06  B082               	btfsc	130,0,c	;volatile
  5625  001F08  EF88  F00F         	goto	u3781
  5626  001F0C  EF8A  F00F         	goto	u3780
  5627  001F10                     u3781:
  5628  001F10  EFAC  F00F         	goto	l413
  5629  001F14                     u3780:
  5630  001F14  A680               	btfss	128,3,c	;volatile
  5631  001F16  EF8F  F00F         	goto	u3791
  5632  001F1A  EF91  F00F         	goto	u3790
  5633  001F1E                     u3791:
  5634  001F1E  EFAC  F00F         	goto	l413
  5635  001F22                     u3790:
  5636  001F22  A480               	btfss	128,2,c	;volatile
  5637  001F24  EF96  F00F         	goto	u3801
  5638  001F28  EF98  F00F         	goto	u3800
  5639  001F2C                     u3801:
  5640  001F2C  EFAC  F00F         	goto	l413
  5641  001F30                     u3800:
  5642  001F30                     
  5643                           ;hachiko_0.c: 745:         moverMotor('e','t',velTest);
  5644  001F30  0E74               	movlw	116
  5645  001F32  6E08               	movwf	moverMotor@sentido^0,c
  5646  001F34  0E00               	movlw	0
  5647  001F36  6E0A               	movwf	(moverMotor@velocidade+1)^0,c
  5648  001F38  0E46               	movlw	70
  5649  001F3A  6E09               	movwf	moverMotor@velocidade^0,c
  5650  001F3C  0E65               	movlw	101
  5651  001F3E  EC0C  F012         	call	_moverMotor
  5652                           
  5653                           ;hachiko_0.c: 746:         moverMotor('d','f',velTest);
  5654  001F42  0E66               	movlw	102
  5655  001F44  6E08               	movwf	moverMotor@sentido^0,c
  5656  001F46  0E00               	movlw	0
  5657  001F48  6E0A               	movwf	(moverMotor@velocidade+1)^0,c
  5658  001F4A  0E46               	movlw	70
  5659  001F4C  6E09               	movwf	moverMotor@velocidade^0,c
  5660  001F4E  0E64               	movlw	100
  5661  001F50  EC0C  F012         	call	_moverMotor
  5662                           
  5663                           ;hachiko_0.c: 747:     }
  5664  001F54  EFF5  F00F         	goto	l417
  5665  001F58                     l413:
  5666  001F58  A280               	btfss	128,1,c	;volatile
  5667  001F5A  EFB1  F00F         	goto	u3811
  5668  001F5E  EFB3  F00F         	goto	u3810
  5669  001F62                     u3811:
  5670  001F62  EFE3  F00F         	goto	l2420
  5671  001F66                     u3810:
  5672  001F66  A880               	btfss	128,4,c	;volatile
  5673  001F68  EFB8  F00F         	goto	u3821
  5674  001F6C  EFBA  F00F         	goto	u3820
  5675  001F70                     u3821:
  5676  001F70  EFE3  F00F         	goto	l2420
  5677  001F74                     u3820:
  5678  001F74  A082               	btfss	130,0,c	;volatile
  5679  001F76  EFBF  F00F         	goto	u3831
  5680  001F7A  EFC1  F00F         	goto	u3830
  5681  001F7E                     u3831:
  5682  001F7E  EFE3  F00F         	goto	l2420
  5683  001F82                     u3830:
  5684  001F82  A680               	btfss	128,3,c	;volatile
  5685  001F84  EFC6  F00F         	goto	u3841
  5686  001F88  EFC8  F00F         	goto	u3840
  5687  001F8C                     u3841:
  5688  001F8C  EFE3  F00F         	goto	l2420
  5689  001F90                     u3840:
  5690  001F90  B480               	btfsc	128,2,c	;volatile
  5691  001F92  EFCD  F00F         	goto	u3851
  5692  001F96  EFCF  F00F         	goto	u3850
  5693  001F9A                     u3851:
  5694  001F9A  EFE3  F00F         	goto	l2420
  5695  001F9E                     u3850:
  5696  001F9E                     
  5697                           ;hachiko_0.c: 749:         moverMotor('e','f',velTest);
  5698  001F9E  0E66               	movlw	102
  5699  001FA0  6E08               	movwf	moverMotor@sentido^0,c
  5700  001FA2  0E00               	movlw	0
  5701  001FA4  6E0A               	movwf	(moverMotor@velocidade+1)^0,c
  5702  001FA6  0E46               	movlw	70
  5703  001FA8  6E09               	movwf	moverMotor@velocidade^0,c
  5704  001FAA  0E65               	movlw	101
  5705  001FAC  EC0C  F012         	call	_moverMotor
  5706                           
  5707                           ;hachiko_0.c: 750:         moverMotor('d','t',velTest);
  5708  001FB0  0E74               	movlw	116
  5709  001FB2  6E08               	movwf	moverMotor@sentido^0,c
  5710  001FB4  0E00               	movlw	0
  5711  001FB6  6E0A               	movwf	(moverMotor@velocidade+1)^0,c
  5712  001FB8  0E46               	movlw	70
  5713  001FBA  6E09               	movwf	moverMotor@velocidade^0,c
  5714  001FBC  0E64               	movlw	100
  5715  001FBE  EC0C  F012         	call	_moverMotor
  5716                           
  5717                           ;hachiko_0.c: 751:     }
  5718  001FC2  EFF5  F00F         	goto	l417
  5719  001FC6                     l2420:
  5720                           
  5721                           ;hachiko_0.c: 753:         moverMotor('d','f',100);
  5722  001FC6  0E66               	movlw	102
  5723  001FC8  6E08               	movwf	moverMotor@sentido^0,c
  5724  001FCA  0E00               	movlw	0
  5725  001FCC  6E0A               	movwf	(moverMotor@velocidade+1)^0,c
  5726  001FCE  0E64               	movlw	100
  5727  001FD0  6E09               	movwf	moverMotor@velocidade^0,c
  5728  001FD2  0E64               	movlw	100
  5729  001FD4  EC0C  F012         	call	_moverMotor
  5730                           
  5731                           ;hachiko_0.c: 754:         moverMotor('e','f',100);
  5732  001FD8  0E66               	movlw	102
  5733  001FDA  6E08               	movwf	moverMotor@sentido^0,c
  5734  001FDC  0E00               	movlw	0
  5735  001FDE  6E0A               	movwf	(moverMotor@velocidade+1)^0,c
  5736  001FE0  0E64               	movlw	100
  5737  001FE2  6E09               	movwf	moverMotor@velocidade^0,c
  5738  001FE4  0E65               	movlw	101
  5739  001FE6  EC0C  F012         	call	_moverMotor
  5740  001FEA                     l417:
  5741  001FEA  0012               	return		;funcret
  5742  001FEC                     __end_of_testarDistancia:
  5743                           	callstack 0
  5744                           
  5745 ;; *************** function _moverMotor *****************
  5746 ;; Defined at:
  5747 ;;		line 664 in file "hachiko_0.c"
  5748 ;; Parameters:    Size  Location     Type
  5749 ;;  lado            1    wreg     unsigned char 
  5750 ;;  sentido         1    7[COMRAM] unsigned char 
  5751 ;;  velocidade      2    8[COMRAM] unsigned int 
  5752 ;; Auto vars:     Size  Location     Type
  5753 ;;  lado            1   10[COMRAM] unsigned char 
  5754 ;; Return value:  Size  Location     Type
  5755 ;;                  1    wreg      void 
  5756 ;; Registers used:
  5757 ;;		wreg, status,2, status,0, prodl, prodh, cstack
  5758 ;; Tracked objects:
  5759 ;;		On entry : 0/0
  5760 ;;		On exit  : 0/0
  5761 ;;		Unchanged: 0/0
  5762 ;; Data sizes:     COMRAM   BANK0   BANK1   BANK2
  5763 ;;      Params:         3       0       0       0
  5764 ;;      Locals:         1       0       0       0
  5765 ;;      Temps:          0       0       0       0
  5766 ;;      Totals:         4       0       0       0
  5767 ;;Total ram usage:        4 bytes
  5768 ;; Hardware stack levels used: 1
  5769 ;; Hardware stack levels required when called: 3
  5770 ;; This function calls:
  5771 ;;		___wmul
  5772 ;; This function is called by:
  5773 ;;		_main
  5774 ;;		_testarDistancia
  5775 ;;		_linha
  5776 ;;		_testarLinha
  5777 ;;		_estrela
  5778 ;;		_testarMotor
  5779 ;;		_arco
  5780 ;;		_dibre
  5781 ;; This function uses a non-reentrant model
  5782 ;;
  5783                           
  5784                           	psect	text13
  5785  002418                     __ptext13:
  5786                           	callstack 0
  5787  002418                     _moverMotor:
  5788                           	callstack 26
  5789                           
  5790                           ;incstack = 0
  5791                           ;moverMotor@lado stored from wreg
  5792  002418  6E0B               	movwf	moverMotor@lado^0,c
  5793  00241A                     
  5794                           ;hachiko_0.c: 665:     velocidade *= 600/100;
  5795  00241A  C009  F002         	movff	moverMotor@velocidade,___wmul@multiplier
  5796  00241E  C00A  F003         	movff	moverMotor@velocidade+1,___wmul@multiplier+1
  5797  002422  0E00               	movlw	0
  5798  002424  6E05               	movwf	(___wmul@multiplicand+1)^0,c
  5799  002426  0E06               	movlw	6
  5800  002428  6E04               	movwf	___wmul@multiplicand^0,c
  5801  00242A  ECDF  F012         	call	___wmul	;wreg free
  5802  00242E  C002  F009         	movff	?___wmul,moverMotor@velocidade
  5803  002432  C003  F00A         	movff	?___wmul+1,moverMotor@velocidade+1
  5804  002436                     
  5805                           ;hachiko_0.c: 666:     if(lado == 'e'){
  5806  002436  0E65               	movlw	101
  5807  002438  180B               	xorwf	moverMotor@lado^0,w,c
  5808  00243A  A4D8               	btfss	status,2,c
  5809  00243C  EF22  F012         	goto	u3351
  5810  002440  EF24  F012         	goto	u3350
  5811  002444                     u3351:
  5812  002444  EF4B  F012         	goto	l2310
  5813  002448                     u3350:
  5814  002448                     
  5815                           ;hachiko_0.c: 667:         PORTBbits.RB6 = 1;
  5816  002448  8C81               	bsf	129,6,c	;volatile
  5817  00244A                     
  5818                           ;hachiko_0.c: 668:         if(sentido == 'f'){
  5819  00244A  0E66               	movlw	102
  5820  00244C  1808               	xorwf	moverMotor@sentido^0,w,c
  5821  00244E  A4D8               	btfss	status,2,c
  5822  002450  EF2C  F012         	goto	u3361
  5823  002454  EF2E  F012         	goto	u3360
  5824  002458                     u3361:
  5825  002458  EF38  F012         	goto	l2304
  5826  00245C                     u3360:
  5827  00245C                     
  5828                           ;hachiko_0.c: 669:             PDC1L = velocidade & 0xFF;
  5829  00245C  C009  FF77         	movff	moverMotor@velocidade,3959	;volatile
  5830  002460                     
  5831                           ;hachiko_0.c: 670:             PDC1H = (velocidade >> 8) & 0xFF;
  5832  002460  500A               	movf	(moverMotor@velocidade+1)^0,w,c
  5833  002462  6E76               	movwf	118,c	;volatile
  5834                           
  5835                           ;hachiko_0.c: 671:             PDC2L = 0x00;
  5836  002464  0E00               	movlw	0
  5837  002466  6E75               	movwf	117,c	;volatile
  5838                           
  5839                           ;hachiko_0.c: 672:             PDC2H = 0x00;
  5840  002468  0E00               	movlw	0
  5841  00246A  6E74               	movwf	116,c	;volatile
  5842                           
  5843                           ;hachiko_0.c: 673:         }
  5844  00246C  EF79  F012         	goto	l393
  5845  002470                     l2304:
  5846  002470  0E74               	movlw	116
  5847  002472  1808               	xorwf	moverMotor@sentido^0,w,c
  5848  002474  A4D8               	btfss	status,2,c
  5849  002476  EF3F  F012         	goto	u3371
  5850  00247A  EF41  F012         	goto	u3370
  5851  00247E                     u3371:
  5852  00247E  EF79  F012         	goto	l393
  5853  002482                     u3370:
  5854  002482                     
  5855                           ;hachiko_0.c: 676:             PDC1L = 0x00;
  5856  002482  0E00               	movlw	0
  5857  002484  6E77               	movwf	119,c	;volatile
  5858                           
  5859                           ;hachiko_0.c: 677:             PDC1H = 0x00;
  5860  002486  0E00               	movlw	0
  5861  002488  6E76               	movwf	118,c	;volatile
  5862  00248A                     
  5863                           ;hachiko_0.c: 678:             PDC2L = velocidade & 0xFF;
  5864  00248A  C009  FF75         	movff	moverMotor@velocidade,3957	;volatile
  5865                           
  5866                           ;hachiko_0.c: 679:             PDC2H = (velocidade >> 8) & 0xFF;
  5867  00248E  500A               	movf	(moverMotor@velocidade+1)^0,w,c
  5868  002490  6E74               	movwf	116,c	;volatile
  5869  002492  EF79  F012         	goto	l393
  5870  002496                     l2310:
  5871  002496  0E64               	movlw	100
  5872  002498  180B               	xorwf	moverMotor@lado^0,w,c
  5873  00249A  A4D8               	btfss	status,2,c
  5874  00249C  EF52  F012         	goto	u3381
  5875  0024A0  EF54  F012         	goto	u3380
  5876  0024A4                     u3381:
  5877  0024A4  EF79  F012         	goto	l393
  5878  0024A8                     u3380:
  5879  0024A8                     
  5880                           ;hachiko_0.c: 683:         PORTBbits.RB7 = 1;
  5881  0024A8  8E81               	bsf	129,7,c	;volatile
  5882  0024AA                     
  5883                           ;hachiko_0.c: 684:         if(sentido == 'f'){
  5884  0024AA  0E66               	movlw	102
  5885  0024AC  1808               	xorwf	moverMotor@sentido^0,w,c
  5886  0024AE  A4D8               	btfss	status,2,c
  5887  0024B0  EF5C  F012         	goto	u3391
  5888  0024B4  EF5E  F012         	goto	u3390
  5889  0024B8                     u3391:
  5890  0024B8  EF68  F012         	goto	l2320
  5891  0024BC                     u3390:
  5892  0024BC                     
  5893                           ;hachiko_0.c: 685:             PDC0L = velocidade & 0b11111111;
  5894  0024BC  C009  FF79         	movff	moverMotor@velocidade,3961	;volatile
  5895  0024C0                     
  5896                           ;hachiko_0.c: 686:             PDC0H = (velocidade >> 8) & 0b11111111;
  5897  0024C0  500A               	movf	(moverMotor@velocidade+1)^0,w,c
  5898  0024C2  6E78               	movwf	120,c	;volatile
  5899                           
  5900                           ;hachiko_0.c: 687:             PDC3L = 0;
  5901  0024C4  0E00               	movlw	0
  5902  0024C6  6E73               	movwf	115,c	;volatile
  5903                           
  5904                           ;hachiko_0.c: 688:             PDC3H = 0;
  5905  0024C8  0E00               	movlw	0
  5906  0024CA  6E72               	movwf	114,c	;volatile
  5907                           
  5908                           ;hachiko_0.c: 689:         }
  5909  0024CC  EF79  F012         	goto	l393
  5910  0024D0                     l2320:
  5911  0024D0  0E74               	movlw	116
  5912  0024D2  1808               	xorwf	moverMotor@sentido^0,w,c
  5913  0024D4  A4D8               	btfss	status,2,c
  5914  0024D6  EF6F  F012         	goto	u3401
  5915  0024DA  EF71  F012         	goto	u3400
  5916  0024DE                     u3401:
  5917  0024DE  EF79  F012         	goto	l393
  5918  0024E2                     u3400:
  5919  0024E2                     
  5920                           ;hachiko_0.c: 691:             PDC3L = velocidade & 0b11111111;
  5921  0024E2  C009  FF73         	movff	moverMotor@velocidade,3955	;volatile
  5922  0024E6                     
  5923                           ;hachiko_0.c: 692:             PDC3H = (velocidade >> 8) & 0b11111111;
  5924  0024E6  500A               	movf	(moverMotor@velocidade+1)^0,w,c
  5925  0024E8  6E72               	movwf	114,c	;volatile
  5926                           
  5927                           ;hachiko_0.c: 693:             PDC0L = 0;
  5928  0024EA  0E00               	movlw	0
  5929  0024EC  6E79               	movwf	121,c	;volatile
  5930                           
  5931                           ;hachiko_0.c: 694:             PDC0H = 0;
  5932  0024EE  0E00               	movlw	0
  5933  0024F0  6E78               	movwf	120,c	;volatile
  5934  0024F2                     l393:
  5935  0024F2  0012               	return		;funcret
  5936  0024F4                     __end_of_moverMotor:
  5937                           	callstack 0
  5938                           
  5939 ;; *************** function ___wmul *****************
  5940 ;; Defined at:
  5941 ;;		line 15 in file "C:\Program Files\Microchip\xc8\v2.32\pic\sources\c99\common\Umul16.c"
  5942 ;; Parameters:    Size  Location     Type
  5943 ;;  multiplier      2    1[COMRAM] unsigned int 
  5944 ;;  multiplicand    2    3[COMRAM] unsigned int 
  5945 ;; Auto vars:     Size  Location     Type
  5946 ;;  product         2    5[COMRAM] unsigned int 
  5947 ;; Return value:  Size  Location     Type
  5948 ;;                  2    1[COMRAM] unsigned int 
  5949 ;; Registers used:
  5950 ;;		wreg, status,2, status,0, prodl, prodh
  5951 ;; Tracked objects:
  5952 ;;		On entry : 0/0
  5953 ;;		On exit  : 0/0
  5954 ;;		Unchanged: 0/0
  5955 ;; Data sizes:     COMRAM   BANK0   BANK1   BANK2
  5956 ;;      Params:         4       0       0       0
  5957 ;;      Locals:         2       0       0       0
  5958 ;;      Temps:          0       0       0       0
  5959 ;;      Totals:         6       0       0       0
  5960 ;;Total ram usage:        6 bytes
  5961 ;; Hardware stack levels used: 1
  5962 ;; Hardware stack levels required when called: 2
  5963 ;; This function calls:
  5964 ;;		Nothing
  5965 ;; This function is called by:
  5966 ;;		_moverMotor
  5967 ;; This function uses a non-reentrant model
  5968 ;;
  5969                           
  5970                           	psect	text14
  5971  0025BE                     __ptext14:
  5972                           	callstack 0
  5973  0025BE                     ___wmul:
  5974                           	callstack 26
  5975  0025BE  5002               	movf	___wmul@multiplier^0,w,c
  5976  0025C0  0204               	mulwf	___wmul@multiplicand^0,c
  5977  0025C2  CFF3 F006          	movff	prodl,___wmul@product
  5978  0025C6  CFF4 F007          	movff	prodh,___wmul@product+1
  5979  0025CA  5002               	movf	___wmul@multiplier^0,w,c
  5980  0025CC  0205               	mulwf	(___wmul@multiplicand+1)^0,c
  5981  0025CE  50F3               	movf	243,w,c
  5982  0025D0  2607               	addwf	(___wmul@product+1)^0,f,c
  5983  0025D2  5003               	movf	(___wmul@multiplier+1)^0,w,c
  5984  0025D4  0204               	mulwf	___wmul@multiplicand^0,c
  5985  0025D6  50F3               	movf	243,w,c
  5986  0025D8  2607               	addwf	(___wmul@product+1)^0,f,c
  5987  0025DA  C006  F002         	movff	___wmul@product,?___wmul
  5988  0025DE  C007  F003         	movff	___wmul@product+1,?___wmul+1
  5989  0025E2  0012               	return		;funcret
  5990  0025E4                     __end_of___wmul:
  5991                           	callstack 0
  5992                           
  5993 ;; *************** function _pararMotor *****************
  5994 ;; Defined at:
  5995 ;;		line 699 in file "hachiko_0.c"
  5996 ;; Parameters:    Size  Location     Type
  5997 ;;		None
  5998 ;; Auto vars:     Size  Location     Type
  5999 ;;		None
  6000 ;; Return value:  Size  Location     Type
  6001 ;;                  1    wreg      void 
  6002 ;; Registers used:
  6003 ;;		wreg, status,2
  6004 ;; Tracked objects:
  6005 ;;		On entry : 0/0
  6006 ;;		On exit  : 0/0
  6007 ;;		Unchanged: 0/0
  6008 ;; Data sizes:     COMRAM   BANK0   BANK1   BANK2
  6009 ;;      Params:         0       0       0       0
  6010 ;;      Locals:         0       0       0       0
  6011 ;;      Temps:          0       0       0       0
  6012 ;;      Totals:         0       0       0       0
  6013 ;;Total ram usage:        0 bytes
  6014 ;; Hardware stack levels used: 1
  6015 ;; Hardware stack levels required when called: 2
  6016 ;; This function calls:
  6017 ;;		Nothing
  6018 ;; This function is called by:
  6019 ;;		_main
  6020 ;;		_linha
  6021 ;;		_testarLinha
  6022 ;;		_estrela
  6023 ;;		_testarMotor
  6024 ;; This function uses a non-reentrant model
  6025 ;;
  6026                           
  6027                           	psect	text15
  6028  0025E4                     __ptext15:
  6029                           	callstack 0
  6030  0025E4                     _pararMotor:
  6031                           	callstack 27
  6032  0025E4                     
  6033                           ;hachiko_0.c: 702:     PDC0H = 0x00;
  6034  0025E4  0E00               	movlw	0
  6035  0025E6  6E78               	movwf	120,c	;volatile
  6036                           
  6037                           ;hachiko_0.c: 703:     PDC0L = 0x00;
  6038  0025E8  0E00               	movlw	0
  6039  0025EA  6E79               	movwf	121,c	;volatile
  6040                           
  6041                           ;hachiko_0.c: 704:     PDC1H = 0x00;
  6042  0025EC  0E00               	movlw	0
  6043  0025EE  6E76               	movwf	118,c	;volatile
  6044                           
  6045                           ;hachiko_0.c: 705:     PDC1L = 0x00;
  6046  0025F0  0E00               	movlw	0
  6047  0025F2  6E77               	movwf	119,c	;volatile
  6048                           
  6049                           ;hachiko_0.c: 706:     PDC2H = 0x00;
  6050  0025F4  0E00               	movlw	0
  6051  0025F6  6E74               	movwf	116,c	;volatile
  6052                           
  6053                           ;hachiko_0.c: 707:     PDC2L = 0x00;
  6054  0025F8  0E00               	movlw	0
  6055  0025FA  6E75               	movwf	117,c	;volatile
  6056                           
  6057                           ;hachiko_0.c: 708:     PDC3H = 0x00;
  6058  0025FC  0E00               	movlw	0
  6059  0025FE  6E72               	movwf	114,c	;volatile
  6060                           
  6061                           ;hachiko_0.c: 709:     PDC3L = 0x00;
  6062  002600  0E00               	movlw	0
  6063  002602  6E73               	movwf	115,c	;volatile
  6064  002604  0012               	return		;funcret
  6065  002606                     __end_of_pararMotor:
  6066                           	callstack 0
  6067                           
  6068 ;; *************** function _ISR *****************
  6069 ;; Defined at:
  6070 ;;		line 44 in file "hachiko_0.c"
  6071 ;; Parameters:    Size  Location     Type
  6072 ;;		None
  6073 ;; Auto vars:     Size  Location     Type
  6074 ;;		None
  6075 ;; Return value:  Size  Location     Type
  6076 ;;                  1    wreg      void 
  6077 ;; Registers used:
  6078 ;;		wreg, status,2, status,0, cstack
  6079 ;; Tracked objects:
  6080 ;;		On entry : 0/0
  6081 ;;		On exit  : 0/0
  6082 ;;		Unchanged: 0/0
  6083 ;; Data sizes:     COMRAM   BANK0   BANK1   BANK2
  6084 ;;      Params:         0       0       0       0
  6085 ;;      Locals:         0       0       0       0
  6086 ;;      Temps:          0       0       0       0
  6087 ;;      Totals:         0       0       0       0
  6088 ;;Total ram usage:        0 bytes
  6089 ;; Hardware stack levels used: 1
  6090 ;; Hardware stack levels required when called: 1
  6091 ;; This function calls:
  6092 ;;		_readUSART
  6093 ;;		i2_pararMotor
  6094 ;; This function is called by:
  6095 ;;		Interrupt level 2
  6096 ;; This function uses a non-reentrant model
  6097 ;;
  6098                           
  6099                           	psect	intcode
  6100  000008                     __pintcode:
  6101                           	callstack 0
  6102  000008                     _ISR:
  6103                           	callstack 25
  6104                           
  6105                           ;incstack = 0
  6106  000008  8222               	bsf	int$flags,1,c	;set compiler interrupt flag (level 2)
  6107  00000A                     
  6108                           ;hachiko_0.c: 45:     if(PIR1bits.RCIF){
  6109  00000A  AA9E               	btfss	158,5,c	;volatile
  6110  00000C  EF0A  F000         	goto	i2u76_41
  6111  000010  EF0C  F000         	goto	i2u76_40
  6112  000014                     i2u76_41:
  6113  000014  EF49  F001         	goto	i2l212
  6114  000018                     i2u76_40:
  6115  000018                     
  6116                           ;hachiko_0.c: 46:         PIR1bits.RCIF = 0x00;
  6117  000018  9A9E               	bcf	158,5,c	;volatile
  6118                           
  6119                           ;hachiko_0.c: 47:         if(RCSTAbits.FERR || RCSTAbits.OERR){
  6120  00001A  B4AB               	btfsc	171,2,c	;volatile
  6121  00001C  EF12  F000         	goto	i2u77_41
  6122  000020  EF14  F000         	goto	i2u77_40
  6123  000024                     i2u77_41:
  6124  000024  EF1B  F000         	goto	i2l191
  6125  000028                     i2u77_40:
  6126  000028  A2AB               	btfss	171,1,c	;volatile
  6127  00002A  EF19  F000         	goto	i2u78_41
  6128  00002E  EF1B  F000         	goto	i2u78_40
  6129  000032                     i2u78_41:
  6130  000032  EF1D  F000         	goto	i2l1472
  6131  000036                     i2u78_40:
  6132  000036                     i2l191:
  6133                           
  6134                           ;hachiko_0.c: 48:             RCSTAbits.CREN = 0x00;
  6135  000036  98AB               	bcf	171,4,c	;volatile
  6136                           
  6137                           ;hachiko_0.c: 49:             RCSTAbits.CREN = 0x01;
  6138  000038  88AB               	bsf	171,4,c	;volatile
  6139  00003A                     i2l1472:
  6140                           
  6141                           ;hachiko_0.c: 52:         if(readUSART() == 'L') acao = "linha";
  6142  00003A  EC4C  F013         	call	_readUSART	;wreg free
  6143  00003E  0A4C               	xorlw	76
  6144  000040  A4D8               	btfss	status,2,c
  6145  000042  EF25  F000         	goto	i2u79_41
  6146  000046  EF27  F000         	goto	i2u79_40
  6147  00004A                     i2u79_41:
  6148  00004A  EF2B  F000         	goto	i2l1476
  6149  00004E                     i2u79_40:
  6150  00004E  0E4C               	movlw	low STR_1
  6151  000050  6E1C               	movwf	_acao^0,c
  6152  000052  0E03               	movlw	high STR_1
  6153  000054  6E1D               	movwf	(_acao+1)^0,c
  6154  000056                     i2l1476:
  6155                           
  6156                           ;hachiko_0.c: 54:         if(readUSART() == 'D') acao = "distancia";
  6157  000056  EC4C  F013         	call	_readUSART	;wreg free
  6158  00005A  0A44               	xorlw	68
  6159  00005C  A4D8               	btfss	status,2,c
  6160  00005E  EF33  F000         	goto	i2u80_41
  6161  000062  EF35  F000         	goto	i2u80_40
  6162  000066                     i2u80_41:
  6163  000066  EF39  F000         	goto	i2l1480
  6164  00006A                     i2u80_40:
  6165  00006A  0E01               	movlw	low STR_2
  6166  00006C  6E1C               	movwf	_acao^0,c
  6167  00006E  0E03               	movlw	high STR_2
  6168  000070  6E1D               	movwf	(_acao+1)^0,c
  6169  000072                     i2l1480:
  6170                           
  6171                           ;hachiko_0.c: 56:         if(readUSART() == 'T') {
  6172  000072  EC4C  F013         	call	_readUSART	;wreg free
  6173  000076  0A54               	xorlw	84
  6174  000078  A4D8               	btfss	status,2,c
  6175  00007A  EF41  F000         	goto	i2u81_41
  6176  00007E  EF43  F000         	goto	i2u81_40
  6177  000082                     i2u81_41:
  6178  000082  EF4B  F000         	goto	i2l1486
  6179  000086                     i2u81_40:
  6180  000086                     
  6181                           ;hachiko_0.c: 57:             ini = 1;
  6182  000086  0E00               	movlw	0
  6183  000088  6E19               	movwf	(_ini+1)^0,c
  6184  00008A  0E01               	movlw	1
  6185  00008C  6E18               	movwf	_ini^0,c
  6186  00008E                     
  6187                           ;hachiko_0.c: 58:             acao = "toquinho";
  6188  00008E  0E1D               	movlw	low STR_3
  6189  000090  6E1C               	movwf	_acao^0,c
  6190  000092  0E03               	movlw	high STR_3
  6191  000094  6E1D               	movwf	(_acao+1)^0,c
  6192  000096                     i2l1486:
  6193                           
  6194                           ;hachiko_0.c: 61:         if(readUSART() == 'A') {
  6195  000096  EC4C  F013         	call	_readUSART	;wreg free
  6196  00009A  0A41               	xorlw	65
  6197  00009C  A4D8               	btfss	status,2,c
  6198  00009E  EF53  F000         	goto	i2u82_41
  6199  0000A2  EF55  F000         	goto	i2u82_40
  6200  0000A6                     i2u82_41:
  6201  0000A6  EF5D  F000         	goto	i2l1492
  6202  0000AA                     i2u82_40:
  6203  0000AA                     
  6204                           ;hachiko_0.c: 62:             ini = 1;
  6205  0000AA  0E00               	movlw	0
  6206  0000AC  6E19               	movwf	(_ini+1)^0,c
  6207  0000AE  0E01               	movlw	1
  6208  0000B0  6E18               	movwf	_ini^0,c
  6209  0000B2                     
  6210                           ;hachiko_0.c: 63:             acao = "arco";
  6211  0000B2  0E64               	movlw	low STR_4
  6212  0000B4  6E1C               	movwf	_acao^0,c
  6213  0000B6  0E03               	movlw	high STR_4
  6214  0000B8  6E1D               	movwf	(_acao+1)^0,c
  6215  0000BA                     i2l1492:
  6216                           
  6217                           ;hachiko_0.c: 65:         if(readUSART() == 'F') {
  6218  0000BA  EC4C  F013         	call	_readUSART	;wreg free
  6219  0000BE  0A46               	xorlw	70
  6220  0000C0  A4D8               	btfss	status,2,c
  6221  0000C2  EF65  F000         	goto	i2u83_41
  6222  0000C6  EF67  F000         	goto	i2u83_40
  6223  0000CA                     i2u83_41:
  6224  0000CA  EF6F  F000         	goto	i2l1498
  6225  0000CE                     i2u83_40:
  6226  0000CE                     
  6227                           ;hachiko_0.c: 66:             ini = 1;
  6228  0000CE  0E00               	movlw	0
  6229  0000D0  6E19               	movwf	(_ini+1)^0,c
  6230  0000D2  0E01               	movlw	1
  6231  0000D4  6E18               	movwf	_ini^0,c
  6232  0000D6                     
  6233                           ;hachiko_0.c: 67:             acao = "fEstrela";
  6234  0000D6  0E0B               	movlw	low STR_5
  6235  0000D8  6E1C               	movwf	_acao^0,c
  6236  0000DA  0E03               	movlw	high STR_5
  6237  0000DC  6E1D               	movwf	(_acao+1)^0,c
  6238  0000DE                     i2l1498:
  6239                           
  6240                           ;hachiko_0.c: 70:         if(readUSART() == 'E') {
  6241  0000DE  EC4C  F013         	call	_readUSART	;wreg free
  6242  0000E2  0A45               	xorlw	69
  6243  0000E4  A4D8               	btfss	status,2,c
  6244  0000E6  EF77  F000         	goto	i2u84_41
  6245  0000EA  EF79  F000         	goto	i2u84_40
  6246  0000EE                     i2u84_41:
  6247  0000EE  EF81  F000         	goto	i2l1504
  6248  0000F2                     i2u84_40:
  6249  0000F2                     
  6250                           ;hachiko_0.c: 71:             ini = 1;
  6251  0000F2  0E00               	movlw	0
  6252  0000F4  6E19               	movwf	(_ini+1)^0,c
  6253  0000F6  0E01               	movlw	1
  6254  0000F8  6E18               	movwf	_ini^0,c
  6255  0000FA                     
  6256                           ;hachiko_0.c: 72:             acao = "estrela";
  6257  0000FA  0E26               	movlw	low STR_6
  6258  0000FC  6E1C               	movwf	_acao^0,c
  6259  0000FE  0E03               	movlw	high STR_6
  6260  000100  6E1D               	movwf	(_acao+1)^0,c
  6261  000102                     i2l1504:
  6262                           
  6263                           ;hachiko_0.c: 75:         if(readUSART() == 'Z') acao = "zigzag";
  6264  000102  EC4C  F013         	call	_readUSART	;wreg free
  6265  000106  0A5A               	xorlw	90
  6266  000108  A4D8               	btfss	status,2,c
  6267  00010A  EF89  F000         	goto	i2u85_41
  6268  00010E  EF8B  F000         	goto	i2u85_40
  6269  000112                     i2u85_41:
  6270  000112  EF8F  F000         	goto	i2l1508
  6271  000116                     i2u85_40:
  6272  000116  0E45               	movlw	low STR_7
  6273  000118  6E1C               	movwf	_acao^0,c
  6274  00011A  0E03               	movlw	high STR_7
  6275  00011C  6E1D               	movwf	(_acao+1)^0,c
  6276  00011E                     i2l1508:
  6277                           
  6278                           ;hachiko_0.c: 77:         if(readUSART() == 'R') acao = "teste";
  6279  00011E  EC4C  F013         	call	_readUSART	;wreg free
  6280  000122  0A52               	xorlw	82
  6281  000124  A4D8               	btfss	status,2,c
  6282  000126  EF97  F000         	goto	i2u86_41
  6283  00012A  EF99  F000         	goto	i2u86_40
  6284  00012E                     i2u86_41:
  6285  00012E  EF9D  F000         	goto	i2l1512
  6286  000132                     i2u86_40:
  6287  000132  0E52               	movlw	low STR_8
  6288  000134  6E1C               	movwf	_acao^0,c
  6289  000136  0E03               	movlw	high STR_8
  6290  000138  6E1D               	movwf	(_acao+1)^0,c
  6291  00013A                     i2l1512:
  6292                           
  6293                           ;hachiko_0.c: 79:         if(readUSART() == 'X') acao = "gd";
  6294  00013A  EC4C  F013         	call	_readUSART	;wreg free
  6295  00013E  0A58               	xorlw	88
  6296  000140  A4D8               	btfss	status,2,c
  6297  000142  EFA5  F000         	goto	i2u87_41
  6298  000146  EFA7  F000         	goto	i2u87_40
  6299  00014A                     i2u87_41:
  6300  00014A  EFAB  F000         	goto	i2l1516
  6301  00014E                     i2u87_40:
  6302  00014E  0E6E               	movlw	low STR_9
  6303  000150  6E1C               	movwf	_acao^0,c
  6304  000152  0E03               	movlw	high STR_9
  6305  000154  6E1D               	movwf	(_acao+1)^0,c
  6306  000156                     i2l1516:
  6307                           
  6308                           ;hachiko_0.c: 81:         if(readUSART() == 'Y') acao = "ge";
  6309  000156  EC4C  F013         	call	_readUSART	;wreg free
  6310  00015A  0A59               	xorlw	89
  6311  00015C  A4D8               	btfss	status,2,c
  6312  00015E  EFB3  F000         	goto	i2u88_41
  6313  000162  EFB5  F000         	goto	i2u88_40
  6314  000166                     i2u88_41:
  6315  000166  EFB9  F000         	goto	i2l1520
  6316  00016A                     i2u88_40:
  6317  00016A  0E71               	movlw	low STR_10
  6318  00016C  6E1C               	movwf	_acao^0,c
  6319  00016E  0E03               	movlw	high STR_10
  6320  000170  6E1D               	movwf	(_acao+1)^0,c
  6321  000172                     i2l1520:
  6322                           
  6323                           ;hachiko_0.c: 83:         if(readUSART() == 'd') acao = "direito";
  6324  000172  EC4C  F013         	call	_readUSART	;wreg free
  6325  000176  0A64               	xorlw	100
  6326  000178  A4D8               	btfss	status,2,c
  6327  00017A  EFC1  F000         	goto	i2u89_41
  6328  00017E  EFC3  F000         	goto	i2u89_40
  6329  000182                     i2u89_41:
  6330  000182  EFC7  F000         	goto	i2l1524
  6331  000186                     i2u89_40:
  6332  000186  0E2E               	movlw	low STR_11
  6333  000188  6E1C               	movwf	_acao^0,c
  6334  00018A  0E03               	movlw	high STR_11
  6335  00018C  6E1D               	movwf	(_acao+1)^0,c
  6336  00018E                     i2l1524:
  6337                           
  6338                           ;hachiko_0.c: 85:         if(readUSART() == 'e') acao = "esquerdo";
  6339  00018E  EC4C  F013         	call	_readUSART	;wreg free
  6340  000192  0A65               	xorlw	101
  6341  000194  A4D8               	btfss	status,2,c
  6342  000196  EFCF  F000         	goto	i2u90_41
  6343  00019A  EFD1  F000         	goto	i2u90_40
  6344  00019E                     i2u90_41:
  6345  00019E  EFD5  F000         	goto	i2l1528
  6346  0001A2                     i2u90_40:
  6347  0001A2  0E14               	movlw	low STR_12
  6348  0001A4  6E1C               	movwf	_acao^0,c
  6349  0001A6  0E03               	movlw	high STR_12
  6350  0001A8  6E1D               	movwf	(_acao+1)^0,c
  6351  0001AA                     i2l1528:
  6352                           
  6353                           ;hachiko_0.c: 87:         if(readUSART() == 'f') acao = "frente";
  6354  0001AA  EC4C  F013         	call	_readUSART	;wreg free
  6355  0001AE  0A66               	xorlw	102
  6356  0001B0  A4D8               	btfss	status,2,c
  6357  0001B2  EFDD  F000         	goto	i2u91_41
  6358  0001B6  EFDF  F000         	goto	i2u91_40
  6359  0001BA                     i2u91_41:
  6360  0001BA  EFE3  F000         	goto	i2l1532
  6361  0001BE                     i2u91_40:
  6362  0001BE  0E3E               	movlw	low STR_13
  6363  0001C0  6E1C               	movwf	_acao^0,c
  6364  0001C2  0E03               	movlw	high STR_13
  6365  0001C4  6E1D               	movwf	(_acao+1)^0,c
  6366  0001C6                     i2l1532:
  6367                           
  6368                           ;hachiko_0.c: 89:         if(readUSART() == 't') acao = "tras";
  6369  0001C6  EC4C  F013         	call	_readUSART	;wreg free
  6370  0001CA  0A74               	xorlw	116
  6371  0001CC  A4D8               	btfss	status,2,c
  6372  0001CE  EFEB  F000         	goto	i2u92_41
  6373  0001D2  EFED  F000         	goto	i2u92_40
  6374  0001D6                     i2u92_41:
  6375  0001D6  EFF1  F000         	goto	i2l1536
  6376  0001DA                     i2u92_40:
  6377  0001DA  0E69               	movlw	low STR_14
  6378  0001DC  6E1C               	movwf	_acao^0,c
  6379  0001DE  0E03               	movlw	high STR_14
  6380  0001E0  6E1D               	movwf	(_acao+1)^0,c
  6381  0001E2                     i2l1536:
  6382                           
  6383                           ;hachiko_0.c: 91:         if(readUSART() == 'm') acao = "motor";
  6384  0001E2  EC4C  F013         	call	_readUSART	;wreg free
  6385  0001E6  0A6D               	xorlw	109
  6386  0001E8  A4D8               	btfss	status,2,c
  6387  0001EA  EFF9  F000         	goto	i2u93_41
  6388  0001EE  EFFB  F000         	goto	i2u93_40
  6389  0001F2                     i2u93_41:
  6390  0001F2  EFFF  F000         	goto	i2l1540
  6391  0001F6                     i2u93_40:
  6392  0001F6  0E5E               	movlw	low STR_15
  6393  0001F8  6E1C               	movwf	_acao^0,c
  6394  0001FA  0E03               	movlw	high STR_15
  6395  0001FC  6E1D               	movwf	(_acao+1)^0,c
  6396  0001FE                     i2l1540:
  6397                           
  6398                           ;hachiko_0.c: 93:         if(readUSART() == '+'){
  6399  0001FE  EC4C  F013         	call	_readUSART	;wreg free
  6400  000202  0A2B               	xorlw	43
  6401  000204  A4D8               	btfss	status,2,c
  6402  000206  EF07  F001         	goto	i2u94_41
  6403  00020A  EF09  F001         	goto	i2u94_40
  6404  00020E                     i2u94_41:
  6405  00020E  EF1C  F001         	goto	i2l1546
  6406  000212                     i2u94_40:
  6407  000212                     
  6408                           ;hachiko_0.c: 94:             velocidade += 10*600/100;
  6409  000212  0E3C               	movlw	60
  6410  000214  261A               	addwf	_velocidade^0,f,c
  6411  000216  0E00               	movlw	0
  6412  000218  221B               	addwfc	(_velocidade+1)^0,f,c
  6413                           
  6414                           ;hachiko_0.c: 95:             if(velocidade >= 600) velocidade = 10*600/100;
  6415  00021A  0E58               	movlw	88
  6416  00021C  5C1A               	subwf	_velocidade^0,w,c
  6417  00021E  0E02               	movlw	2
  6418  000220  581B               	subwfb	(_velocidade+1)^0,w,c
  6419  000222  A0D8               	btfss	status,0,c
  6420  000224  EF16  F001         	goto	i2u95_41
  6421  000228  EF18  F001         	goto	i2u95_40
  6422  00022C                     i2u95_41:
  6423  00022C  EF1C  F001         	goto	i2l1546
  6424  000230                     i2u95_40:
  6425  000230  0E00               	movlw	0
  6426  000232  6E1B               	movwf	(_velocidade+1)^0,c
  6427  000234  0E3C               	movlw	60
  6428  000236  6E1A               	movwf	_velocidade^0,c
  6429  000238                     i2l1546:
  6430                           
  6431                           ;hachiko_0.c: 98:         if(readUSART() == '-'){
  6432  000238  EC4C  F013         	call	_readUSART	;wreg free
  6433  00023C  0A2D               	xorlw	45
  6434  00023E  A4D8               	btfss	status,2,c
  6435  000240  EF24  F001         	goto	i2u96_41
  6436  000244  EF26  F001         	goto	i2u96_40
  6437  000248                     i2u96_41:
  6438  000248  EF39  F001         	goto	i2l1552
  6439  00024C                     i2u96_40:
  6440  00024C                     
  6441                           ;hachiko_0.c: 99:             velocidade -= 10*600/100;
  6442  00024C  0E3C               	movlw	60
  6443  00024E  5E1A               	subwf	_velocidade^0,f,c
  6444  000250  0E00               	movlw	0
  6445  000252  5A1B               	subwfb	(_velocidade+1)^0,f,c
  6446                           
  6447                           ;hachiko_0.c: 100:             if(velocidade <= 59) velocidade = 50*600/100;
  6448  000254  501B               	movf	(_velocidade+1)^0,w,c
  6449  000256  E107               	bnz	i2u97_41
  6450  000258  0E3C               	movlw	60
  6451  00025A  5C1A               	subwf	_velocidade^0,w,c
  6452  00025C  B0D8               	btfsc	status,0,c
  6453  00025E  EF33  F001         	goto	i2u97_41
  6454  000262  EF35  F001         	goto	i2u97_40
  6455  000266                     i2u97_41:
  6456  000266  EF39  F001         	goto	i2l1552
  6457  00026A                     i2u97_40:
  6458  00026A  0E01               	movlw	1
  6459  00026C  6E1B               	movwf	(_velocidade+1)^0,c
  6460  00026E  0E2C               	movlw	44
  6461  000270  6E1A               	movwf	_velocidade^0,c
  6462  000272                     i2l1552:
  6463                           
  6464                           ;hachiko_0.c: 105:         if(readUSART() == 'P'){
  6465  000272  EC4C  F013         	call	_readUSART	;wreg free
  6466  000276  0A50               	xorlw	80
  6467  000278  A4D8               	btfss	status,2,c
  6468  00027A  EF41  F001         	goto	i2u98_41
  6469  00027E  EF43  F001         	goto	i2u98_40
  6470  000282                     i2u98_41:
  6471  000282  EF49  F001         	goto	i2l212
  6472  000286                     i2u98_40:
  6473  000286                     
  6474                           ;hachiko_0.c: 106:             pararMotor();
  6475  000286  EC03  F013         	call	i2_pararMotor	;wreg free
  6476  00028A                     
  6477                           ;hachiko_0.c: 107:             acao = "parar";
  6478  00028A  0E58               	movlw	low STR_16
  6479  00028C  6E1C               	movwf	_acao^0,c
  6480  00028E  0E03               	movlw	high STR_16
  6481  000290  6E1D               	movwf	(_acao+1)^0,c
  6482  000292                     i2l212:
  6483  000292  9222               	bcf	int$flags,1,c	;clear compiler interrupt flag (level 2)
  6484  000294  0011               	retfie		f
  6485  000296                     __end_of_ISR:
  6486                           	callstack 0
  6487                           
  6488 ;; *************** function i2_pararMotor *****************
  6489 ;; Defined at:
  6490 ;;		line 699 in file "hachiko_0.c"
  6491 ;; Parameters:    Size  Location     Type
  6492 ;;		None
  6493 ;; Auto vars:     Size  Location     Type
  6494 ;;		None
  6495 ;; Return value:  Size  Location     Type
  6496 ;;                  1    wreg      void 
  6497 ;; Registers used:
  6498 ;;		wreg, status,2
  6499 ;; Tracked objects:
  6500 ;;		On entry : 0/0
  6501 ;;		On exit  : 0/0
  6502 ;;		Unchanged: 0/0
  6503 ;; Data sizes:     COMRAM   BANK0   BANK1   BANK2
  6504 ;;      Params:         0       0       0       0
  6505 ;;      Locals:         0       0       0       0
  6506 ;;      Temps:          0       0       0       0
  6507 ;;      Totals:         0       0       0       0
  6508 ;;Total ram usage:        0 bytes
  6509 ;; Hardware stack levels used: 1
  6510 ;; This function calls:
  6511 ;;		Nothing
  6512 ;; This function is called by:
  6513 ;;		_ISR
  6514 ;; This function uses a non-reentrant model
  6515 ;;
  6516                           
  6517                           	psect	text17
  6518  002606                     __ptext17:
  6519                           	callstack 0
  6520  002606                     i2_pararMotor:
  6521                           	callstack 25
  6522  002606                     
  6523                           ;hachiko_0.c: 702:     PDC0H = 0x00;
  6524  002606  0E00               	movlw	0
  6525  002608  6E78               	movwf	120,c	;volatile
  6526                           
  6527                           ;hachiko_0.c: 703:     PDC0L = 0x00;
  6528  00260A  0E00               	movlw	0
  6529  00260C  6E79               	movwf	121,c	;volatile
  6530                           
  6531                           ;hachiko_0.c: 704:     PDC1H = 0x00;
  6532  00260E  0E00               	movlw	0
  6533  002610  6E76               	movwf	118,c	;volatile
  6534                           
  6535                           ;hachiko_0.c: 705:     PDC1L = 0x00;
  6536  002612  0E00               	movlw	0
  6537  002614  6E77               	movwf	119,c	;volatile
  6538                           
  6539                           ;hachiko_0.c: 706:     PDC2H = 0x00;
  6540  002616  0E00               	movlw	0
  6541  002618  6E74               	movwf	116,c	;volatile
  6542                           
  6543                           ;hachiko_0.c: 707:     PDC2L = 0x00;
  6544  00261A  0E00               	movlw	0
  6545  00261C  6E75               	movwf	117,c	;volatile
  6546                           
  6547                           ;hachiko_0.c: 708:     PDC3H = 0x00;
  6548  00261E  0E00               	movlw	0
  6549  002620  6E72               	movwf	114,c	;volatile
  6550                           
  6551                           ;hachiko_0.c: 709:     PDC3L = 0x00;
  6552  002622  0E00               	movlw	0
  6553  002624  6E73               	movwf	115,c	;volatile
  6554  002626  0012               	return		;funcret
  6555  002628                     __end_ofi2_pararMotor:
  6556                           	callstack 0
  6557                           
  6558 ;; *************** function _readUSART *****************
  6559 ;; Defined at:
  6560 ;;		line 44 in file "./bt.h"
  6561 ;; Parameters:    Size  Location     Type
  6562 ;;		None
  6563 ;; Auto vars:     Size  Location     Type
  6564 ;;  ler             1    0[COMRAM] unsigned char 
  6565 ;; Return value:  Size  Location     Type
  6566 ;;                  1    wreg      unsigned char 
  6567 ;; Registers used:
  6568 ;;		wreg, status,2
  6569 ;; Tracked objects:
  6570 ;;		On entry : 0/0
  6571 ;;		On exit  : 0/0
  6572 ;;		Unchanged: 0/0
  6573 ;; Data sizes:     COMRAM   BANK0   BANK1   BANK2
  6574 ;;      Params:         0       0       0       0
  6575 ;;      Locals:         1       0       0       0
  6576 ;;      Temps:          0       0       0       0
  6577 ;;      Totals:         1       0       0       0
  6578 ;;Total ram usage:        1 bytes
  6579 ;; Hardware stack levels used: 1
  6580 ;; This function calls:
  6581 ;;		Nothing
  6582 ;; This function is called by:
  6583 ;;		_ISR
  6584 ;;		_iniciar
  6585 ;; This function uses a non-reentrant model
  6586 ;;
  6587                           
  6588                           	psect	text18
  6589  002698                     __ptext18:
  6590                           	callstack 0
  6591  002698                     _readUSART:
  6592                           	callstack 25
  6593  002698                     
  6594                           ;./bt.h: 45:     char ler = RCREG;
  6595  002698  CFAE F001          	movff	4014,readUSART@ler	;volatile
  6596  00269C                     
  6597                           ;./bt.h: 46:     return ler;
  6598  00269C  5001               	movf	readUSART@ler^0,w,c
  6599  00269E  0012               	return		;funcret
  6600  0026A0                     __end_of_readUSART:
  6601                           	callstack 0
  6602                           
  6603                           	psect	rparam
  6604  0000                     
  6605                           	psect	temp
  6606  000022                     btemp:
  6607                           	callstack 0
  6608  000022                     	ds	1
  6609  0000                     int$flags	set	btemp
  6610  0000                     wtemp8	set	btemp+1
  6611  0000                     ttemp5	set	btemp+1
  6612  0000                     ttemp6	set	btemp+4
  6613  0000                     ttemp7	set	btemp+8
  6614                           
  6615                           	psect	idloc
  6616                           
  6617                           ;Config register IDLOC0 @ 0x200000
  6618                           ;	unspecified, using default values
  6619  200000                     	org	2097152
  6620  200000  FF                 	db	255
  6621                           
  6622                           ;Config register IDLOC1 @ 0x200001
  6623                           ;	unspecified, using default values
  6624  200001                     	org	2097153
  6625  200001  FF                 	db	255
  6626                           
  6627                           ;Config register IDLOC2 @ 0x200002
  6628                           ;	unspecified, using default values
  6629  200002                     	org	2097154
  6630  200002  FF                 	db	255
  6631                           
  6632                           ;Config register IDLOC3 @ 0x200003
  6633                           ;	unspecified, using default values
  6634  200003                     	org	2097155
  6635  200003  FF                 	db	255
  6636                           
  6637                           ;Config register IDLOC4 @ 0x200004
  6638                           ;	unspecified, using default values
  6639  200004                     	org	2097156
  6640  200004  FF                 	db	255
  6641                           
  6642                           ;Config register IDLOC5 @ 0x200005
  6643                           ;	unspecified, using default values
  6644  200005                     	org	2097157
  6645  200005  FF                 	db	255
  6646                           
  6647                           ;Config register IDLOC6 @ 0x200006
  6648                           ;	unspecified, using default values
  6649  200006                     	org	2097158
  6650  200006  FF                 	db	255
  6651                           
  6652                           ;Config register IDLOC7 @ 0x200007
  6653                           ;	unspecified, using default values
  6654  200007                     	org	2097159
  6655  200007  FF                 	db	255
  6656                           
  6657                           	psect	config
  6658                           
  6659                           ; Padding undefined space
  6660  300000                     	org	3145728
  6661  300000  FF                 	db	255
  6662                           
  6663                           ;Config register CONFIG1H @ 0x300001
  6664                           ;	Oscillator Selection bits
  6665                           ;	OSC = HS, HS oscillator
  6666                           ;	Fail-Safe Clock Monitor Enable bit
  6667                           ;	FCMEN = ON, Fail-Safe Clock Monitor enabled
  6668                           ;	Internal External Oscillator Switchover bit
  6669                           ;	IESO = ON, Internal External Switchover mode enabled
  6670  300001                     	org	3145729
  6671  300001  C2                 	db	194
  6672                           
  6673                           ;Config register CONFIG2L @ 0x300002
  6674                           ;	Power-up Timer Enable bit
  6675                           ;	PWRTEN = OFF, PWRT disabled
  6676                           ;	Brown-out Reset Enable bits
  6677                           ;	BOREN = OFF, Brown-out Reset disabled
  6678                           ;	Brown Out Reset Voltage bits
  6679                           ;	BORV = 0x3, unprogrammed default
  6680  300002                     	org	3145730
  6681  300002  0D                 	db	13
  6682                           
  6683                           ;Config register CONFIG2H @ 0x300003
  6684                           ;	Watchdog Timer Enable bit
  6685                           ;	WDTEN = OFF, WDT disabled (control is placed on the SWDTEN bit)
  6686                           ;	Watchdog Timer Postscale Select bits
  6687                           ;	WDPS = 32768, 1:32768
  6688                           ;	Watchdog Timer Window Enable bit
  6689                           ;	WINEN = OFF, WDT window disabled
  6690  300003                     	org	3145731
  6691  300003  3E                 	db	62
  6692                           
  6693                           ;Config register CONFIG3L @ 0x300004
  6694                           ;	PWM output pins Reset state control
  6695                           ;	PWMPIN = OFF, PWM outputs disabled upon Reset (default)
  6696                           ;	Low-Side Transistors Polarity
  6697                           ;	LPOL = HIGH, PWM0, 2, 4 and 6 are active-high
  6698                           ;	High-Side Transistors Polarity
  6699                           ;	HPOL = HIGH, PWM1, 3, 5 and 7 are active-high
  6700                           ;	Timer1 Oscillator MUX
  6701                           ;	T1OSCMX = ON, Low-power Timer1 operation when microcontroller is in Sleep mode
  6702  300004                     	org	3145732
  6703  300004  3C                 	db	60
  6704                           
  6705                           ;Config register CONFIG3H @ 0x300005
  6706                           ;	FLTA MUX bit
  6707                           ;	FLTAMX = RC1, FLTA input is multiplexed with RC1
  6708                           ;	SSP I/O MUX bit
  6709                           ;	SSPMX = RC7, SCK/SCL clocks and SDA/SDI data are multiplexed with RC5 and RC4, respect
      +                          ively. SDO output is multiplexed with RC7.
  6710                           ;	PWM4 MUX bit
  6711                           ;	PWM4MX = RB5, PWM4 output is multiplexed with RB5
  6712                           ;	TMR0/T5CKI External clock MUX bit
  6713                           ;	EXCLKMX = RC3, TMR0/T5CKI external clock input is multiplexed with RC3
  6714                           ;	MCLR Pin Enable bit
  6715                           ;	MCLRE = OFF, Disabled
  6716  300005                     	org	3145733
  6717  300005  1D                 	db	29
  6718                           
  6719                           ;Config register CONFIG4L @ 0x300006
  6720                           ;	Stack Full/Underflow Reset Enable bit
  6721                           ;	STVREN = ON, Stack full/underflow will cause Reset
  6722                           ;	Low-Voltage ICSP Enable bit
  6723                           ;	LVP = OFF, Low-voltage ICSP disabled
  6724                           ;	Background Debugger Enable bit
  6725                           ;	DEBUG = 0x1, unprogrammed default
  6726  300006                     	org	3145734
  6727  300006  81                 	db	129
  6728                           
  6729                           ; Padding undefined space
  6730  300007                     	org	3145735
  6731  300007  FF                 	db	255
  6732                           
  6733                           ;Config register CONFIG5L @ 0x300008
  6734                           ;	Code Protection bit
  6735                           ;	CP0 = OFF, Block 0 (000200-000FFFh) not code-protected
  6736                           ;	Code Protection bit
  6737                           ;	CP1 = OFF, Block 1 (001000-001FFF) not code-protected
  6738                           ;	Code Protection bit
  6739                           ;	CP2 = OFF, Block 2 (002000-002FFFh) not code-protected
  6740                           ;	Code Protection bit
  6741                           ;	CP3 = OFF, Block 3 (003000-003FFFh) not code-protected
  6742  300008                     	org	3145736
  6743  300008  0F                 	db	15
  6744                           
  6745                           ;Config register CONFIG5H @ 0x300009
  6746                           ;	Boot Block Code Protection bit
  6747                           ;	CPB = OFF, Boot Block (000000-0001FFh) not code-protected
  6748                           ;	Data EEPROM Code Protection bit
  6749                           ;	CPD = OFF, Data EEPROM not code-protected
  6750  300009                     	org	3145737
  6751  300009  C0                 	db	192
  6752                           
  6753                           ;Config register CONFIG6L @ 0x30000A
  6754                           ;	Write Protection bit
  6755                           ;	WRT0 = OFF, Block 0 (000200-000FFFh) not write-protected
  6756                           ;	Write Protection bit
  6757                           ;	WRT1 = OFF, Block 1 (001000-001FFF) not write-protected
  6758                           ;	Write Protection bit
  6759                           ;	WRT2 = OFF, Block 2 (002000-002FFFh) not write-protected
  6760                           ;	Write Protection bit
  6761                           ;	WRT3 = OFF, Block 3 (003000-003FFFh) not write-protected
  6762  30000A                     	org	3145738
  6763  30000A  0F                 	db	15
  6764                           
  6765                           ;Config register CONFIG6H @ 0x30000B
  6766                           ;	Configuration Register Write Protection bit
  6767                           ;	WRTC = OFF, Configuration registers (300000-3000FFh) not write-protected
  6768                           ;	Boot Block Write Protection bit
  6769                           ;	WRTB = OFF, Boot Block (000000-0001FFh) not write-protected
  6770                           ;	Data EEPROM Write Protection bit
  6771                           ;	WRTD = OFF, Data EEPROM not write-protected
  6772  30000B                     	org	3145739
  6773  30000B  E0                 	db	224
  6774                           
  6775                           ;Config register CONFIG7L @ 0x30000C
  6776                           ;	Table Read Protection bit
  6777                           ;	EBTR0 = OFF, Block 0 (000200-000FFFh) not protected from table reads executed in other
      +                           blocks
  6778                           ;	Table Read Protection bit
  6779                           ;	EBTR1 = OFF, Block 1 (001000-001FFF) not protected from table reads executed in other 
      +                          blocks
  6780                           ;	Table Read Protection bit
  6781                           ;	EBTR2 = OFF, Block 2 (002000-002FFFh) not protected from table reads executed in other
      +                           blocks
  6782                           ;	Table Read Protection bit
  6783                           ;	EBTR3 = OFF, Block 3 (003000-003FFFh) not protected from table reads executed in other
      +                           blocks
  6784  30000C                     	org	3145740
  6785  30000C  0F                 	db	15
  6786                           
  6787                           ;Config register CONFIG7H @ 0x30000D
  6788                           ;	Boot Block Table Read Protection bit
  6789                           ;	EBTRB = OFF, Boot Block (000000-0001FFh) not protected from table reads executed in ot
      +                          her blocks
  6790  30000D                     	org	3145741
  6791  30000D  40                 	db	64
  6792                           tosu	equ	0xFFF
  6793                           tosh	equ	0xFFE
  6794                           tosl	equ	0xFFD
  6795                           stkptr	equ	0xFFC
  6796                           pclatu	equ	0xFFB
  6797                           pclath	equ	0xFFA
  6798                           pcl	equ	0xFF9
  6799                           tblptru	equ	0xFF8
  6800                           tblptrh	equ	0xFF7
  6801                           tblptrl	equ	0xFF6
  6802                           tablat	equ	0xFF5
  6803                           prodh	equ	0xFF4
  6804                           prodl	equ	0xFF3
  6805                           indf0	equ	0xFEF
  6806                           postinc0	equ	0xFEE
  6807                           postdec0	equ	0xFED
  6808                           preinc0	equ	0xFEC
  6809                           plusw0	equ	0xFEB
  6810                           fsr0h	equ	0xFEA
  6811                           fsr0l	equ	0xFE9
  6812                           wreg	equ	0xFE8
  6813                           indf1	equ	0xFE7
  6814                           postinc1	equ	0xFE6
  6815                           postdec1	equ	0xFE5
  6816                           preinc1	equ	0xFE4
  6817                           plusw1	equ	0xFE3
  6818                           fsr1h	equ	0xFE2
  6819                           fsr1l	equ	0xFE1
  6820                           bsr	equ	0xFE0
  6821                           indf2	equ	0xFDF
  6822                           postinc2	equ	0xFDE
  6823                           postdec2	equ	0xFDD
  6824                           preinc2	equ	0xFDC
  6825                           plusw2	equ	0xFDB
  6826                           fsr2h	equ	0xFDA
  6827                           fsr2l	equ	0xFD9
  6828                           status	equ	0xFD8

Data Sizes:
    Strings     117
    Constant    0
    Data        2
    BSS         8
    Persistent  0
    Stack       0

Auto Spaces:
    Space          Size  Autos    Used
    COMRAM           94     23      33
    BANK0           160      0       0
    BANK1           256      0       0
    BANK2           256      0       0

Pointer List with Targets:

    acao	PTR unsigned char  size(2) Largest target is 767
		 -> RAM(DATA[767]), NULL(NULL[0]), STR_32(CODE[2]), STR_16(CODE[6]), 
		 -> STR_15(CODE[6]), STR_14(CODE[5]), STR_13(CODE[7]), STR_12(CODE[9]), 
		 -> STR_11(CODE[8]), STR_10(CODE[3]), STR_9(CODE[3]), STR_8(CODE[6]), 
		 -> STR_7(CODE[7]), STR_6(CODE[8]), STR_5(CODE[9]), STR_4(CODE[5]), 
		 -> STR_3(CODE[9]), STR_2(CODE[10]), STR_1(CODE[6]), 

    stringUSART@frase	PTR unsigned char  size(2) Largest target is 8
		 -> STR_17(CODE[8]), 


Critical Paths under _main in COMRAM

    _main->_estrela
    _testarLinha->_moverMotor
    _linha->_moverMotor
    _estrela->_testarDistancia
    _testarDistancia->_moverMotor
    _moverMotor->___wmul

Critical Paths under _ISR in COMRAM

    _ISR->_readUSART

Critical Paths under _main in BANK0

    None.

Critical Paths under _ISR in BANK0

    None.

Critical Paths under _main in BANK1

    None.

Critical Paths under _ISR in BANK1

    None.

Critical Paths under _main in BANK2

    None.

Critical Paths under _ISR in BANK2

    None.

Call Graph Tables:

 ---------------------------------------------------------------------------------
 (Depth) Function   	        Calls       Base Space   Used Autos Params    Refs
 ---------------------------------------------------------------------------------
 (0) _main                                                 8     8      0  140392
                                             15 COMRAM     8     8      0
                            _estrela
                              _linha
                         _moverMotor
                         _pararMotor
                           _picUSART
                              _setBT
                              _setIO
                             _setPWM
                            _setTMR0
                            _setTMR1
                        _stringUSART
                    _testarDistancia
                        _testarLinha
 ---------------------------------------------------------------------------------
 (1) _testarLinha                                          4     4      0   23359
                                             11 COMRAM     2     2      0
                         _moverMotor
                         _pararMotor
 ---------------------------------------------------------------------------------
 (1) _stringUSART                                          6     4      2     166
                                              1 COMRAM     6     4      2
                           _testBuff
 ---------------------------------------------------------------------------------
 (1) _setTMR1                                              0     0      0       0
 ---------------------------------------------------------------------------------
 (1) _setTMR0                                              0     0      0       0
 ---------------------------------------------------------------------------------
 (1) _setPWM                                               0     0      0       0
 ---------------------------------------------------------------------------------
 (1) _setIO                                                0     0      0       0
 ---------------------------------------------------------------------------------
 (1) _setBT                                                0     0      0       0
 ---------------------------------------------------------------------------------
 (1) _picUSART                                             1     1      0      15
                                              1 COMRAM     1     1      0
                           _testBuff
 ---------------------------------------------------------------------------------
 (2) _testBuff                                             0     0      0       0
 ---------------------------------------------------------------------------------
 (1) _linha                                                4     4      0   23315
                                             11 COMRAM     2     2      0
                         _moverMotor
                         _pararMotor
 ---------------------------------------------------------------------------------
 (1) _estrela                                              2     2      0   46674
                                             13 COMRAM     2     2      0
                         _moverMotor
                         _pararMotor
                    _testarDistancia
 ---------------------------------------------------------------------------------
 (1) _testarDistancia                                      4     4      0   23536
                                             11 COMRAM     2     2      0
                         _moverMotor
 ---------------------------------------------------------------------------------
 (2) _moverMotor                                           4     1      3   23138
                                              7 COMRAM     4     1      3
                             ___wmul
 ---------------------------------------------------------------------------------
 (3) ___wmul                                               6     2      4     311
                                              1 COMRAM     6     2      4
 ---------------------------------------------------------------------------------
 (2) _pararMotor                                           0     0      0       0
 ---------------------------------------------------------------------------------
 Estimated maximum stack depth 3
 ---------------------------------------------------------------------------------
 (Depth) Function   	        Calls       Base Space   Used Autos Params    Refs
 ---------------------------------------------------------------------------------
 (5) _ISR                                                  0     0      0      15
                          _readUSART
                       i2_pararMotor
 ---------------------------------------------------------------------------------
 (6) i2_pararMotor                                         0     0      0       0
 ---------------------------------------------------------------------------------
 (6) _readUSART                                            1     1      0      15
                                              0 COMRAM     1     1      0
 ---------------------------------------------------------------------------------
 Estimated maximum stack depth 6
 ---------------------------------------------------------------------------------

 Call Graph Graphs:

 _main (ROOT)
   _estrela
     _moverMotor
       ___wmul
     _pararMotor
     _testarDistancia
       _moverMotor
   _linha
     _moverMotor
     _pararMotor
   _moverMotor
   _pararMotor
   _picUSART
     _testBuff
   _setBT
   _setIO
   _setPWM
   _setTMR0
   _setTMR1
   _stringUSART
     _testBuff
   _testarDistancia
   _testarLinha
     _moverMotor
     _pararMotor

 _ISR (ROOT)
   _readUSART
   i2_pararMotor

 Address spaces:
Name               Size   Autos  Total    Cost      Usage
BIGRAM             2FF      0       0      10        0.0%
EEDATA             100      0       0       0        0.0%
BITBANK2           100      0       0       8        0.0%
BANK2              100      0       0       9        0.0%
BITBANK1           100      0       0       6        0.0%
BANK1              100      0       0       7        0.0%
BITBANK0            A0      0       0       4        0.0%
BANK0               A0      0       0       5        0.0%
BITCOMRAM           5E      0       0       0        0.0%
COMRAM              5E     17      21       1       35.1%
BITSFR               0      0       0     200        0.0%
SFR                  0      0       0     200        0.0%
STACK                0      0       0       2        0.0%
NULL                 0      0       0       0        0.0%
ABS                  0      0      21       3        0.0%
DATA                 0      0      21      11        0.0%
CODE                 0      0       0       0        0.0%


Microchip Technology PIC18 Macro Assembler V2.32 build 20210201212658 
Symbol Table                                                                                   Sat Nov 20 23:22:39 2021

                              u70 2688                                u71 2684  
             ___wmul@multiplicand 0004                               l300 179C  
                             l133 2640                               l142 2688  
                             l310 10A6                               l136 2654  
                             l320 12CC                               l312 1114  
                             l304 0F42                               l240 0562  
                             l401 1CC4                               l233 0462  
                             l170 266E                               l330 1482  
                             l314 1182                               l306 0FCA  
                             l250 0788                               l242 05D0  
                             l234 0486                               l411 1EEA  
                             l403 1D32                               l139 267A  
                             l163 25BC                               l171 2678  
                             l420 232C                               l148 2668  
                             l340 16A8                               l332 14F0  
                             l316 11F0                               l308 1038  
                             l260 0940                               l252 07F6  
                             l244 063E                               l413 1F58  
                             l405 1DA0                               l157 2552  
                             l422 2370                               l166 2692  
                             l430 208A                               l334 155E  
                             l326 138C                               l318 125E  
                             l270 0AF6                               l254 0864  
                             l246 06AC                               l238 04F4  
                             l407 1E0E                               l167 2696  
                             l431 2178                               l263 0974  
                             l432 20CE                               l336 15CC  
                             l328 1414                               l280 0D1C  
                             l272 0B64                               l248 071A  
                             l409 1E7C                               l417 1FEA  
                             l425 2416                               l346 1792  
                             l338 163A                               l274 0BD2  
                             l266 0A1A                               l435 2178  
                             l460 22D0                               l428 2030  
                             l276 0C40                               l268 0A88  
                             l461 223C                               l278 0CAE  
                             l464 22D0                               l288 0E16  
                             l393 24F2                               l457 219E  
                             l459 21F8                               l396 2604  
                             l479 25E2                               l399 1C56  
                             _ISR 0008                               _PSA 007EAB  
                             _ini 0018                               wreg 000FE8  
                            ?_ISR 0001                              l1300 2646  
                            l1310 2650                              l1302 2648  
                            l1320 2664                              l1312 2652  
                            l1304 264A                              l3000 145A  
                            l1314 2658                              l1306 264C  
                            l3010 14C8                              l3002 1490  
                            l2300 245C                              l1316 265C  
                            l1308 264E                              l3100 182A  
                            l3020 1536                              l3012 14FE  
                            l3004 149E                              l2302 2460  
                            l2310 2496                              l1318 2660  
                            l1342 258A                              l3110 1868  
                            l3102 1842                              l3030 15A4  
                            l3022 156C                              l3014 150C  
                            l3006 14AC                              l2320 24D0  
                            l2312 24A8                              l2304 2470  
                            l2400 1EF8                              l1192 267A  
                            l1344 259E                              l3200 1B54  
                            l3112 1878                              l3104 184A  
                            l3040 1612                              l3032 15DA  
                            l3024 157A                              l3016 151A  
                            l3008 14BA                              l1194 25E4  
                            l2322 24E2                              l2314 24AA  
                            l2306 2482                              l2410 1F66  
                            l2402 1F06                              l2330 1BF6  
                            l1346 268A                              l3210 1B92  
                            l3202 1B5A                              l3130 18DC  
                            l3114 1890                              l3106 184C  
                            l3122 18B8                              l3050 1680  
                            l3042 1648                              l3034 15E8  
                            l3026 1588                              l3018 1528  
                            l2324 24E6                              l2316 24BC  
                            l2308 248A                              l2412 1F74  
                            l2420 1FC6                              l2404 1F14  
                            l2340 1C64                              l2332 1C04  
                            l2500 23EE                              l1292 2628  
                            l1348 266A                              l3212 1BA8  
                            l3204 1B68                              l3140 1930  
                            l3132 18F4                              l3124 18D0  
                            l3116 1898                              l3108 1864  
                            l3060 16EE                              l3052 16B6  
                            l3044 1656                              l3036 15F6  
                            l3028 1596                              l2318 24C0  
                            l2414 1F82                              l2406 1F22  
                            l2350 1CD2                              l2342 1C72  
                            l2334 1C12                              l2326 1BE0  
                            l2510 21AC                              l2502 2400  
                            l1294 262A                              l2430 2522  
                            l2422 24F4                              l3214 1BAE  
                            l3206 1B7E                              l3142 1938  
                            l3134 18F8                              l3126 18D8  
                            l3150 196C                              l3118 18A0  
                            l3070 1760                              l3054 16C4  
                            l3062 1716                              l3046 1664  
                            l3038 1604                              l2416 1F90  
                            l2408 1F30                              l2360 1D40  
                            l2352 1CE0                              l2344 1C80  
                            l2336 1C20                              l2328 1BE8  
                            l2512 21BA                              l2504 217A  
                            l1296 262E                              l2432 254A  
                            l2424 2500                              l2440 1FFA  
                            l3216 1BBC                              l3208 1B84  
                            l3160 19D8                              l3152 1984  
                            l3144 1948                              l3136 1904  
                            l3128 18DA                              l3080 17B4  
                            l3072 1778                              l3056 16D2  
                            l3048 1672                              l3064 173A  
                            l2600 051E                              l2418 1F9E  
                            l2370 1DAE                              l2362 1D4E  
                            l2354 1CEE                              l2346 1C8E  
                            l2338 1C2E                              l2530 2296  
                            l2522 224A                              l2514 21DE  
                            l2506 2188                              l1298 2642  
                            l2434 254E                              l2426 251A  
                            l2450 2098                              l2442 2008  
                            l3218 1BD2                              l3162 19EA  
                            l3154 1988                              l3170 1A4A  
                            l3146 1950                              l3138 1918  
                            l3090 17EA                              l3082 17BC  
                            l3074 1780                              l3066 174A  
                            l3058 16E0                              l2610 058C  
                            l2602 052C                              l2292 241A  
                            l2380 1E1C                              l2372 1DBC  
                            l2364 1D5C                              l2356 1CFC  
                            l2348 1C9C                              l2532 22A8  
                            l2524 2258                              l2516 2206  
                            l2508 2196                              l2428 251E  
                            l2460 210E                              l2452 20A6  
                            l2444 203E                              l2436 1FEC  
                            l3172 1A62                              l3180 1AA8  
                            l3164 1A24                              l3156 19AC  
                            l3148 1968                              l3092 1802  
                            l3084 17BE                              l3068 174E  
                            l3076 1782                              l2620 05FA  
                            l2612 059A                              l2604 053A  
                            l2700 0930                              l2540 0378  
                            l2286 25BE                              l2294 2436  
                            l2390 1E8A                              l2382 1E2A  
                            l2374 1DCA                              l2366 1D6A  
                            l2358 1D0A                              l2534 22BA  
                            l2526 227C                              l2518 2214  
                            l2470 215E                              l2462 2124  
                            l2446 204C                              l2438 1FEC  
                            l3182 1AC0                              l3190 1B06  
                            l3174 1A86                              l3166 1A3E  
                            l3158 19C6                              l3094 1806  
                            l3086 17D6                              l3078 1794  
                            l2710 0984                              l2630 0668  
                            l2622 0608                              l2614 05A8  
                            l2606 0570                              l2702 0942  
                            l2550 0390                              l2542 0384  
                            l2288 25DA                              l2296 2448  
                            l2392 1E98                              l2384 1E38  
                            l2376 1DD8                              l2368 1D78  
                            l2528 2292                              l2480 2312  
                            l2472 22D2                              l2464 2128  
                            l2456 20DC                              l2448 2070  
                            l3192 1B14                              l3184 1AE4  
                            l3176 1A9C                              l3168 1A42  
                            l3096 1812                              l3088 17DE  
                            l2800 0D38                              l2720 09C8  
                            l2712 098C                              l2704 095A  
                            l2640 06D6                              l2632 0676  
                            l2624 0616                              l2616 05DE  
                            l2608 057E                              l2560 03C8  
                            l2552 0392                              l2544 0388  
                            l2298 244A                              l2394 1EA6  
                            l2386 1E46                              l2378 1DE6  
                            l2490 238C                              l2482 233A  
                            l2474 22D2                              l2466 213A  
                            l2458 20EA                              l3194 1B2A  
                            l3186 1AFA                              l3178 1AA0  
                            l2810 0DA4                              l2802 0D46  
                            l2730 0A36                              l2722 09D6  
                            l2714 0990                              l2706 095C  
                            l2650 0744                              l2642 06E4  
                            l2634 0684                              l2626 064C  
                            l2618 05EC                              l2570 0418  
                            l2562 03E0                              l2554 0394  
                            l2546 038C                              l2396 1EB4  
                            l2388 1E54                              l2492 23B0  
                            l2484 2348                              l2476 22E0  
                            l2468 214C                              l3196 1B30  
                            l3188 1AFE                              l2900 1070  
                            l2812 0DCC                              l2804 0D54  
                            l2740 0AA4                              l2732 0A44  
                            l2820 0DE6                              l2724 09E4  
                            l2716 09AC                              l2708 0982  
                            l2660 07B2                              l2652 0752  
                            l2644 06F2                              l2636 06BA  
                            l2628 065A                              l2580 0452  
                            l2572 041C                              l2564 03E4  
                            l2556 03A6                              l2548 038E  
                            l2398 1EC2                              l2494 23C6  
                            l2478 22EE                              l3198 1B3E  
                            l2910 10DE                              l2902 107E  
                            l2830 0E34                              l2822 0DFE  
                            l2806 0D62                              l2750 0B12  
                            l2742 0AB2                              l2734 0A52  
                            l2726 09F2                              l2718 09BA  
                            l2814 0DD4                              l2670 0820  
                            l2662 07C0                              l2654 0760  
                            l2646 0728                              l2638 06C8  
                            l2590 04B0                              l2582 0470  
                            l2574 0434                              l2566 03FC  
                            l2558 03B2                              l2496 23CA  
                            l2488 237E                              l2920 114C  
                            l2912 10EC                              l2904 10B4  
                            l2840 0E9E                              l2832 0E4C  
                            l2816 0DDC                              l2808 0D8A  
                            l2760 0B80                              l2752 0B20  
                            l2744 0AC0                              l2736 0A60  
                            l2728 0A28                              l2824 0E06  
                            l2680 088E                              l2672 082E  
                            l2664 07CE                              l2656 0796  
                            l2648 0736                              l2592 04BE  
                            l2584 047E                              l2576 0438  
                            l2568 0400                              l2498 23DC  
                            l2930 11BA                              l2922 115A  
                            l2914 1122                              l2906 10C2  
                            l2842 0EAE                              l2850 0ED6  
                            l2834 0E50                              l2818 0DDE  
                            l2770 0BEE                              l2762 0B8E  
                            l2754 0B2E                              l2746 0ACE  
                            l2738 0A96                              l2826 0E18  
                            l2690 0904                              l2682 089C  
                            l2674 083C                              l2666 0804  
                            l2658 07A4                              l2594 04CC  
                            l2586 0494                              l2578 0450  
                            l2940 1228                              l2932 11C8  
                            l2924 1190                              l2916 1130  
                            l2908 10D0                              l2860 0F34  
                            l2852 0EEE                              l2844 0EB6  
                            l2836 0E68                              l2828 0E30  
                            l2780 0C5C                              l2772 0BFC  
                            l2764 0B9C                              l2756 0B3C  
                            l2748 0B04                              l2692 0906  
                            l2684 08AA                              l2676 0872  
                            l2668 0812                              l2596 0502  
                            l2588 04A2                              l2950 1296  
                            l2942 1236                              l2934 11FE  
                            l2926 119E                              l2918 113E  
                            l2870 0F5A                              l2862 0F36  
                            l2854 0EF6                              l2846 0EBA  
                            l2838 0E7A                              l2790 0CCA  
                            l2782 0C6A                              l2774 0C0A  
                            l2766 0BAA                              l2758 0B72  
                            l2694 090E                              l2678 0880  
                            l2686 08D2                              l2598 0510  
                            l2960 1304                              l2952 12A4  
                            l2944 126C                              l2936 120C  
                            l2928 11AC                              l2880 0F94  
                            l2872 0F5C                              l2864 0F3A  
                            l2856 0F08                              l2848 0ED2  
                            l2792 0CD8                              l2784 0C78  
                            l2776 0C18                              l2768 0BE0  
                            l2696 0910                              l2688 08F6  
                            l2970 1372                              l2962 1312  
                            l2954 12DA                              l2946 127A  
                            l2938 121A                              l2890 1002  
                            l2882 0FA2                              l2874 0F6A  
                            l2866 0F50                              l2858 0F1A  
                            l2794 0CE6                              l2786 0C86  
                            l2778 0C4E                              l2698 0928  
                            l2980 13A6                              l2972 1376  
                            l2956 12E8                              l2964 133A  
                            l2948 1288                              l2892 1010  
                            l2884 0FD8                              l2876 0F78  
                            l2868 0F52                              l2796 0CF4  
                            l2788 0CBC                              l2990 13EC  
                            l2982 13B4                              l2974 139A  
                            l2958 12F6                              l2894 1046  
                            l2886 0FE6                              l2966 135E  
                            l2878 0F86                              l2798 0D2A  
                            l2992 1422                              l2984 13C2  
                            l2976 139C                              l2968 136E  
                            l2896 1054                              l2888 0FF4  
                            l2994 1430                              l2986 13D0  
                            l2978 13A4                              l2898 1062  
                            l2996 143E                              l2988 13DE  
                            l2998 144C                              STR_1 034C  
                            STR_2 0301                              STR_3 031D  
                            STR_4 0364                              STR_5 030B  
                            STR_6 0326                              STR_7 0345  
                            STR_8 0352                              STR_9 036E  
                            _RD16 007E6F                              _T0CS 007EAD  
                            u4000 238C                              u4001 2388  
                            u4010 2188                              u4011 2184  
                            u4020 2196                              u4100 03E0  
                            u4021 2192                              u4101 03DC  
                            u4030 21AC                              u4110 03FC  
                            u4031 21A8                              u4111 03F8  
                            u3400 24E2                              u4040 21BA  
                            u5000 0BFC                              u4200 04BE  
                            u4120 0418                              u3401 24DE  
                            u4041 21B6                              u5001 0BF8  
                            u4201 04BA                              u4121 0414  
                            u3410 1BF6                              u4050 2206  
                            u5010 0C0A                              u4210 04CC  
                            u4130 0434                              u3411 1BF2  
                            u4051 2202                              u5011 0C06  
                            u4211 04C8                              u4131 0430  
                            u3500 1C9C                              u3420 1C04  
                            u4060 2214                              u5100 0CD8  
                            u5020 0C18                              u4300 059A  
                            u4220 0502                              u4140 0450  
                            u3501 1C98                              u3421 1C00  
                            u4061 2210                              u5101 0CD4  
                            u5021 0C14                              u4301 0596  
                            u4221 04FE                              u4141 044C  
                            u3350 2448                              u3510 1CD2  
                            u3430 1C12                              u4070 224A  
                            u5110 0CE6                              u5030 0C4E  
                            u4310 05A8                              u4230 0510  
                            u4150 0470                              u3351 2444  
                            u3511 1CCE                              u3431 1C0E  
                            u4071 2246                              u5111 0CE2  
                            u5031 0C4A                              u4311 05A4  
                            u4231 050C                              u4151 046C  
                            u3360 245C                              u3600 1D78  
                            u3520 1CE0                              u3440 1C20  
                            u4080 2258                              u6000 15DA  
                            u5200 0E16                              u5120 0CF4  
                            u5040 0C5C                              u4400 0676  
                            u4320 05DE                              u4240 051E  
                            u4160 047E                              u3361 2458  
                            u3601 1D74                              u3521 1CDC  
                            u3441 1C1C                              u4081 2254  
                            u6001 15D6                              u5201 0E12  
                            u5121 0CF0                              u5041 0C58  
                            u4401 0672                              u4321 05DA  
                            u4241 051A                              u4161 047A  
                            u3370 2482                              u3610 1DAE  
                            u3530 1CEE                              u3450 1C2E  
                            u6010 15E8                              u5210 0E30  
                            u5130 0D2A                              u5050 0C6A  
                            u4410 0684                              u4330 05EC  
                            u4250 052C                              u4170 0494  
                            u4090 03A6                              u3371 247E  
                            u3611 1DAA                              u3531 1CEA  
                            u3451 1C2A                              u6011 15E4  
                            u5211 0E2C                              u5131 0D26  
                            u5051 0C66                              u4411 0680  
                            u4331 05E8                              u4251 0528  
                            u4171 0490                              u4091 03A2  
                            u3380 24A8                              u3700 1E54  
                            u3620 1DBC                              u3540 1CFC  
                            u3460 1C64                              u6100 16B6  
                            u6020 15F6                              u5300 0F86  
                            u5220 0E4C                              u5140 0D38  
                            u5060 0C78                              u4500 0752  
                            u4420 06BA                              u4340 05FA  
                            u4260 053A                              u4180 04A2  
                            u3381 24A4                              u3701 1E50  
                            u3621 1DB8                              u3541 1CF8  
                            u3461 1C60                              u6101 16B2  
                            u6021 15F2                              u5301 0F82  
                            u5221 0E48                              u5141 0D34  
                            u5061 0C74                              u4501 074E  
                            u4421 06B6                              u4341 05F6  
                            u4261 0536                              u4181 049E  
                            u3390 24BC                              u3710 1E8A  
                            u3630 1DCA                              u3550 1D0A  
                            u3470 1C72                              u6110 16C4  
                            u6030 1604                              u5310 0F94  
                            u5230 0E68                              u5150 0D46  
                            u5070 0C86                              u4510 0760  
                            u4430 06C8                              u4350 0608  
                            u4270 0570                              u4190 04B0  
                            u3391 24B8                              u3711 1E86  
                            u3631 1DC6                              u3551 1D06  
                            u3471 1C6E                              u6111 16C0  
                            u6031 1600                              u5311 0F90  
                            u5231 0E64                              u5151 0D42  
                            u5071 0C82                              u4511 075C  
                            u4431 06C4                              u4351 0604  
                            u4271 056C                              u4191 04AC  
                            u3800 1F30                              u3720 1E98  
                            u3640 1DD8                              u3560 1D40  
                            u3480 1C80                              u6200 1802  
                            u6120 16D2                              u6040 1612  
                            u5400 1062                              u5320 0FA2  
                            u5240 0E7A                              u5160 0D54  
                            u5080 0CBC                              u4600 082E  
                            u4520 0796                              u4440 06D6  
                            u4360 0616                              u4280 057E  
                            u3801 1F2C                              u3721 1E94  
                            u3641 1DD4                              u3561 1D3C  
                            u3481 1C7C                              u6201 17FE  
                            u6121 16CE                              u6041 160E  
                            u5401 105E                              u5321 0F9E  
                            u5241 0E76                              u5161 0D50  
                            u5081 0CB8                              u4601 082A  
                            u4521 0792                              u4441 06D2  
                            u4361 0612                              u4281 057A  
                            u3810 1F66                              u3730 1EA6  
                            u3650 1DE6                              u3570 1D4E  
                            u3490 1C8E                              u6210 182A  
                            u6130 16E0                              u6050 1648  
                            u5410 1070                              u5330 0FD8  
                            u5250 0ED2                              u5170 0D62  
                            u5090 0CCA                              u4610 083C  
                            u4530 07A4                              u4450 06E4  
                            u4370 064C                              u4290 058C  
                            u3811 1F62                              u3731 1EA2  
                            u3651 1DE2                              u3571 1D4A  
                            u3491 1C8A                              u6211 1826  
                            u6131 16DC                              u6051 1644  
                            u5411 106C                              u5331 0FD4  
                            u5251 0ECE                              u5171 0D5E  
                            u5091 0CC6                              u4611 0838  
                            u4531 07A0                              u4451 06E0  
                            u4371 0648                              u4291 0588  
                            u3820 1F74                              u3740 1EB4  
                            u3660 1E1C                              u3580 1D5C  
                            u3900 204C                              u6300 1984  
                            u6220 1842                              u6140 16EE  
                            u6060 1656                              u5500 113E  
                            u5420 107E                              u5340 0FE6  
                            u5260 0EEE                              u5180 0DA4  
                            u4700 095A                              u4620 0872  
                            u4540 07B2                              u4460 06F2  
                            u4380 065A                              u3821 1F70  
                            u3741 1EB0                              u3661 1E18  
                            u3581 1D58                              u3901 2048  
                            u6301 1980                              u6221 183E  
                            u6141 16EA                              u6061 1652  
                            u5501 113A                              u5421 107A  
                            u5341 0FE2                              u5261 0EEA  
                            u5181 0DA0                              u4701 0956  
                            u4621 086E                              u4541 07AE  
                            u4461 06EE                              u4381 0656  
                            u3830 1F82                              u3750 1EC2  
                            u3670 1E2A                              u3590 1D6A  
                            u3910 2098                              u6310 1A62  
                            u6230 1864                              u6150 174A  
                            u6070 1664                              u5510 114C  
                            u5430 10B4                              u5350 0FF4  
                            u5270 0F50                              u5190 0DFE  
                            u4710 0982                              u4630 0880  
                            u4550 07C0                              u4470 0728  
                            u4390 0668                              u3831 1F7E  
                            u3751 1EBE                              u3671 1E26  
                            u3591 1D66                              u3911 2094  
                            u6311 1A5E                              u6231 1860  
                            u6151 1746                              u6071 1660  
                            u5511 1148                              u5431 10B0  
                            u5351 0FF0                              u5271 0F4C  
                            u5191 0DFA                              u4711 097E  
                            u4631 087C                              u4551 07BC  
                            u4471 0724                              u4391 0664  
                            u3840 1F90                              u3760 1EF8  
                            u3680 1E38                              u3920 20A6  
                            u6320 1AC0                              u6240 1890  
                            u6160 1778                              u6080 1672  
                            u5600 121A                              u5520 115A  
                            u5440 10C2                              u5360 1002  
                            u5280 0F6A                              u4800 0A44  
                            u4720 09AC                              u4640 088E  
                            u4560 07CE                              u4480 0736  
                            u3841 1F8C                              u3761 1EF4  
                            u3681 1E34                              u3921 20A2  
                            u6321 1ABC                              u6241 188C  
                            u6161 1774                              u6081 166E  
                            u5601 1216                              u5521 1156  
                            u5441 10BE                              u5361 0FFE  
                            u5281 0F66                              u4801 0A40  
                            u4721 09A8                              u4641 088A  
                            u4561 07CA                              u4481 0732  
                            u3850 1F9E                              u3770 1F06  
                            u3690 1E46                              u3930 20DC  
                            u6330 1B14                              u6250 18B8  
                            u6170 1792                              u6090 1680  
                            u5610 1228                              u5530 1190  
                            u5450 10D0                              u5370 1010  
                            u5290 0F78                              u4810 0A52  
                            u4730 09BA                              u4650 089C  
                            u4570 0804                              u4490 0744  
                            u3851 1F9A                              u3771 1F02  
                            u3691 1E42                              u3931 20D8  
                            u6331 1B10                              u6251 18B4  
                            u6171 178E                              u6091 167C  
                            u5611 1224                              u5531 118C  
                            u5451 10CC                              u5371 100C  
                            u5291 0F74                              u4811 0A4E  
                            u4731 09B6                              u4651 0898  
                            u4571 0800                              u4491 0740  
                            u3780 1F14                              u3860 254A  
                            u3940 20EA                              u6340 1B3E  
                            u6260 18D0                              u6180 17B4  
                            u5700 12F6                              u5620 1236  
                            u5540 119E                              u5460 10DE  
                            u5380 1046                              u4900 0B20  
                            u4820 0A60                              u4740 09C8  
                            u4660 08AA                              u4580 0812  
                            u3781 1F10                              u3861 2546  
                            u3941 20E6                              u6341 1B3A  
                            u6261 18CC                              u6181 17B0  
                            u5701 12F2                              u5621 1232  
                            u5541 119A                              u5461 10DA  
                            u5381 1042                              u4901 0B1C  
                            u4821 0A5C                              u4741 09C4  
                            u4661 08A6                              u4581 080E  
                            u3790 1F22                              u3950 22E0  
                            u3870 1FFA                              u6350 1B68  
                            u6270 18F4                              u6190 17D6  
                            u5710 1304                              u5630 126C  
                            u5550 11AC                              u5470 10EC  
                            u5390 1054                              u4910 0B2E  
                            u4830 0A96                              u4750 09D6  
                            u4670 0904                              u4590 0820  
                            u3791 1F1E                              u3951 22DC  
                            u3871 1FF6                              u6351 1B64  
                            u6271 18F0                              u6191 17D2  
                            u5711 1300                              u5631 1268  
                            u5551 11A8                              u5471 10E8  
                            u5391 1050                              u6407 0F24  
                            u4911 0B2A                              u4831 0A92  
                            u4751 09D2                              u4671 0900  
                            u4591 081C                              u3960 22EE  
                            u3880 2008                              u6360 1B92  
                            u6280 1930                              u5800 1422  
                            u5720 1312                              u5640 127A  
                            u5560 11BA                              u5480 1122  
                            u4920 0B3C                              u4840 0AA4  
                            u4760 09E4                              u4680 0928  
                            u3961 22EA                              u3881 2004  
                            u6361 1B8E                              u6281 192C  
                            u5801 141E                              u6417 137C  
                            u5721 130E                              u5641 1276  
                            u5561 11B6                              u5481 111E  
                            u4921 0B38                              u4841 0AA0  
                            u4761 09E0                              u4681 0924  
                            u3970 233A                              u3890 203E  
                            u6370 1BBC                              u6290 1968  
                            u5810 1430                              u5730 136E  
                            u5650 1288                              u5570 11C8  
                            u5490 1130                              u4930 0B72  
                            u4850 0AB2                              u4770 09F2  
                            u4690 0940                              u3971 2336  
                            u3891 203A                              u6371 1BB8  
                            u6507 1B72                              u6291 1964  
                            u6427 1754                              u5811 142C  
                            u5731 136A                              u5651 1284  
                            u5571 11C4                              u5491 112C  
                            u4931 0B6E                              u4851 0AAE  
                            u4771 09EE                              u4691 093C  
                            u3980 2348                              u5900 14FE  
                            u5820 143E                              u5740 139A  
                            u5660 1296                              u5580 11FE  
                            u4940 0B80                              u4860 0AC0  
                            u4780 0A28                              u3981 2344  
                            u6517 1B9C                              u6437 19B6  
                            u5901 14FA                              u5821 143A  
                            u5741 1396                              u5661 1292  
                            u5581 11FA                              u4941 0B7C  
                            u4861 0ABC                              u4781 0A24  
                            u3990 237E                              u5910 150C  
                            u5830 144C                              u5750 13B4  
                            u5670 12A4                              u5590 120C  
                            u4950 0B8E                              u4870 0ACE  
                            u4790 0A36                              u6607 240A  
                            u3991 237A                              u6527 1BC6  
                            u6447 19F4                              u5911 1508  
                            u5831 1448                              u5751 13B0  
                            u5671 12A0                              u5591 1208  
                            u4951 0B8A                              u4871 0ACA  
                            u4791 0A32                              u5920 151A  
                            u5840 145A                              u5760 13C2  
                            u5680 12DA                              u4960 0B9C  
                            u4880 0B04                              u6617 21E8  
                            u6537 207A                              u6457 1A2E  
                            u5921 1516                              u5841 1456  
                            u5761 13BE                              u5681 12D6  
                            u4961 0B98                              u4881 0B00  
                            u5930 1528                              u5850 1490  
                            u5770 13D0                              u5690 12E8  
                            u4970 0BAA                              u4890 0B12  
                            u6627 2286                              u6547 2118  
                            u6467 1A90                              u5931 1524  
                            u5851 148C                              u5771 13CC  
                            u5691 12E4                              u4971 0BA6  
                            u4891 0B0E                              u6387 03BC  
                            u5940 1536                              u5860 149E  
                            u5780 13DE                              u4980 0BE0  
                            u6637 229C                              u6557 212E  
                            u6477 1AEE                              u5941 1532  
                            u5861 149A                              u5781 13DA  
                            u6397 0EA4                              u4981 0BDC  
                            u5950 156C                              u5870 14AC  
                            u5790 13EC                              u4990 0BEE  
                            u6567 2168                              u6487 1B1E  
                            u5951 1568                              u5871 14A8  
                            u5791 13E8                              u4991 0BEA  
                            u5960 157A                              u5880 14BA  
                            u6577 231C                              u6497 1B48  
                            u5961 1576                              u5881 14B6  
                            u5970 1588                              u5890 14C8  
                            u6587 23BA                              u5971 1584  
                            u5891 14C4                              u5980 1596  
                            u6597 23D0                              u5981 1592  
                            u5990 15A4                              u5991 15A0  
                            _acao 001C                              _flag 0020  
                            _lado 001F                              _main 0378  
                            btemp 0022                              prodh 000FF4  
                            prodl 000FF3                              start 0296  
                     _stringUSART 24F4                      ___param_bank 000000  
                           ??_ISR 0002                             ?_main 0001  
                    main@cont_tmr 0012                      main@cont_zig 0013  
                           STR_10 0371                             STR_11 032E  
                           STR_20 0301                             STR_12 0314  
                           STR_21 0358                             STR_13 033E  
                           STR_30 0345                             STR_22 0364  
                           STR_14 0369                             STR_31 0358  
                           STR_23 0358                             STR_15 035E  
                           STR_24 031D                             STR_40 0358  
                           STR_32 0374                             STR_16 0358  
                           STR_33 0314                             STR_25 0358  
                           STR_41 035E                             STR_17 0336  
                           STR_18 034C                             STR_26 0326  
                           STR_42 033E                             STR_34 0369  
                           STR_35 033E                             STR_27 0358  
                           STR_19 0358                             STR_43 0369  
                           STR_28 030B                             STR_44 0358  
                           STR_36 0358                             STR_45 0352  
                           STR_37 032E                             STR_29 0358  
                           STR_46 036E                             STR_38 033E  
                           STR_47 0371                             STR_39 0369  
                           _PDC0H 000F78                             _T0PS0 007EA8  
                           _PDC1H 000F76                             _DTCON 000F6D  
                           _PDC2H 000F74                             _PDC0L 000F79  
                           _PDC1L 000F77                             _PDC3H 000F72  
                           _PDC2L 000F75                             _PDC3L 000F73  
                           _T1RUN 007E6E                             i2l212 0292  
                           i2l151 269E                             i2l191 0036  
                           i2l396 2626                             _RCREG 000FAE  
                           _TMR0H 000FD7                             _TMR1H 000FCF  
                           _TMR0L 000FD6                             _TMR1L 000FCE  
                           _SPBRG 000FAF                             _PORTB 000F81  
                           _PORTD 000F83                             _PTMRH 000F7C  
                           _PTMRL 000F7D                             _TRISA 000F92  
                           _TRISB 000F93                             _TRISC 000F94  
                           _TRISD 000F95                             _TRISE 000F96  
                           _TXREG 000FAD                             _linha 22D2  
                           _setBT 2642                             _setIO 2628  
                 __end_of_estrela 22D2                   __end_of_setTMR0 2698  
                 __end_of_setTMR1 267A                             tablat 000FF5  
                           ttemp5 0023                             ttemp6 0026  
                           ttemp7 002A                             status 000FD8  
                           wtemp8 0023                   __initialization 2554  
                    __end_of_main 1BE0                            ??_main 0010  
                   __activetblptr 000001                            ?_linha 0001  
                          ?_setBT 0001             __size_ofi2_pararMotor 0022  
                          ?_setIO 0001                            _ANSEL0 000FB8  
                          _ANSEL1 000FB9                            i2l1322 2698  
                          _T1SYNC 007E6A                            i2l1324 269C  
                          i2l1500 00F2                            i2l1510 0132  
                          i2l1502 00FA                            i2l1520 0172  
                          i2l1512 013A                            i2l1504 0102  
                          i2l1530 01BE                            i2l1522 0186  
                          i2l1514 014E                            i2l1506 0116  
                          i2l1540 01FE                            i2l1532 01C6  
                          i2l1524 018E                            i2l1516 0156  
                          i2l1508 011E                            i2l1454 2606  
                          i2l1550 026A                            i2l1542 0212  
                          i2l1534 01DA                            i2l1526 01A2  
                          i2l1518 016A                            i2l1470 0028  
                          i2l1552 0272                            i2l1544 0230  
                          i2l1536 01E2                            i2l1528 01AA  
                          i2l1480 0072                            i2l1472 003A  
                          i2l1554 0286                            i2l1546 0238  
                          i2l1538 01F6                            i2l1490 00B2  
                          i2l1482 0086                            i2l1474 004E  
                          i2l1466 000A                            i2l1556 028A  
                          i2l1548 024C                            i2l1492 00BA  
                          i2l1484 008E                            i2l1476 0056  
                          i2l1468 0018                            i2l1494 00CE  
                          i2l1486 0096                            i2l1478 006A  
                          i2l1496 00D6                            i2l1488 00AA  
                          i2l1498 00DE                            _PTCON0 000F7F  
                          _PTCON1 000F7E                            _TMR0IF 007F92  
                          _TMR1IF 007CF0                            _TMR1CS 007E69  
                          _TMR0ON 007EAF                            _TMR1ON 007E68  
                          _PTPERH 000F7A                            _PTPERL 000F7B  
                          ___wmul 25BE                  __end_of_picUSART 266A  
                          _setPWM 258A                            clear_0 2572  
                          isa$std 000001                  stringUSART@frase 0002  
                    i2_pararMotor 2606                      __pdataCOMRAM 0020  
        __size_of_testarDistancia 040C                         ??_estrela 000E  
                       ??_setTMR0 0002                         ??_setTMR1 0002  
                __end_of_testBuff 268A                      __mediumconst 0000  
                          tblptrh 000FF7                            tblptrl 000FF6  
                          tblptru 000FF8                      ?_testarLinha 0001  
                      __accesstop 0060           __end_of__initialization 2578  
                   ___rparam_used 000001                    __pcstackCOMRAM 0001  
                   __end_of_linha 2418                     __end_of_setBT 2656  
                   __end_of_setIO 2642                           ??_linha 000C  
                         ??_setBT 0002                           ??_setIO 0002  
              __size_of_readUSART 0008                      readUSART@ler 0001  
                    ?_stringUSART 0002                           ?___wmul 0002  
                         _T016BIT 007EAE                           ?_setPWM 0001  
                         _T1CKPS0 007E6C                           _T1OSCEN 007E6B  
                         _OVDCOND 000F6B                           _OVDCONS 000F6A  
                         i2u80_40 006A                           i2u80_41 0066  
                         i2u81_40 0086                           i2u81_41 0082  
                         i2u90_40 01A2                           i2u82_40 00AA  
                         i2u90_41 019E                           i2u82_41 00A6  
                         i2u91_40 01BE                           i2u83_40 00CE  
                         i2u91_41 01BA                           i2u83_41 00CA  
                         i2u92_40 01DA                           i2u84_40 00F2  
                         i2u76_40 0018                           i2u92_41 01D6  
                         i2u84_41 00EE                           i2u76_41 0014  
                         i2u93_40 01F6                           i2u85_40 0116  
                         i2u77_40 0028                           i2u93_41 01F2  
                         i2u85_41 0112                           i2u77_41 0024  
                         i2u94_40 0212                           i2u86_40 0132  
                         i2u78_40 0036                           i2u94_41 020E  
                         i2u86_41 012E                           i2u78_41 0032  
                         i2u95_40 0230                           i2u87_40 014E  
                         i2u79_40 004E                           i2u95_41 022C  
                         i2u87_41 014A                           i2u79_41 004A  
                         i2u96_40 024C                           i2u88_40 016A  
                         i2u96_41 0248                           i2u88_41 0166  
                         i2u97_40 026A                           i2u89_40 0186  
                         i2u97_41 0266                           i2u89_41 0182  
                         i2u98_40 0286                           i2u98_41 0282  
                         _PWMCON0 000F6F                           _PWMCON1 000F6E  
               ??_testarDistancia 000C                         ?_picUSART 0001  
                main@cont_tmr_710 0017                      stringUSART@i 0006  
                         __Hparam 0000                           __Lparam 0000  
                       ?_testBuff 0001                   __size_of___wmul 0026  
                    __psmallconst 0300                           __pcinit 2554  
                         __ramtop 0300                   __size_of_setPWM 0034  
                         __ptext0 0378                           __ptext1 1FEC  
                         __ptext2 24F4                           __ptext3 266A  
                         __ptext4 268A                           __ptext5 258A  
                         __ptext6 2628                           __ptext7 2642  
                         __ptext8 2656                           __ptext9 267A  
               __end_of_readUSART 26A0                        _pararMotor 25E4  
                    __size_of_ISR 028E                           _estrela 217A  
                         _setTMR0 268A                           _setTMR1 266A  
                         _sentido 001E                           main@aux 0016  
            end_of_initialization 2578                        ??_picUSART 0002  
            __size_of_testarLinha 018E                        _moverMotor 2418  
                      ??_testBuff 0002                         _RCSTAbits 000FAB  
                         postinc0 000FEE                    moverMotor@lado 000B  
                       _PORTAbits 000F80                         _PORTBbits 000F81  
                       _PORTCbits 000F82                         _PORTDbits 000F83  
                      _velocidade 001A                         _TXSTAbits 000FAC  
            __size_of_stringUSART 0060                    __end_of___wmul 25E4  
                   __pidataCOMRAM 26A0                       ?_pararMotor 0001  
                  __end_of_setPWM 25BE               start_initialization 2554  
                     __end_of_ISR 0296                       ?_moverMotor 0008  
                        ??___wmul 0006                          ??_setPWM 0002  
                 _testarDistancia 1BE0                       __pbssCOMRAM 0018  
               __size_of_picUSART 0014               __size_of_pararMotor 0022  
testarDistancia@velTestParaFrente 000C                         __pintcode 0008  
               __size_of_testBuff 0010                       __smallconst 0300  
                        ?_estrela 0001                          ?_setTMR0 0001  
                        ?_setTMR1 0001                         _readUSART 2698  
             __size_of_moverMotor 00DC                    __size_of_linha 0146  
                  __size_of_setBT 0014                    __size_of_setIO 001A  
                  ___wmul@product 0006                          _PIE1bits 000F9D  
                        _PIR1bits 000F9E           __end_of_testarDistancia 1FEC  
               ___wmul@multiplier 0002                     ?i2_pararMotor 0001  
                      ?_readUSART 0001                     ??_testarLinha 000C  
                        __Hrparam 0000                          __Lrparam 0000  
                  picUSART@status 0002                      __Lsmallconst 0300  
                  ??i2_pararMotor 0001                      ??_pararMotor 0002  
                __size_of_estrela 0158                  __size_of_setTMR0 000E  
                __size_of_setTMR1 0010                          __ptext10 22D2  
                        __ptext11 217A                          __ptext12 1BE0  
                        __ptext13 2418                          __ptext14 25BE  
                        __ptext15 25E4                          __ptext17 2606  
                        __ptext18 2698                          _picUSART 2656  
                   __size_of_main 1868               __end_of_testarLinha 217A  
                   ??_stringUSART 0004                __end_of_pararMotor 2606  
               moverMotor@sentido 0008                      ??_moverMotor 000B  
                        _testBuff 267A                          isa$xinst 000000  
                        int$flags 0022                  ?_testarDistancia 0001  
                        main@cont 0014                        _INTCONbits 000FF2  
                     ??_readUSART 0001                __end_of_moverMotor 24F4  
                        intlevel2 0000              moverMotor@velocidade 0009  
             __end_of_stringUSART 2554                       _testarLinha 1FEC  
            __end_ofi2_pararMotor 2628  
